
hx_kernel:     file format elf32-i386


Disassembly of section .text:

00100000 <start-0xc>:
  100000:	02 b0 ad 1b 03 00    	add    0x31bad(%eax),%dh
  100006:	00 00                	add    %al,(%eax)
  100008:	fb                   	sti    
  100009:	4f                   	dec    %edi
  10000a:	52                   	push   %edx
  10000b:	e4 fa                	in     $0xfa,%al

0010000c <start>:
  10000c:	fa                   	cli    
  10000d:	bc 03 80 00 00       	mov    $0x8003,%esp
  100012:	bd 00 00 00 00       	mov    $0x0,%ebp
  100017:	83 e4 f0             	and    $0xfffffff0,%esp
  10001a:	89 1d 00 b0 10 00    	mov    %ebx,0x10b000
  100020:	e8 96 0b 00 00       	call   100bbb <kern_entry>

00100025 <stop>:
  100025:	f4                   	hlt    
  100026:	eb fd                	jmp    100025 <stop>

00100028 <outb>:
  100028:	55                   	push   %ebp
  100029:	89 e5                	mov    %esp,%ebp
  10002b:	83 ec 08             	sub    $0x8,%esp
  10002e:	8b 55 08             	mov    0x8(%ebp),%edx
  100031:	8b 45 0c             	mov    0xc(%ebp),%eax
  100034:	66 89 55 fc          	mov    %dx,-0x4(%ebp)
  100038:	88 45 f8             	mov    %al,-0x8(%ebp)
  10003b:	0f b7 55 fc          	movzwl -0x4(%ebp),%edx
  10003f:	0f b6 45 f8          	movzbl -0x8(%ebp),%eax
  100043:	ee                   	out    %al,(%dx)
  100044:	90                   	nop
  100045:	c9                   	leave  
  100046:	c3                   	ret    

00100047 <inb>:
  100047:	55                   	push   %ebp
  100048:	89 e5                	mov    %esp,%ebp
  10004a:	83 ec 14             	sub    $0x14,%esp
  10004d:	8b 45 08             	mov    0x8(%ebp),%eax
  100050:	66 89 45 ec          	mov    %ax,-0x14(%ebp)
  100054:	0f b7 45 ec          	movzwl -0x14(%ebp),%eax
  100058:	89 c2                	mov    %eax,%edx
  10005a:	ec                   	in     (%dx),%al
  10005b:	88 45 ff             	mov    %al,-0x1(%ebp)
  10005e:	0f b6 45 ff          	movzbl -0x1(%ebp),%eax
  100062:	c9                   	leave  
  100063:	c3                   	ret    

00100064 <inw>:
  100064:	55                   	push   %ebp
  100065:	89 e5                	mov    %esp,%ebp
  100067:	83 ec 14             	sub    $0x14,%esp
  10006a:	8b 45 08             	mov    0x8(%ebp),%eax
  10006d:	66 89 45 ec          	mov    %ax,-0x14(%ebp)
  100071:	0f b7 45 ec          	movzwl -0x14(%ebp),%eax
  100075:	89 c2                	mov    %eax,%edx
  100077:	66 ed                	in     (%dx),%ax
  100079:	66 89 45 fe          	mov    %ax,-0x2(%ebp)
  10007d:	0f b7 45 fe          	movzwl -0x2(%ebp),%eax
  100081:	c9                   	leave  
  100082:	c3                   	ret    

00100083 <strcmp>:
  100083:	55                   	push   %ebp
  100084:	89 e5                	mov    %esp,%ebp
  100086:	eb 08                	jmp    100090 <strcmp+0xd>
  100088:	83 45 08 01          	addl   $0x1,0x8(%ebp)
  10008c:	83 45 0c 01          	addl   $0x1,0xc(%ebp)
  100090:	8b 45 08             	mov    0x8(%ebp),%eax
  100093:	0f b6 00             	movzbl (%eax),%eax
  100096:	84 c0                	test   %al,%al
  100098:	74 1a                	je     1000b4 <strcmp+0x31>
  10009a:	8b 45 0c             	mov    0xc(%ebp),%eax
  10009d:	0f b6 00             	movzbl (%eax),%eax
  1000a0:	84 c0                	test   %al,%al
  1000a2:	74 10                	je     1000b4 <strcmp+0x31>
  1000a4:	8b 45 08             	mov    0x8(%ebp),%eax
  1000a7:	0f b6 10             	movzbl (%eax),%edx
  1000aa:	8b 45 0c             	mov    0xc(%ebp),%eax
  1000ad:	0f b6 00             	movzbl (%eax),%eax
  1000b0:	38 c2                	cmp    %al,%dl
  1000b2:	74 d4                	je     100088 <strcmp+0x5>
  1000b4:	8b 45 08             	mov    0x8(%ebp),%eax
  1000b7:	0f b6 00             	movzbl (%eax),%eax
  1000ba:	0f be d0             	movsbl %al,%edx
  1000bd:	8b 45 0c             	mov    0xc(%ebp),%eax
  1000c0:	0f b6 00             	movzbl (%eax),%eax
  1000c3:	0f be c0             	movsbl %al,%eax
  1000c6:	29 c2                	sub    %eax,%edx
  1000c8:	89 d0                	mov    %edx,%eax
  1000ca:	5d                   	pop    %ebp
  1000cb:	c3                   	ret    

001000cc <elf_from_multiboot>:
  1000cc:	55                   	push   %ebp
  1000cd:	89 e5                	mov    %esp,%ebp
  1000cf:	83 ec 28             	sub    $0x28,%esp
  1000d2:	8b 45 0c             	mov    0xc(%ebp),%eax
  1000d5:	8b 40 24             	mov    0x24(%eax),%eax
  1000d8:	89 45 f0             	mov    %eax,-0x10(%ebp)
  1000db:	8b 45 0c             	mov    0xc(%ebp),%eax
  1000de:	8b 00                	mov    (%eax),%eax
  1000e0:	83 ec 08             	sub    $0x8,%esp
  1000e3:	50                   	push   %eax
  1000e4:	68 04 20 10 00       	push   $0x102004
  1000e9:	e8 c4 03 00 00       	call   1004b2 <printk>
  1000ee:	83 c4 10             	add    $0x10,%esp
  1000f1:	8b 45 0c             	mov    0xc(%ebp),%eax
  1000f4:	8b 40 1c             	mov    0x1c(%eax),%eax
  1000f7:	83 ec 08             	sub    $0x8,%esp
  1000fa:	50                   	push   %eax
  1000fb:	68 14 20 10 00       	push   $0x102014
  100100:	e8 ad 03 00 00       	call   1004b2 <printk>
  100105:	83 c4 10             	add    $0x10,%esp
  100108:	8b 45 0c             	mov    0xc(%ebp),%eax
  10010b:	8b 40 20             	mov    0x20(%eax),%eax
  10010e:	83 ec 08             	sub    $0x8,%esp
  100111:	50                   	push   %eax
  100112:	68 22 20 10 00       	push   $0x102022
  100117:	e8 96 03 00 00       	call   1004b2 <printk>
  10011c:	83 c4 10             	add    $0x10,%esp
  10011f:	8b 45 0c             	mov    0xc(%ebp),%eax
  100122:	8b 40 24             	mov    0x24(%eax),%eax
  100125:	83 ec 08             	sub    $0x8,%esp
  100128:	50                   	push   %eax
  100129:	68 31 20 10 00       	push   $0x102031
  10012e:	e8 7f 03 00 00       	call   1004b2 <printk>
  100133:	83 c4 10             	add    $0x10,%esp
  100136:	8b 45 0c             	mov    0xc(%ebp),%eax
  100139:	8b 40 28             	mov    0x28(%eax),%eax
  10013c:	83 ec 08             	sub    $0x8,%esp
  10013f:	50                   	push   %eax
  100140:	68 42 20 10 00       	push   $0x102042
  100145:	e8 68 03 00 00       	call   1004b2 <printk>
  10014a:	83 c4 10             	add    $0x10,%esp
  10014d:	8b 45 0c             	mov    0xc(%ebp),%eax
  100150:	8b 50 28             	mov    0x28(%eax),%edx
  100153:	89 d0                	mov    %edx,%eax
  100155:	c1 e0 02             	shl    $0x2,%eax
  100158:	01 d0                	add    %edx,%eax
  10015a:	c1 e0 03             	shl    $0x3,%eax
  10015d:	89 c2                	mov    %eax,%edx
  10015f:	8b 45 f0             	mov    -0x10(%ebp),%eax
  100162:	01 d0                	add    %edx,%eax
  100164:	8b 40 0c             	mov    0xc(%eax),%eax
  100167:	89 45 ec             	mov    %eax,-0x14(%ebp)
  10016a:	c7 45 f4 00 00 00 00 	movl   $0x0,-0xc(%ebp)
  100171:	e9 b8 00 00 00       	jmp    10022e <elf_from_multiboot+0x162>
  100176:	8b 55 f4             	mov    -0xc(%ebp),%edx
  100179:	89 d0                	mov    %edx,%eax
  10017b:	c1 e0 02             	shl    $0x2,%eax
  10017e:	01 d0                	add    %edx,%eax
  100180:	c1 e0 03             	shl    $0x3,%eax
  100183:	89 c2                	mov    %eax,%edx
  100185:	8b 45 f0             	mov    -0x10(%ebp),%eax
  100188:	01 d0                	add    %edx,%eax
  10018a:	8b 10                	mov    (%eax),%edx
  10018c:	8b 45 ec             	mov    -0x14(%ebp),%eax
  10018f:	01 d0                	add    %edx,%eax
  100191:	89 45 e8             	mov    %eax,-0x18(%ebp)
  100194:	83 ec 08             	sub    $0x8,%esp
  100197:	68 52 20 10 00       	push   $0x102052
  10019c:	ff 75 e8             	pushl  -0x18(%ebp)
  10019f:	e8 df fe ff ff       	call   100083 <strcmp>
  1001a4:	83 c4 10             	add    $0x10,%esp
  1001a7:	85 c0                	test   %eax,%eax
  1001a9:	75 34                	jne    1001df <elf_from_multiboot+0x113>
  1001ab:	8b 55 f4             	mov    -0xc(%ebp),%edx
  1001ae:	89 d0                	mov    %edx,%eax
  1001b0:	c1 e0 02             	shl    $0x2,%eax
  1001b3:	01 d0                	add    %edx,%eax
  1001b5:	c1 e0 03             	shl    $0x3,%eax
  1001b8:	89 c2                	mov    %eax,%edx
  1001ba:	8b 45 f0             	mov    -0x10(%ebp),%eax
  1001bd:	01 d0                	add    %edx,%eax
  1001bf:	8b 40 0c             	mov    0xc(%eax),%eax
  1001c2:	89 45 e0             	mov    %eax,-0x20(%ebp)
  1001c5:	8b 55 f4             	mov    -0xc(%ebp),%edx
  1001c8:	89 d0                	mov    %edx,%eax
  1001ca:	c1 e0 02             	shl    $0x2,%eax
  1001cd:	01 d0                	add    %edx,%eax
  1001cf:	c1 e0 03             	shl    $0x3,%eax
  1001d2:	89 c2                	mov    %eax,%edx
  1001d4:	8b 45 f0             	mov    -0x10(%ebp),%eax
  1001d7:	01 d0                	add    %edx,%eax
  1001d9:	8b 40 14             	mov    0x14(%eax),%eax
  1001dc:	89 45 e4             	mov    %eax,-0x1c(%ebp)
  1001df:	83 ec 08             	sub    $0x8,%esp
  1001e2:	68 5a 20 10 00       	push   $0x10205a
  1001e7:	ff 75 e8             	pushl  -0x18(%ebp)
  1001ea:	e8 94 fe ff ff       	call   100083 <strcmp>
  1001ef:	83 c4 10             	add    $0x10,%esp
  1001f2:	85 c0                	test   %eax,%eax
  1001f4:	75 34                	jne    10022a <elf_from_multiboot+0x15e>
  1001f6:	8b 55 f4             	mov    -0xc(%ebp),%edx
  1001f9:	89 d0                	mov    %edx,%eax
  1001fb:	c1 e0 02             	shl    $0x2,%eax
  1001fe:	01 d0                	add    %edx,%eax
  100200:	c1 e0 03             	shl    $0x3,%eax
  100203:	89 c2                	mov    %eax,%edx
  100205:	8b 45 f0             	mov    -0x10(%ebp),%eax
  100208:	01 d0                	add    %edx,%eax
  10020a:	8b 40 0c             	mov    0xc(%eax),%eax
  10020d:	89 45 d8             	mov    %eax,-0x28(%ebp)
  100210:	8b 55 f4             	mov    -0xc(%ebp),%edx
  100213:	89 d0                	mov    %edx,%eax
  100215:	c1 e0 02             	shl    $0x2,%eax
  100218:	01 d0                	add    %edx,%eax
  10021a:	c1 e0 03             	shl    $0x3,%eax
  10021d:	89 c2                	mov    %eax,%edx
  10021f:	8b 45 f0             	mov    -0x10(%ebp),%eax
  100222:	01 d0                	add    %edx,%eax
  100224:	8b 40 14             	mov    0x14(%eax),%eax
  100227:	89 45 dc             	mov    %eax,-0x24(%ebp)
  10022a:	83 45 f4 01          	addl   $0x1,-0xc(%ebp)
  10022e:	8b 45 0c             	mov    0xc(%ebp),%eax
  100231:	8b 50 1c             	mov    0x1c(%eax),%edx
  100234:	8b 45 f4             	mov    -0xc(%ebp),%eax
  100237:	39 c2                	cmp    %eax,%edx
  100239:	0f 87 37 ff ff ff    	ja     100176 <elf_from_multiboot+0xaa>
  10023f:	8b 45 08             	mov    0x8(%ebp),%eax
  100242:	8b 55 d8             	mov    -0x28(%ebp),%edx
  100245:	89 10                	mov    %edx,(%eax)
  100247:	8b 55 dc             	mov    -0x24(%ebp),%edx
  10024a:	89 50 04             	mov    %edx,0x4(%eax)
  10024d:	8b 55 e0             	mov    -0x20(%ebp),%edx
  100250:	89 50 08             	mov    %edx,0x8(%eax)
  100253:	8b 55 e4             	mov    -0x1c(%ebp),%edx
  100256:	89 50 0c             	mov    %edx,0xc(%eax)
  100259:	8b 45 08             	mov    0x8(%ebp),%eax
  10025c:	c9                   	leave  
  10025d:	c2 04 00             	ret    $0x4

00100260 <elf_lookup_symbol>:
  100260:	55                   	push   %ebp
  100261:	89 e5                	mov    %esp,%ebp
  100263:	83 ec 10             	sub    $0x10,%esp
  100266:	c7 45 fc 00 00 00 00 	movl   $0x0,-0x4(%ebp)
  10026d:	eb 78                	jmp    1002e7 <elf_lookup_symbol+0x87>
  10026f:	8b 45 0c             	mov    0xc(%ebp),%eax
  100272:	8b 00                	mov    (%eax),%eax
  100274:	8b 55 fc             	mov    -0x4(%ebp),%edx
  100277:	c1 e2 04             	shl    $0x4,%edx
  10027a:	01 d0                	add    %edx,%eax
  10027c:	0f b6 40 0c          	movzbl 0xc(%eax),%eax
  100280:	0f b6 c0             	movzbl %al,%eax
  100283:	83 e0 0f             	and    $0xf,%eax
  100286:	83 f8 02             	cmp    $0x2,%eax
  100289:	75 57                	jne    1002e2 <elf_lookup_symbol+0x82>
  10028b:	8b 45 0c             	mov    0xc(%ebp),%eax
  10028e:	8b 00                	mov    (%eax),%eax
  100290:	8b 55 fc             	mov    -0x4(%ebp),%edx
  100293:	c1 e2 04             	shl    $0x4,%edx
  100296:	01 d0                	add    %edx,%eax
  100298:	8b 40 04             	mov    0x4(%eax),%eax
  10029b:	39 45 08             	cmp    %eax,0x8(%ebp)
  10029e:	72 43                	jb     1002e3 <elf_lookup_symbol+0x83>
  1002a0:	8b 45 0c             	mov    0xc(%ebp),%eax
  1002a3:	8b 00                	mov    (%eax),%eax
  1002a5:	8b 55 fc             	mov    -0x4(%ebp),%edx
  1002a8:	c1 e2 04             	shl    $0x4,%edx
  1002ab:	01 d0                	add    %edx,%eax
  1002ad:	8b 50 04             	mov    0x4(%eax),%edx
  1002b0:	8b 45 0c             	mov    0xc(%ebp),%eax
  1002b3:	8b 00                	mov    (%eax),%eax
  1002b5:	8b 4d fc             	mov    -0x4(%ebp),%ecx
  1002b8:	c1 e1 04             	shl    $0x4,%ecx
  1002bb:	01 c8                	add    %ecx,%eax
  1002bd:	8b 40 08             	mov    0x8(%eax),%eax
  1002c0:	01 d0                	add    %edx,%eax
  1002c2:	39 45 08             	cmp    %eax,0x8(%ebp)
  1002c5:	73 1c                	jae    1002e3 <elf_lookup_symbol+0x83>
  1002c7:	8b 45 0c             	mov    0xc(%ebp),%eax
  1002ca:	8b 40 08             	mov    0x8(%eax),%eax
  1002cd:	89 c1                	mov    %eax,%ecx
  1002cf:	8b 45 0c             	mov    0xc(%ebp),%eax
  1002d2:	8b 00                	mov    (%eax),%eax
  1002d4:	8b 55 fc             	mov    -0x4(%ebp),%edx
  1002d7:	c1 e2 04             	shl    $0x4,%edx
  1002da:	01 d0                	add    %edx,%eax
  1002dc:	8b 00                	mov    (%eax),%eax
  1002de:	01 c8                	add    %ecx,%eax
  1002e0:	eb 20                	jmp    100302 <elf_lookup_symbol+0xa2>
  1002e2:	90                   	nop
  1002e3:	83 45 fc 01          	addl   $0x1,-0x4(%ebp)
  1002e7:	8b 45 0c             	mov    0xc(%ebp),%eax
  1002ea:	8b 40 04             	mov    0x4(%eax),%eax
  1002ed:	c1 e8 04             	shr    $0x4,%eax
  1002f0:	89 c2                	mov    %eax,%edx
  1002f2:	8b 45 fc             	mov    -0x4(%ebp),%eax
  1002f5:	39 c2                	cmp    %eax,%edx
  1002f7:	0f 87 72 ff ff ff    	ja     10026f <elf_lookup_symbol+0xf>
  1002fd:	b8 00 00 00 00       	mov    $0x0,%eax
  100302:	c9                   	leave  
  100303:	c3                   	ret    

00100304 <init_debug>:
  100304:	55                   	push   %ebp
  100305:	89 e5                	mov    %esp,%ebp
  100307:	83 ec 18             	sub    $0x18,%esp
  10030a:	8b 15 00 b0 10 00    	mov    0x10b000,%edx
  100310:	8d 45 e8             	lea    -0x18(%ebp),%eax
  100313:	83 ec 08             	sub    $0x8,%esp
  100316:	52                   	push   %edx
  100317:	50                   	push   %eax
  100318:	e8 af fd ff ff       	call   1000cc <elf_from_multiboot>
  10031d:	83 c4 0c             	add    $0xc,%esp
  100320:	8b 45 e8             	mov    -0x18(%ebp),%eax
  100323:	a3 04 b0 10 00       	mov    %eax,0x10b004
  100328:	8b 45 ec             	mov    -0x14(%ebp),%eax
  10032b:	a3 08 b0 10 00       	mov    %eax,0x10b008
  100330:	8b 45 f0             	mov    -0x10(%ebp),%eax
  100333:	a3 0c b0 10 00       	mov    %eax,0x10b00c
  100338:	8b 45 f4             	mov    -0xc(%ebp),%eax
  10033b:	a3 10 b0 10 00       	mov    %eax,0x10b010
  100340:	90                   	nop
  100341:	c9                   	leave  
  100342:	c3                   	ret    

00100343 <print_cur_status>:
  100343:	55                   	push   %ebp
  100344:	89 e5                	mov    %esp,%ebp
  100346:	83 ec 18             	sub    $0x18,%esp
  100349:	8c 4d f6             	mov    %cs,-0xa(%ebp)
  10034c:	8c 5d f4             	mov    %ds,-0xc(%ebp)
  10034f:	8c 45 f2             	mov    %es,-0xe(%ebp)
  100352:	8c 55 f0             	mov    %ss,-0x10(%ebp)
  100355:	0f b7 45 f6          	movzwl -0xa(%ebp),%eax
  100359:	0f b7 c0             	movzwl %ax,%eax
  10035c:	83 e0 03             	and    $0x3,%eax
  10035f:	89 c2                	mov    %eax,%edx
  100361:	a1 14 b0 10 00       	mov    0x10b014,%eax
  100366:	83 ec 04             	sub    $0x4,%esp
  100369:	52                   	push   %edx
  10036a:	50                   	push   %eax
  10036b:	68 62 20 10 00       	push   $0x102062
  100370:	e8 3d 01 00 00       	call   1004b2 <printk>
  100375:	83 c4 10             	add    $0x10,%esp
  100378:	0f b7 45 f6          	movzwl -0xa(%ebp),%eax
  10037c:	0f b7 d0             	movzwl %ax,%edx
  10037f:	a1 14 b0 10 00       	mov    0x10b014,%eax
  100384:	83 ec 04             	sub    $0x4,%esp
  100387:	52                   	push   %edx
  100388:	50                   	push   %eax
  100389:	68 70 20 10 00       	push   $0x102070
  10038e:	e8 1f 01 00 00       	call   1004b2 <printk>
  100393:	83 c4 10             	add    $0x10,%esp
  100396:	0f b7 45 f4          	movzwl -0xc(%ebp),%eax
  10039a:	0f b7 d0             	movzwl %ax,%edx
  10039d:	a1 14 b0 10 00       	mov    0x10b014,%eax
  1003a2:	83 ec 04             	sub    $0x4,%esp
  1003a5:	52                   	push   %edx
  1003a6:	50                   	push   %eax
  1003a7:	68 7e 20 10 00       	push   $0x10207e
  1003ac:	e8 01 01 00 00       	call   1004b2 <printk>
  1003b1:	83 c4 10             	add    $0x10,%esp
  1003b4:	0f b7 45 f2          	movzwl -0xe(%ebp),%eax
  1003b8:	0f b7 d0             	movzwl %ax,%edx
  1003bb:	a1 14 b0 10 00       	mov    0x10b014,%eax
  1003c0:	83 ec 04             	sub    $0x4,%esp
  1003c3:	52                   	push   %edx
  1003c4:	50                   	push   %eax
  1003c5:	68 8c 20 10 00       	push   $0x10208c
  1003ca:	e8 e3 00 00 00       	call   1004b2 <printk>
  1003cf:	83 c4 10             	add    $0x10,%esp
  1003d2:	0f b7 45 f0          	movzwl -0x10(%ebp),%eax
  1003d6:	0f b7 d0             	movzwl %ax,%edx
  1003d9:	a1 14 b0 10 00       	mov    0x10b014,%eax
  1003de:	83 ec 04             	sub    $0x4,%esp
  1003e1:	52                   	push   %edx
  1003e2:	50                   	push   %eax
  1003e3:	68 9a 20 10 00       	push   $0x10209a
  1003e8:	e8 c5 00 00 00       	call   1004b2 <printk>
  1003ed:	83 c4 10             	add    $0x10,%esp
  1003f0:	a1 14 b0 10 00       	mov    0x10b014,%eax
  1003f5:	83 c0 01             	add    $0x1,%eax
  1003f8:	a3 14 b0 10 00       	mov    %eax,0x10b014
  1003fd:	90                   	nop
  1003fe:	c9                   	leave  
  1003ff:	c3                   	ret    

00100400 <panic>:
  100400:	55                   	push   %ebp
  100401:	89 e5                	mov    %esp,%ebp
  100403:	83 ec 08             	sub    $0x8,%esp
  100406:	83 ec 08             	sub    $0x8,%esp
  100409:	ff 75 08             	pushl  0x8(%ebp)
  10040c:	68 a8 20 10 00       	push   $0x1020a8
  100411:	e8 9c 00 00 00       	call   1004b2 <printk>
  100416:	83 c4 10             	add    $0x10,%esp
  100419:	e8 12 00 00 00       	call   100430 <print_stack_trace>
  10041e:	83 ec 0c             	sub    $0xc,%esp
  100421:	68 be 20 10 00       	push   $0x1020be
  100426:	e8 87 00 00 00       	call   1004b2 <printk>
  10042b:	83 c4 10             	add    $0x10,%esp
  10042e:	eb fe                	jmp    10042e <panic+0x2e>

00100430 <print_stack_trace>:
  100430:	55                   	push   %ebp
  100431:	89 e5                	mov    %esp,%ebp
  100433:	83 ec 18             	sub    $0x18,%esp
  100436:	89 e8                	mov    %ebp,%eax
  100438:	89 45 f4             	mov    %eax,-0xc(%ebp)
  10043b:	eb 40                	jmp    10047d <print_stack_trace+0x4d>
  10043d:	8b 45 f4             	mov    -0xc(%ebp),%eax
  100440:	83 c0 04             	add    $0x4,%eax
  100443:	89 45 f0             	mov    %eax,-0x10(%ebp)
  100446:	8b 45 f0             	mov    -0x10(%ebp),%eax
  100449:	8b 00                	mov    (%eax),%eax
  10044b:	83 ec 08             	sub    $0x8,%esp
  10044e:	68 04 b0 10 00       	push   $0x10b004
  100453:	50                   	push   %eax
  100454:	e8 07 fe ff ff       	call   100260 <elf_lookup_symbol>
  100459:	83 c4 10             	add    $0x10,%esp
  10045c:	89 c2                	mov    %eax,%edx
  10045e:	8b 45 f0             	mov    -0x10(%ebp),%eax
  100461:	8b 00                	mov    (%eax),%eax
  100463:	83 ec 04             	sub    $0x4,%esp
  100466:	52                   	push   %edx
  100467:	50                   	push   %eax
  100468:	68 c3 20 10 00       	push   $0x1020c3
  10046d:	e8 40 00 00 00       	call   1004b2 <printk>
  100472:	83 c4 10             	add    $0x10,%esp
  100475:	8b 45 f4             	mov    -0xc(%ebp),%eax
  100478:	8b 00                	mov    (%eax),%eax
  10047a:	89 45 f4             	mov    %eax,-0xc(%ebp)
  10047d:	83 7d f4 00          	cmpl   $0x0,-0xc(%ebp)
  100481:	75 ba                	jne    10043d <print_stack_trace+0xd>
  100483:	90                   	nop
  100484:	c9                   	leave  
  100485:	c3                   	ret    

00100486 <strlen>:
  100486:	55                   	push   %ebp
  100487:	89 e5                	mov    %esp,%ebp
  100489:	83 ec 10             	sub    $0x10,%esp
  10048c:	8b 45 08             	mov    0x8(%ebp),%eax
  10048f:	89 45 fc             	mov    %eax,-0x4(%ebp)
  100492:	90                   	nop
  100493:	8b 45 fc             	mov    -0x4(%ebp),%eax
  100496:	8d 50 01             	lea    0x1(%eax),%edx
  100499:	89 55 fc             	mov    %edx,-0x4(%ebp)
  10049c:	0f b6 00             	movzbl (%eax),%eax
  10049f:	84 c0                	test   %al,%al
  1004a1:	75 f0                	jne    100493 <strlen+0xd>
  1004a3:	8b 55 fc             	mov    -0x4(%ebp),%edx
  1004a6:	8b 45 08             	mov    0x8(%ebp),%eax
  1004a9:	29 c2                	sub    %eax,%edx
  1004ab:	89 d0                	mov    %edx,%eax
  1004ad:	83 e8 01             	sub    $0x1,%eax
  1004b0:	c9                   	leave  
  1004b1:	c3                   	ret    

001004b2 <printk>:
  1004b2:	55                   	push   %ebp
  1004b3:	89 e5                	mov    %esp,%ebp
  1004b5:	83 ec 18             	sub    $0x18,%esp
  1004b8:	8d 45 0c             	lea    0xc(%ebp),%eax
  1004bb:	89 45 f0             	mov    %eax,-0x10(%ebp)
  1004be:	8b 45 f0             	mov    -0x10(%ebp),%eax
  1004c1:	83 ec 04             	sub    $0x4,%esp
  1004c4:	50                   	push   %eax
  1004c5:	ff 75 08             	pushl  0x8(%ebp)
  1004c8:	68 20 b0 10 00       	push   $0x10b020
  1004cd:	e8 ed 02 00 00       	call   1007bf <vsprintf>
  1004d2:	83 c4 10             	add    $0x10,%esp
  1004d5:	89 45 f4             	mov    %eax,-0xc(%ebp)
  1004d8:	8b 45 f4             	mov    -0xc(%ebp),%eax
  1004db:	05 20 b0 10 00       	add    $0x10b020,%eax
  1004e0:	c6 00 00             	movb   $0x0,(%eax)
  1004e3:	83 ec 0c             	sub    $0xc,%esp
  1004e6:	68 20 b0 10 00       	push   $0x10b020
  1004eb:	e8 c0 09 00 00       	call   100eb0 <console_write>
  1004f0:	83 c4 10             	add    $0x10,%esp
  1004f3:	90                   	nop
  1004f4:	c9                   	leave  
  1004f5:	c3                   	ret    

001004f6 <printk_color>:
  1004f6:	55                   	push   %ebp
  1004f7:	89 e5                	mov    %esp,%ebp
  1004f9:	83 ec 18             	sub    $0x18,%esp
  1004fc:	8d 45 14             	lea    0x14(%ebp),%eax
  1004ff:	89 45 f0             	mov    %eax,-0x10(%ebp)
  100502:	8b 45 f0             	mov    -0x10(%ebp),%eax
  100505:	83 ec 04             	sub    $0x4,%esp
  100508:	50                   	push   %eax
  100509:	ff 75 10             	pushl  0x10(%ebp)
  10050c:	68 20 b4 10 00       	push   $0x10b420
  100511:	e8 a9 02 00 00       	call   1007bf <vsprintf>
  100516:	83 c4 10             	add    $0x10,%esp
  100519:	89 45 f4             	mov    %eax,-0xc(%ebp)
  10051c:	8b 45 f4             	mov    -0xc(%ebp),%eax
  10051f:	05 20 b4 10 00       	add    $0x10b420,%eax
  100524:	c6 00 00             	movb   $0x0,(%eax)
  100527:	83 ec 04             	sub    $0x4,%esp
  10052a:	ff 75 0c             	pushl  0xc(%ebp)
  10052d:	ff 75 08             	pushl  0x8(%ebp)
  100530:	68 20 b4 10 00       	push   $0x10b420
  100535:	e8 aa 09 00 00       	call   100ee4 <console_write_color>
  10053a:	83 c4 10             	add    $0x10,%esp
  10053d:	90                   	nop
  10053e:	c9                   	leave  
  10053f:	c3                   	ret    

00100540 <skip_atoi>:
  100540:	55                   	push   %ebp
  100541:	89 e5                	mov    %esp,%ebp
  100543:	53                   	push   %ebx
  100544:	83 ec 10             	sub    $0x10,%esp
  100547:	c7 45 f8 00 00 00 00 	movl   $0x0,-0x8(%ebp)
  10054e:	eb 29                	jmp    100579 <skip_atoi+0x39>
  100550:	8b 55 f8             	mov    -0x8(%ebp),%edx
  100553:	89 d0                	mov    %edx,%eax
  100555:	c1 e0 02             	shl    $0x2,%eax
  100558:	01 d0                	add    %edx,%eax
  10055a:	01 c0                	add    %eax,%eax
  10055c:	89 c3                	mov    %eax,%ebx
  10055e:	8b 45 08             	mov    0x8(%ebp),%eax
  100561:	8b 00                	mov    (%eax),%eax
  100563:	8d 48 01             	lea    0x1(%eax),%ecx
  100566:	8b 55 08             	mov    0x8(%ebp),%edx
  100569:	89 0a                	mov    %ecx,(%edx)
  10056b:	0f b6 00             	movzbl (%eax),%eax
  10056e:	0f be c0             	movsbl %al,%eax
  100571:	01 d8                	add    %ebx,%eax
  100573:	83 e8 30             	sub    $0x30,%eax
  100576:	89 45 f8             	mov    %eax,-0x8(%ebp)
  100579:	8b 45 08             	mov    0x8(%ebp),%eax
  10057c:	8b 00                	mov    (%eax),%eax
  10057e:	0f b6 00             	movzbl (%eax),%eax
  100581:	3c 2f                	cmp    $0x2f,%al
  100583:	7e 0c                	jle    100591 <skip_atoi+0x51>
  100585:	8b 45 08             	mov    0x8(%ebp),%eax
  100588:	8b 00                	mov    (%eax),%eax
  10058a:	0f b6 00             	movzbl (%eax),%eax
  10058d:	3c 39                	cmp    $0x39,%al
  10058f:	7e bf                	jle    100550 <skip_atoi+0x10>
  100591:	8b 45 f8             	mov    -0x8(%ebp),%eax
  100594:	83 c4 10             	add    $0x10,%esp
  100597:	5b                   	pop    %ebx
  100598:	5d                   	pop    %ebp
  100599:	c3                   	ret    

0010059a <number>:
  10059a:	55                   	push   %ebp
  10059b:	89 e5                	mov    %esp,%ebp
  10059d:	83 ec 40             	sub    $0x40,%esp
  1005a0:	c7 45 f8 d4 20 10 00 	movl   $0x1020d4,-0x8(%ebp)
  1005a7:	8b 45 1c             	mov    0x1c(%ebp),%eax
  1005aa:	83 e0 40             	and    $0x40,%eax
  1005ad:	85 c0                	test   %eax,%eax
  1005af:	74 07                	je     1005b8 <number+0x1e>
  1005b1:	c7 45 f8 fc 20 10 00 	movl   $0x1020fc,-0x8(%ebp)
  1005b8:	8b 45 1c             	mov    0x1c(%ebp),%eax
  1005bb:	83 e0 10             	and    $0x10,%eax
  1005be:	85 c0                	test   %eax,%eax
  1005c0:	74 04                	je     1005c6 <number+0x2c>
  1005c2:	83 65 1c fe          	andl   $0xfffffffe,0x1c(%ebp)
  1005c6:	83 7d 10 01          	cmpl   $0x1,0x10(%ebp)
  1005ca:	7e 06                	jle    1005d2 <number+0x38>
  1005cc:	83 7d 10 24          	cmpl   $0x24,0x10(%ebp)
  1005d0:	7e 0a                	jle    1005dc <number+0x42>
  1005d2:	b8 00 00 00 00       	mov    $0x0,%eax
  1005d7:	e9 e1 01 00 00       	jmp    1007bd <number+0x223>
  1005dc:	8b 45 1c             	mov    0x1c(%ebp),%eax
  1005df:	83 e0 01             	and    $0x1,%eax
  1005e2:	85 c0                	test   %eax,%eax
  1005e4:	74 07                	je     1005ed <number+0x53>
  1005e6:	b8 30 00 00 00       	mov    $0x30,%eax
  1005eb:	eb 05                	jmp    1005f2 <number+0x58>
  1005ed:	b8 20 00 00 00       	mov    $0x20,%eax
  1005f2:	88 45 f3             	mov    %al,-0xd(%ebp)
  1005f5:	8b 45 1c             	mov    0x1c(%ebp),%eax
  1005f8:	83 e0 02             	and    $0x2,%eax
  1005fb:	85 c0                	test   %eax,%eax
  1005fd:	74 0f                	je     10060e <number+0x74>
  1005ff:	83 7d 0c 00          	cmpl   $0x0,0xc(%ebp)
  100603:	79 09                	jns    10060e <number+0x74>
  100605:	c6 45 ff 2d          	movb   $0x2d,-0x1(%ebp)
  100609:	f7 5d 0c             	negl   0xc(%ebp)
  10060c:	eb 1d                	jmp    10062b <number+0x91>
  10060e:	8b 45 1c             	mov    0x1c(%ebp),%eax
  100611:	83 e0 04             	and    $0x4,%eax
  100614:	85 c0                	test   %eax,%eax
  100616:	75 0b                	jne    100623 <number+0x89>
  100618:	8b 45 1c             	mov    0x1c(%ebp),%eax
  10061b:	c1 e0 02             	shl    $0x2,%eax
  10061e:	83 e0 20             	and    $0x20,%eax
  100621:	eb 05                	jmp    100628 <number+0x8e>
  100623:	b8 2b 00 00 00       	mov    $0x2b,%eax
  100628:	88 45 ff             	mov    %al,-0x1(%ebp)
  10062b:	80 7d ff 00          	cmpb   $0x0,-0x1(%ebp)
  10062f:	74 04                	je     100635 <number+0x9b>
  100631:	83 6d 14 01          	subl   $0x1,0x14(%ebp)
  100635:	8b 45 1c             	mov    0x1c(%ebp),%eax
  100638:	83 e0 20             	and    $0x20,%eax
  10063b:	85 c0                	test   %eax,%eax
  10063d:	74 16                	je     100655 <number+0xbb>
  10063f:	83 7d 10 10          	cmpl   $0x10,0x10(%ebp)
  100643:	75 06                	jne    10064b <number+0xb1>
  100645:	83 6d 14 02          	subl   $0x2,0x14(%ebp)
  100649:	eb 0a                	jmp    100655 <number+0xbb>
  10064b:	83 7d 10 08          	cmpl   $0x8,0x10(%ebp)
  10064f:	75 04                	jne    100655 <number+0xbb>
  100651:	83 6d 14 01          	subl   $0x1,0x14(%ebp)
  100655:	c7 45 f4 00 00 00 00 	movl   $0x0,-0xc(%ebp)
  10065c:	83 7d 0c 00          	cmpl   $0x0,0xc(%ebp)
  100660:	75 3e                	jne    1006a0 <number+0x106>
  100662:	8b 45 f4             	mov    -0xc(%ebp),%eax
  100665:	8d 50 01             	lea    0x1(%eax),%edx
  100668:	89 55 f4             	mov    %edx,-0xc(%ebp)
  10066b:	c6 44 05 c8 30       	movb   $0x30,-0x38(%ebp,%eax,1)
  100670:	eb 34                	jmp    1006a6 <number+0x10c>
  100672:	8b 45 0c             	mov    0xc(%ebp),%eax
  100675:	ba 00 00 00 00       	mov    $0x0,%edx
  10067a:	8b 4d 10             	mov    0x10(%ebp),%ecx
  10067d:	f7 f1                	div    %ecx
  10067f:	89 45 0c             	mov    %eax,0xc(%ebp)
  100682:	89 55 ec             	mov    %edx,-0x14(%ebp)
  100685:	8b 45 ec             	mov    -0x14(%ebp),%eax
  100688:	89 c2                	mov    %eax,%edx
  10068a:	8b 45 f8             	mov    -0x8(%ebp),%eax
  10068d:	8d 0c 02             	lea    (%edx,%eax,1),%ecx
  100690:	8b 45 f4             	mov    -0xc(%ebp),%eax
  100693:	8d 50 01             	lea    0x1(%eax),%edx
  100696:	89 55 f4             	mov    %edx,-0xc(%ebp)
  100699:	0f b6 11             	movzbl (%ecx),%edx
  10069c:	88 54 05 c8          	mov    %dl,-0x38(%ebp,%eax,1)
  1006a0:	83 7d 0c 00          	cmpl   $0x0,0xc(%ebp)
  1006a4:	75 cc                	jne    100672 <number+0xd8>
  1006a6:	8b 45 f4             	mov    -0xc(%ebp),%eax
  1006a9:	3b 45 18             	cmp    0x18(%ebp),%eax
  1006ac:	7e 06                	jle    1006b4 <number+0x11a>
  1006ae:	8b 45 f4             	mov    -0xc(%ebp),%eax
  1006b1:	89 45 18             	mov    %eax,0x18(%ebp)
  1006b4:	8b 45 18             	mov    0x18(%ebp),%eax
  1006b7:	29 45 14             	sub    %eax,0x14(%ebp)
  1006ba:	8b 45 1c             	mov    0x1c(%ebp),%eax
  1006bd:	83 e0 11             	and    $0x11,%eax
  1006c0:	85 c0                	test   %eax,%eax
  1006c2:	75 1b                	jne    1006df <number+0x145>
  1006c4:	eb 0c                	jmp    1006d2 <number+0x138>
  1006c6:	8b 45 08             	mov    0x8(%ebp),%eax
  1006c9:	8d 50 01             	lea    0x1(%eax),%edx
  1006cc:	89 55 08             	mov    %edx,0x8(%ebp)
  1006cf:	c6 00 20             	movb   $0x20,(%eax)
  1006d2:	8b 45 14             	mov    0x14(%ebp),%eax
  1006d5:	8d 50 ff             	lea    -0x1(%eax),%edx
  1006d8:	89 55 14             	mov    %edx,0x14(%ebp)
  1006db:	85 c0                	test   %eax,%eax
  1006dd:	7f e7                	jg     1006c6 <number+0x12c>
  1006df:	80 7d ff 00          	cmpb   $0x0,-0x1(%ebp)
  1006e3:	74 0f                	je     1006f4 <number+0x15a>
  1006e5:	8b 45 08             	mov    0x8(%ebp),%eax
  1006e8:	8d 50 01             	lea    0x1(%eax),%edx
  1006eb:	89 55 08             	mov    %edx,0x8(%ebp)
  1006ee:	0f b6 55 ff          	movzbl -0x1(%ebp),%edx
  1006f2:	88 10                	mov    %dl,(%eax)
  1006f4:	8b 45 1c             	mov    0x1c(%ebp),%eax
  1006f7:	83 e0 20             	and    $0x20,%eax
  1006fa:	85 c0                	test   %eax,%eax
  1006fc:	74 38                	je     100736 <number+0x19c>
  1006fe:	83 7d 10 08          	cmpl   $0x8,0x10(%ebp)
  100702:	75 0e                	jne    100712 <number+0x178>
  100704:	8b 45 08             	mov    0x8(%ebp),%eax
  100707:	8d 50 01             	lea    0x1(%eax),%edx
  10070a:	89 55 08             	mov    %edx,0x8(%ebp)
  10070d:	c6 00 30             	movb   $0x30,(%eax)
  100710:	eb 24                	jmp    100736 <number+0x19c>
  100712:	83 7d 10 10          	cmpl   $0x10,0x10(%ebp)
  100716:	75 1e                	jne    100736 <number+0x19c>
  100718:	8b 45 08             	mov    0x8(%ebp),%eax
  10071b:	8d 50 01             	lea    0x1(%eax),%edx
  10071e:	89 55 08             	mov    %edx,0x8(%ebp)
  100721:	c6 00 30             	movb   $0x30,(%eax)
  100724:	8b 45 08             	mov    0x8(%ebp),%eax
  100727:	8d 50 01             	lea    0x1(%eax),%edx
  10072a:	89 55 08             	mov    %edx,0x8(%ebp)
  10072d:	8b 55 f8             	mov    -0x8(%ebp),%edx
  100730:	0f b6 52 21          	movzbl 0x21(%edx),%edx
  100734:	88 10                	mov    %dl,(%eax)
  100736:	8b 45 1c             	mov    0x1c(%ebp),%eax
  100739:	83 e0 10             	and    $0x10,%eax
  10073c:	85 c0                	test   %eax,%eax
  10073e:	75 2c                	jne    10076c <number+0x1d2>
  100740:	eb 0f                	jmp    100751 <number+0x1b7>
  100742:	8b 45 08             	mov    0x8(%ebp),%eax
  100745:	8d 50 01             	lea    0x1(%eax),%edx
  100748:	89 55 08             	mov    %edx,0x8(%ebp)
  10074b:	0f b6 55 f3          	movzbl -0xd(%ebp),%edx
  10074f:	88 10                	mov    %dl,(%eax)
  100751:	8b 45 14             	mov    0x14(%ebp),%eax
  100754:	8d 50 ff             	lea    -0x1(%eax),%edx
  100757:	89 55 14             	mov    %edx,0x14(%ebp)
  10075a:	85 c0                	test   %eax,%eax
  10075c:	7f e4                	jg     100742 <number+0x1a8>
  10075e:	eb 0c                	jmp    10076c <number+0x1d2>
  100760:	8b 45 08             	mov    0x8(%ebp),%eax
  100763:	8d 50 01             	lea    0x1(%eax),%edx
  100766:	89 55 08             	mov    %edx,0x8(%ebp)
  100769:	c6 00 30             	movb   $0x30,(%eax)
  10076c:	8b 45 18             	mov    0x18(%ebp),%eax
  10076f:	8d 50 ff             	lea    -0x1(%eax),%edx
  100772:	89 55 18             	mov    %edx,0x18(%ebp)
  100775:	39 45 f4             	cmp    %eax,-0xc(%ebp)
  100778:	7c e6                	jl     100760 <number+0x1c6>
  10077a:	eb 16                	jmp    100792 <number+0x1f8>
  10077c:	8b 45 08             	mov    0x8(%ebp),%eax
  10077f:	8d 50 01             	lea    0x1(%eax),%edx
  100782:	89 55 08             	mov    %edx,0x8(%ebp)
  100785:	8d 4d c8             	lea    -0x38(%ebp),%ecx
  100788:	8b 55 f4             	mov    -0xc(%ebp),%edx
  10078b:	01 ca                	add    %ecx,%edx
  10078d:	0f b6 12             	movzbl (%edx),%edx
  100790:	88 10                	mov    %dl,(%eax)
  100792:	8b 45 f4             	mov    -0xc(%ebp),%eax
  100795:	8d 50 ff             	lea    -0x1(%eax),%edx
  100798:	89 55 f4             	mov    %edx,-0xc(%ebp)
  10079b:	85 c0                	test   %eax,%eax
  10079d:	7f dd                	jg     10077c <number+0x1e2>
  10079f:	eb 0c                	jmp    1007ad <number+0x213>
  1007a1:	8b 45 08             	mov    0x8(%ebp),%eax
  1007a4:	8d 50 01             	lea    0x1(%eax),%edx
  1007a7:	89 55 08             	mov    %edx,0x8(%ebp)
  1007aa:	c6 00 20             	movb   $0x20,(%eax)
  1007ad:	8b 45 14             	mov    0x14(%ebp),%eax
  1007b0:	8d 50 ff             	lea    -0x1(%eax),%edx
  1007b3:	89 55 14             	mov    %edx,0x14(%ebp)
  1007b6:	85 c0                	test   %eax,%eax
  1007b8:	7f e7                	jg     1007a1 <number+0x207>
  1007ba:	8b 45 08             	mov    0x8(%ebp),%eax
  1007bd:	c9                   	leave  
  1007be:	c3                   	ret    

001007bf <vsprintf>:
  1007bf:	55                   	push   %ebp
  1007c0:	89 e5                	mov    %esp,%ebp
  1007c2:	83 ec 20             	sub    $0x20,%esp
  1007c5:	8b 45 08             	mov    0x8(%ebp),%eax
  1007c8:	89 45 f4             	mov    %eax,-0xc(%ebp)
  1007cb:	e9 af 03 00 00       	jmp    100b7f <vsprintf+0x3c0>
  1007d0:	8b 45 0c             	mov    0xc(%ebp),%eax
  1007d3:	0f b6 00             	movzbl (%eax),%eax
  1007d6:	3c 25                	cmp    $0x25,%al
  1007d8:	74 16                	je     1007f0 <vsprintf+0x31>
  1007da:	8b 55 0c             	mov    0xc(%ebp),%edx
  1007dd:	8b 45 f4             	mov    -0xc(%ebp),%eax
  1007e0:	8d 48 01             	lea    0x1(%eax),%ecx
  1007e3:	89 4d f4             	mov    %ecx,-0xc(%ebp)
  1007e6:	0f b6 12             	movzbl (%edx),%edx
  1007e9:	88 10                	mov    %dl,(%eax)
  1007eb:	e9 86 03 00 00       	jmp    100b76 <vsprintf+0x3b7>
  1007f0:	c7 45 ec 00 00 00 00 	movl   $0x0,-0x14(%ebp)
  1007f7:	8b 45 0c             	mov    0xc(%ebp),%eax
  1007fa:	83 c0 01             	add    $0x1,%eax
  1007fd:	89 45 0c             	mov    %eax,0xc(%ebp)
  100800:	8b 45 0c             	mov    0xc(%ebp),%eax
  100803:	0f b6 00             	movzbl (%eax),%eax
  100806:	0f be c0             	movsbl %al,%eax
  100809:	83 e8 20             	sub    $0x20,%eax
  10080c:	83 f8 10             	cmp    $0x10,%eax
  10080f:	77 27                	ja     100838 <vsprintf+0x79>
  100811:	8b 04 85 24 21 10 00 	mov    0x102124(,%eax,4),%eax
  100818:	ff e0                	jmp    *%eax
  10081a:	83 4d ec 10          	orl    $0x10,-0x14(%ebp)
  10081e:	eb d7                	jmp    1007f7 <vsprintf+0x38>
  100820:	83 4d ec 04          	orl    $0x4,-0x14(%ebp)
  100824:	eb d1                	jmp    1007f7 <vsprintf+0x38>
  100826:	83 4d ec 08          	orl    $0x8,-0x14(%ebp)
  10082a:	eb cb                	jmp    1007f7 <vsprintf+0x38>
  10082c:	83 4d ec 20          	orl    $0x20,-0x14(%ebp)
  100830:	eb c5                	jmp    1007f7 <vsprintf+0x38>
  100832:	83 4d ec 01          	orl    $0x1,-0x14(%ebp)
  100836:	eb bf                	jmp    1007f7 <vsprintf+0x38>
  100838:	c7 45 e8 ff ff ff ff 	movl   $0xffffffff,-0x18(%ebp)
  10083f:	8b 45 0c             	mov    0xc(%ebp),%eax
  100842:	0f b6 00             	movzbl (%eax),%eax
  100845:	3c 2f                	cmp    $0x2f,%al
  100847:	7e 1b                	jle    100864 <vsprintf+0xa5>
  100849:	8b 45 0c             	mov    0xc(%ebp),%eax
  10084c:	0f b6 00             	movzbl (%eax),%eax
  10084f:	3c 39                	cmp    $0x39,%al
  100851:	7f 11                	jg     100864 <vsprintf+0xa5>
  100853:	8d 45 0c             	lea    0xc(%ebp),%eax
  100856:	50                   	push   %eax
  100857:	e8 e4 fc ff ff       	call   100540 <skip_atoi>
  10085c:	83 c4 04             	add    $0x4,%esp
  10085f:	89 45 e8             	mov    %eax,-0x18(%ebp)
  100862:	eb 25                	jmp    100889 <vsprintf+0xca>
  100864:	8b 45 0c             	mov    0xc(%ebp),%eax
  100867:	0f b6 00             	movzbl (%eax),%eax
  10086a:	3c 2a                	cmp    $0x2a,%al
  10086c:	75 1b                	jne    100889 <vsprintf+0xca>
  10086e:	8b 45 10             	mov    0x10(%ebp),%eax
  100871:	8d 50 04             	lea    0x4(%eax),%edx
  100874:	89 55 10             	mov    %edx,0x10(%ebp)
  100877:	8b 00                	mov    (%eax),%eax
  100879:	89 45 e8             	mov    %eax,-0x18(%ebp)
  10087c:	83 7d e8 00          	cmpl   $0x0,-0x18(%ebp)
  100880:	79 07                	jns    100889 <vsprintf+0xca>
  100882:	f7 5d e8             	negl   -0x18(%ebp)
  100885:	83 4d ec 10          	orl    $0x10,-0x14(%ebp)
  100889:	c7 45 e4 ff ff ff ff 	movl   $0xffffffff,-0x1c(%ebp)
  100890:	8b 45 0c             	mov    0xc(%ebp),%eax
  100893:	0f b6 00             	movzbl (%eax),%eax
  100896:	3c 2e                	cmp    $0x2e,%al
  100898:	75 53                	jne    1008ed <vsprintf+0x12e>
  10089a:	8b 45 0c             	mov    0xc(%ebp),%eax
  10089d:	83 c0 01             	add    $0x1,%eax
  1008a0:	89 45 0c             	mov    %eax,0xc(%ebp)
  1008a3:	8b 45 0c             	mov    0xc(%ebp),%eax
  1008a6:	0f b6 00             	movzbl (%eax),%eax
  1008a9:	3c 2f                	cmp    $0x2f,%al
  1008ab:	7e 1b                	jle    1008c8 <vsprintf+0x109>
  1008ad:	8b 45 0c             	mov    0xc(%ebp),%eax
  1008b0:	0f b6 00             	movzbl (%eax),%eax
  1008b3:	3c 39                	cmp    $0x39,%al
  1008b5:	7f 11                	jg     1008c8 <vsprintf+0x109>
  1008b7:	8d 45 0c             	lea    0xc(%ebp),%eax
  1008ba:	50                   	push   %eax
  1008bb:	e8 80 fc ff ff       	call   100540 <skip_atoi>
  1008c0:	83 c4 04             	add    $0x4,%esp
  1008c3:	89 45 e4             	mov    %eax,-0x1c(%ebp)
  1008c6:	eb 18                	jmp    1008e0 <vsprintf+0x121>
  1008c8:	8b 45 0c             	mov    0xc(%ebp),%eax
  1008cb:	0f b6 00             	movzbl (%eax),%eax
  1008ce:	3c 2a                	cmp    $0x2a,%al
  1008d0:	75 0e                	jne    1008e0 <vsprintf+0x121>
  1008d2:	8b 45 10             	mov    0x10(%ebp),%eax
  1008d5:	8d 50 04             	lea    0x4(%eax),%edx
  1008d8:	89 55 10             	mov    %edx,0x10(%ebp)
  1008db:	8b 00                	mov    (%eax),%eax
  1008dd:	89 45 e4             	mov    %eax,-0x1c(%ebp)
  1008e0:	83 7d e4 00          	cmpl   $0x0,-0x1c(%ebp)
  1008e4:	79 07                	jns    1008ed <vsprintf+0x12e>
  1008e6:	c7 45 e4 00 00 00 00 	movl   $0x0,-0x1c(%ebp)
  1008ed:	8b 45 0c             	mov    0xc(%ebp),%eax
  1008f0:	0f b6 00             	movzbl (%eax),%eax
  1008f3:	3c 68                	cmp    $0x68,%al
  1008f5:	74 14                	je     10090b <vsprintf+0x14c>
  1008f7:	8b 45 0c             	mov    0xc(%ebp),%eax
  1008fa:	0f b6 00             	movzbl (%eax),%eax
  1008fd:	3c 6c                	cmp    $0x6c,%al
  1008ff:	74 0a                	je     10090b <vsprintf+0x14c>
  100901:	8b 45 0c             	mov    0xc(%ebp),%eax
  100904:	0f b6 00             	movzbl (%eax),%eax
  100907:	3c 4c                	cmp    $0x4c,%al
  100909:	75 09                	jne    100914 <vsprintf+0x155>
  10090b:	8b 45 0c             	mov    0xc(%ebp),%eax
  10090e:	83 c0 01             	add    $0x1,%eax
  100911:	89 45 0c             	mov    %eax,0xc(%ebp)
  100914:	8b 45 0c             	mov    0xc(%ebp),%eax
  100917:	0f b6 00             	movzbl (%eax),%eax
  10091a:	0f be c0             	movsbl %al,%eax
  10091d:	83 e8 58             	sub    $0x58,%eax
  100920:	83 f8 20             	cmp    $0x20,%eax
  100923:	0f 87 10 02 00 00    	ja     100b39 <vsprintf+0x37a>
  100929:	8b 04 85 68 21 10 00 	mov    0x102168(,%eax,4),%eax
  100930:	ff e0                	jmp    *%eax
  100932:	8b 45 ec             	mov    -0x14(%ebp),%eax
  100935:	83 e0 10             	and    $0x10,%eax
  100938:	85 c0                	test   %eax,%eax
  10093a:	75 18                	jne    100954 <vsprintf+0x195>
  10093c:	eb 0c                	jmp    10094a <vsprintf+0x18b>
  10093e:	8b 45 f4             	mov    -0xc(%ebp),%eax
  100941:	8d 50 01             	lea    0x1(%eax),%edx
  100944:	89 55 f4             	mov    %edx,-0xc(%ebp)
  100947:	c6 00 20             	movb   $0x20,(%eax)
  10094a:	83 6d e8 01          	subl   $0x1,-0x18(%ebp)
  10094e:	83 7d e8 00          	cmpl   $0x0,-0x18(%ebp)
  100952:	7f ea                	jg     10093e <vsprintf+0x17f>
  100954:	8b 45 10             	mov    0x10(%ebp),%eax
  100957:	8d 50 04             	lea    0x4(%eax),%edx
  10095a:	89 55 10             	mov    %edx,0x10(%ebp)
  10095d:	8b 08                	mov    (%eax),%ecx
  10095f:	8b 45 f4             	mov    -0xc(%ebp),%eax
  100962:	8d 50 01             	lea    0x1(%eax),%edx
  100965:	89 55 f4             	mov    %edx,-0xc(%ebp)
  100968:	89 ca                	mov    %ecx,%edx
  10096a:	88 10                	mov    %dl,(%eax)
  10096c:	eb 0c                	jmp    10097a <vsprintf+0x1bb>
  10096e:	8b 45 f4             	mov    -0xc(%ebp),%eax
  100971:	8d 50 01             	lea    0x1(%eax),%edx
  100974:	89 55 f4             	mov    %edx,-0xc(%ebp)
  100977:	c6 00 20             	movb   $0x20,(%eax)
  10097a:	83 6d e8 01          	subl   $0x1,-0x18(%ebp)
  10097e:	83 7d e8 00          	cmpl   $0x0,-0x18(%ebp)
  100982:	7f ea                	jg     10096e <vsprintf+0x1af>
  100984:	e9 ed 01 00 00       	jmp    100b76 <vsprintf+0x3b7>
  100989:	8b 45 10             	mov    0x10(%ebp),%eax
  10098c:	8d 50 04             	lea    0x4(%eax),%edx
  10098f:	89 55 10             	mov    %edx,0x10(%ebp)
  100992:	8b 00                	mov    (%eax),%eax
  100994:	89 45 f0             	mov    %eax,-0x10(%ebp)
  100997:	ff 75 f0             	pushl  -0x10(%ebp)
  10099a:	e8 e7 fa ff ff       	call   100486 <strlen>
  10099f:	83 c4 04             	add    $0x4,%esp
  1009a2:	89 45 fc             	mov    %eax,-0x4(%ebp)
  1009a5:	83 7d e4 00          	cmpl   $0x0,-0x1c(%ebp)
  1009a9:	79 08                	jns    1009b3 <vsprintf+0x1f4>
  1009ab:	8b 45 fc             	mov    -0x4(%ebp),%eax
  1009ae:	89 45 e4             	mov    %eax,-0x1c(%ebp)
  1009b1:	eb 0e                	jmp    1009c1 <vsprintf+0x202>
  1009b3:	8b 45 fc             	mov    -0x4(%ebp),%eax
  1009b6:	3b 45 e4             	cmp    -0x1c(%ebp),%eax
  1009b9:	7e 06                	jle    1009c1 <vsprintf+0x202>
  1009bb:	8b 45 e4             	mov    -0x1c(%ebp),%eax
  1009be:	89 45 fc             	mov    %eax,-0x4(%ebp)
  1009c1:	8b 45 ec             	mov    -0x14(%ebp),%eax
  1009c4:	83 e0 10             	and    $0x10,%eax
  1009c7:	85 c0                	test   %eax,%eax
  1009c9:	75 1c                	jne    1009e7 <vsprintf+0x228>
  1009cb:	eb 0c                	jmp    1009d9 <vsprintf+0x21a>
  1009cd:	8b 45 f4             	mov    -0xc(%ebp),%eax
  1009d0:	8d 50 01             	lea    0x1(%eax),%edx
  1009d3:	89 55 f4             	mov    %edx,-0xc(%ebp)
  1009d6:	c6 00 20             	movb   $0x20,(%eax)
  1009d9:	8b 45 e8             	mov    -0x18(%ebp),%eax
  1009dc:	8d 50 ff             	lea    -0x1(%eax),%edx
  1009df:	89 55 e8             	mov    %edx,-0x18(%ebp)
  1009e2:	39 45 fc             	cmp    %eax,-0x4(%ebp)
  1009e5:	7c e6                	jl     1009cd <vsprintf+0x20e>
  1009e7:	c7 45 f8 00 00 00 00 	movl   $0x0,-0x8(%ebp)
  1009ee:	eb 1b                	jmp    100a0b <vsprintf+0x24c>
  1009f0:	8b 55 f0             	mov    -0x10(%ebp),%edx
  1009f3:	8d 42 01             	lea    0x1(%edx),%eax
  1009f6:	89 45 f0             	mov    %eax,-0x10(%ebp)
  1009f9:	8b 45 f4             	mov    -0xc(%ebp),%eax
  1009fc:	8d 48 01             	lea    0x1(%eax),%ecx
  1009ff:	89 4d f4             	mov    %ecx,-0xc(%ebp)
  100a02:	0f b6 12             	movzbl (%edx),%edx
  100a05:	88 10                	mov    %dl,(%eax)
  100a07:	83 45 f8 01          	addl   $0x1,-0x8(%ebp)
  100a0b:	8b 45 f8             	mov    -0x8(%ebp),%eax
  100a0e:	3b 45 fc             	cmp    -0x4(%ebp),%eax
  100a11:	7c dd                	jl     1009f0 <vsprintf+0x231>
  100a13:	eb 0c                	jmp    100a21 <vsprintf+0x262>
  100a15:	8b 45 f4             	mov    -0xc(%ebp),%eax
  100a18:	8d 50 01             	lea    0x1(%eax),%edx
  100a1b:	89 55 f4             	mov    %edx,-0xc(%ebp)
  100a1e:	c6 00 20             	movb   $0x20,(%eax)
  100a21:	8b 45 e8             	mov    -0x18(%ebp),%eax
  100a24:	8d 50 ff             	lea    -0x1(%eax),%edx
  100a27:	89 55 e8             	mov    %edx,-0x18(%ebp)
  100a2a:	39 45 fc             	cmp    %eax,-0x4(%ebp)
  100a2d:	7c e6                	jl     100a15 <vsprintf+0x256>
  100a2f:	e9 42 01 00 00       	jmp    100b76 <vsprintf+0x3b7>
  100a34:	8b 45 10             	mov    0x10(%ebp),%eax
  100a37:	8d 50 04             	lea    0x4(%eax),%edx
  100a3a:	89 55 10             	mov    %edx,0x10(%ebp)
  100a3d:	8b 00                	mov    (%eax),%eax
  100a3f:	ff 75 ec             	pushl  -0x14(%ebp)
  100a42:	ff 75 e4             	pushl  -0x1c(%ebp)
  100a45:	ff 75 e8             	pushl  -0x18(%ebp)
  100a48:	6a 08                	push   $0x8
  100a4a:	50                   	push   %eax
  100a4b:	ff 75 f4             	pushl  -0xc(%ebp)
  100a4e:	e8 47 fb ff ff       	call   10059a <number>
  100a53:	83 c4 18             	add    $0x18,%esp
  100a56:	89 45 f4             	mov    %eax,-0xc(%ebp)
  100a59:	e9 18 01 00 00       	jmp    100b76 <vsprintf+0x3b7>
  100a5e:	83 7d e8 ff          	cmpl   $0xffffffff,-0x18(%ebp)
  100a62:	75 0b                	jne    100a6f <vsprintf+0x2b0>
  100a64:	c7 45 e8 08 00 00 00 	movl   $0x8,-0x18(%ebp)
  100a6b:	83 4d ec 01          	orl    $0x1,-0x14(%ebp)
  100a6f:	8b 45 10             	mov    0x10(%ebp),%eax
  100a72:	8d 50 04             	lea    0x4(%eax),%edx
  100a75:	89 55 10             	mov    %edx,0x10(%ebp)
  100a78:	8b 00                	mov    (%eax),%eax
  100a7a:	ff 75 ec             	pushl  -0x14(%ebp)
  100a7d:	ff 75 e4             	pushl  -0x1c(%ebp)
  100a80:	ff 75 e8             	pushl  -0x18(%ebp)
  100a83:	6a 10                	push   $0x10
  100a85:	50                   	push   %eax
  100a86:	ff 75 f4             	pushl  -0xc(%ebp)
  100a89:	e8 0c fb ff ff       	call   10059a <number>
  100a8e:	83 c4 18             	add    $0x18,%esp
  100a91:	89 45 f4             	mov    %eax,-0xc(%ebp)
  100a94:	e9 dd 00 00 00       	jmp    100b76 <vsprintf+0x3b7>
  100a99:	83 4d ec 40          	orl    $0x40,-0x14(%ebp)
  100a9d:	8b 45 10             	mov    0x10(%ebp),%eax
  100aa0:	8d 50 04             	lea    0x4(%eax),%edx
  100aa3:	89 55 10             	mov    %edx,0x10(%ebp)
  100aa6:	8b 00                	mov    (%eax),%eax
  100aa8:	ff 75 ec             	pushl  -0x14(%ebp)
  100aab:	ff 75 e4             	pushl  -0x1c(%ebp)
  100aae:	ff 75 e8             	pushl  -0x18(%ebp)
  100ab1:	6a 10                	push   $0x10
  100ab3:	50                   	push   %eax
  100ab4:	ff 75 f4             	pushl  -0xc(%ebp)
  100ab7:	e8 de fa ff ff       	call   10059a <number>
  100abc:	83 c4 18             	add    $0x18,%esp
  100abf:	89 45 f4             	mov    %eax,-0xc(%ebp)
  100ac2:	e9 af 00 00 00       	jmp    100b76 <vsprintf+0x3b7>
  100ac7:	83 4d ec 02          	orl    $0x2,-0x14(%ebp)
  100acb:	8b 45 10             	mov    0x10(%ebp),%eax
  100ace:	8d 50 04             	lea    0x4(%eax),%edx
  100ad1:	89 55 10             	mov    %edx,0x10(%ebp)
  100ad4:	8b 00                	mov    (%eax),%eax
  100ad6:	ff 75 ec             	pushl  -0x14(%ebp)
  100ad9:	ff 75 e4             	pushl  -0x1c(%ebp)
  100adc:	ff 75 e8             	pushl  -0x18(%ebp)
  100adf:	6a 0a                	push   $0xa
  100ae1:	50                   	push   %eax
  100ae2:	ff 75 f4             	pushl  -0xc(%ebp)
  100ae5:	e8 b0 fa ff ff       	call   10059a <number>
  100aea:	83 c4 18             	add    $0x18,%esp
  100aed:	89 45 f4             	mov    %eax,-0xc(%ebp)
  100af0:	e9 81 00 00 00       	jmp    100b76 <vsprintf+0x3b7>
  100af5:	8b 45 10             	mov    0x10(%ebp),%eax
  100af8:	8d 50 04             	lea    0x4(%eax),%edx
  100afb:	89 55 10             	mov    %edx,0x10(%ebp)
  100afe:	8b 00                	mov    (%eax),%eax
  100b00:	ff 75 ec             	pushl  -0x14(%ebp)
  100b03:	ff 75 e4             	pushl  -0x1c(%ebp)
  100b06:	ff 75 e8             	pushl  -0x18(%ebp)
  100b09:	6a 02                	push   $0x2
  100b0b:	50                   	push   %eax
  100b0c:	ff 75 f4             	pushl  -0xc(%ebp)
  100b0f:	e8 86 fa ff ff       	call   10059a <number>
  100b14:	83 c4 18             	add    $0x18,%esp
  100b17:	89 45 f4             	mov    %eax,-0xc(%ebp)
  100b1a:	eb 5a                	jmp    100b76 <vsprintf+0x3b7>
  100b1c:	8b 45 10             	mov    0x10(%ebp),%eax
  100b1f:	8d 50 04             	lea    0x4(%eax),%edx
  100b22:	89 55 10             	mov    %edx,0x10(%ebp)
  100b25:	8b 00                	mov    (%eax),%eax
  100b27:	89 45 e0             	mov    %eax,-0x20(%ebp)
  100b2a:	8b 55 f4             	mov    -0xc(%ebp),%edx
  100b2d:	8b 45 08             	mov    0x8(%ebp),%eax
  100b30:	29 c2                	sub    %eax,%edx
  100b32:	8b 45 e0             	mov    -0x20(%ebp),%eax
  100b35:	89 10                	mov    %edx,(%eax)
  100b37:	eb 3d                	jmp    100b76 <vsprintf+0x3b7>
  100b39:	8b 45 0c             	mov    0xc(%ebp),%eax
  100b3c:	0f b6 00             	movzbl (%eax),%eax
  100b3f:	3c 25                	cmp    $0x25,%al
  100b41:	74 0c                	je     100b4f <vsprintf+0x390>
  100b43:	8b 45 f4             	mov    -0xc(%ebp),%eax
  100b46:	8d 50 01             	lea    0x1(%eax),%edx
  100b49:	89 55 f4             	mov    %edx,-0xc(%ebp)
  100b4c:	c6 00 25             	movb   $0x25,(%eax)
  100b4f:	8b 45 0c             	mov    0xc(%ebp),%eax
  100b52:	0f b6 00             	movzbl (%eax),%eax
  100b55:	84 c0                	test   %al,%al
  100b57:	74 13                	je     100b6c <vsprintf+0x3ad>
  100b59:	8b 55 0c             	mov    0xc(%ebp),%edx
  100b5c:	8b 45 f4             	mov    -0xc(%ebp),%eax
  100b5f:	8d 48 01             	lea    0x1(%eax),%ecx
  100b62:	89 4d f4             	mov    %ecx,-0xc(%ebp)
  100b65:	0f b6 12             	movzbl (%edx),%edx
  100b68:	88 10                	mov    %dl,(%eax)
  100b6a:	eb 09                	jmp    100b75 <vsprintf+0x3b6>
  100b6c:	8b 45 0c             	mov    0xc(%ebp),%eax
  100b6f:	83 e8 01             	sub    $0x1,%eax
  100b72:	89 45 0c             	mov    %eax,0xc(%ebp)
  100b75:	90                   	nop
  100b76:	8b 45 0c             	mov    0xc(%ebp),%eax
  100b79:	83 c0 01             	add    $0x1,%eax
  100b7c:	89 45 0c             	mov    %eax,0xc(%ebp)
  100b7f:	8b 45 0c             	mov    0xc(%ebp),%eax
  100b82:	0f b6 00             	movzbl (%eax),%eax
  100b85:	84 c0                	test   %al,%al
  100b87:	0f 85 43 fc ff ff    	jne    1007d0 <vsprintf+0x11>
  100b8d:	8b 45 f4             	mov    -0xc(%ebp),%eax
  100b90:	c6 00 00             	movb   $0x0,(%eax)
  100b93:	8b 55 f4             	mov    -0xc(%ebp),%edx
  100b96:	8b 45 08             	mov    0x8(%ebp),%eax
  100b99:	29 c2                	sub    %eax,%edx
  100b9b:	89 d0                	mov    %edx,%eax
  100b9d:	c9                   	leave  
  100b9e:	c3                   	ret    

00100b9f <add>:
  100b9f:	55                   	push   %ebp
  100ba0:	89 e5                	mov    %esp,%ebp
  100ba2:	83 ec 10             	sub    $0x10,%esp
  100ba5:	c7 45 fc 05 00 00 00 	movl   $0x5,-0x4(%ebp)
  100bac:	8b 55 08             	mov    0x8(%ebp),%edx
  100baf:	8b 45 0c             	mov    0xc(%ebp),%eax
  100bb2:	01 c2                	add    %eax,%edx
  100bb4:	8b 45 fc             	mov    -0x4(%ebp),%eax
  100bb7:	01 d0                	add    %edx,%eax
  100bb9:	c9                   	leave  
  100bba:	c3                   	ret    

00100bbb <kern_entry>:
  100bbb:	55                   	push   %ebp
  100bbc:	89 e5                	mov    %esp,%ebp
  100bbe:	83 ec 18             	sub    $0x18,%esp
  100bc1:	e8 66 01 00 00       	call   100d2c <console_clear>
  100bc6:	c7 45 f4 03 00 00 00 	movl   $0x3,-0xc(%ebp)
  100bcd:	c7 45 f0 06 00 00 00 	movl   $0x6,-0x10(%ebp)
  100bd4:	83 ec 08             	sub    $0x8,%esp
  100bd7:	ff 75 f0             	pushl  -0x10(%ebp)
  100bda:	ff 75 f4             	pushl  -0xc(%ebp)
  100bdd:	e8 bd ff ff ff       	call   100b9f <add>
  100be2:	83 c4 10             	add    $0x10,%esp
  100be5:	89 45 ec             	mov    %eax,-0x14(%ebp)
  100be8:	ff 75 ec             	pushl  -0x14(%ebp)
  100beb:	68 ec 21 10 00       	push   $0x1021ec
  100bf0:	6a 02                	push   $0x2
  100bf2:	6a 00                	push   $0x0
  100bf4:	e8 fd f8 ff ff       	call   1004f6 <printk_color>
  100bf9:	83 c4 10             	add    $0x10,%esp
  100bfc:	83 ec 04             	sub    $0x4,%esp
  100bff:	68 f4 21 10 00       	push   $0x1021f4
  100c04:	6a 02                	push   $0x2
  100c06:	6a 00                	push   $0x0
  100c08:	e8 e9 f8 ff ff       	call   1004f6 <printk_color>
  100c0d:	83 c4 10             	add    $0x10,%esp
  100c10:	b8 00 00 00 00       	mov    $0x0,%eax
  100c15:	c9                   	leave  
  100c16:	c3                   	ret    

00100c17 <move_cursor>:
  100c17:	55                   	push   %ebp
  100c18:	89 e5                	mov    %esp,%ebp
  100c1a:	83 ec 18             	sub    $0x18,%esp
  100c1d:	0f b6 05 21 b8 10 00 	movzbl 0x10b821,%eax
  100c24:	0f b6 d0             	movzbl %al,%edx
  100c27:	89 d0                	mov    %edx,%eax
  100c29:	c1 e0 02             	shl    $0x2,%eax
  100c2c:	01 d0                	add    %edx,%eax
  100c2e:	c1 e0 04             	shl    $0x4,%eax
  100c31:	89 c2                	mov    %eax,%edx
  100c33:	0f b6 05 20 b8 10 00 	movzbl 0x10b820,%eax
  100c3a:	0f b6 c0             	movzbl %al,%eax
  100c3d:	01 d0                	add    %edx,%eax
  100c3f:	66 89 45 f6          	mov    %ax,-0xa(%ebp)
  100c43:	83 ec 08             	sub    $0x8,%esp
  100c46:	6a 0e                	push   $0xe
  100c48:	68 d4 03 00 00       	push   $0x3d4
  100c4d:	e8 d6 f3 ff ff       	call   100028 <outb>
  100c52:	83 c4 10             	add    $0x10,%esp
  100c55:	0f b7 45 f6          	movzwl -0xa(%ebp),%eax
  100c59:	66 c1 e8 08          	shr    $0x8,%ax
  100c5d:	0f b6 c0             	movzbl %al,%eax
  100c60:	83 ec 08             	sub    $0x8,%esp
  100c63:	50                   	push   %eax
  100c64:	68 d5 03 00 00       	push   $0x3d5
  100c69:	e8 ba f3 ff ff       	call   100028 <outb>
  100c6e:	83 c4 10             	add    $0x10,%esp
  100c71:	83 ec 08             	sub    $0x8,%esp
  100c74:	6a 0f                	push   $0xf
  100c76:	68 d4 03 00 00       	push   $0x3d4
  100c7b:	e8 a8 f3 ff ff       	call   100028 <outb>
  100c80:	83 c4 10             	add    $0x10,%esp
  100c83:	0f b7 45 f6          	movzwl -0xa(%ebp),%eax
  100c87:	0f b6 c0             	movzbl %al,%eax
  100c8a:	83 ec 08             	sub    $0x8,%esp
  100c8d:	50                   	push   %eax
  100c8e:	68 d5 03 00 00       	push   $0x3d5
  100c93:	e8 90 f3 ff ff       	call   100028 <outb>
  100c98:	83 c4 10             	add    $0x10,%esp
  100c9b:	90                   	nop
  100c9c:	c9                   	leave  
  100c9d:	c3                   	ret    

00100c9e <scroll>:
  100c9e:	55                   	push   %ebp
  100c9f:	89 e5                	mov    %esp,%ebp
  100ca1:	83 ec 10             	sub    $0x10,%esp
  100ca4:	c6 45 fb 0f          	movb   $0xf,-0x5(%ebp)
  100ca8:	0f b6 45 fb          	movzbl -0x5(%ebp),%eax
  100cac:	c1 e0 08             	shl    $0x8,%eax
  100caf:	83 c8 20             	or     $0x20,%eax
  100cb2:	66 89 45 f8          	mov    %ax,-0x8(%ebp)
  100cb6:	0f b6 05 21 b8 10 00 	movzbl 0x10b821,%eax
  100cbd:	3c 18                	cmp    $0x18,%al
  100cbf:	76 68                	jbe    100d29 <scroll+0x8b>
  100cc1:	c7 45 fc 00 00 00 00 	movl   $0x0,-0x4(%ebp)
  100cc8:	eb 26                	jmp    100cf0 <scroll+0x52>
  100cca:	a1 00 20 10 00       	mov    0x102000,%eax
  100ccf:	8b 55 fc             	mov    -0x4(%ebp),%edx
  100cd2:	83 c2 50             	add    $0x50,%edx
  100cd5:	01 d2                	add    %edx,%edx
  100cd7:	01 d0                	add    %edx,%eax
  100cd9:	8b 15 00 20 10 00    	mov    0x102000,%edx
  100cdf:	8b 4d fc             	mov    -0x4(%ebp),%ecx
  100ce2:	01 c9                	add    %ecx,%ecx
  100ce4:	01 ca                	add    %ecx,%edx
  100ce6:	0f b7 00             	movzwl (%eax),%eax
  100ce9:	66 89 02             	mov    %ax,(%edx)
  100cec:	83 45 fc 01          	addl   $0x1,-0x4(%ebp)
  100cf0:	81 7d fc 7f 07 00 00 	cmpl   $0x77f,-0x4(%ebp)
  100cf7:	7e d1                	jle    100cca <scroll+0x2c>
  100cf9:	c7 45 fc 80 07 00 00 	movl   $0x780,-0x4(%ebp)
  100d00:	eb 17                	jmp    100d19 <scroll+0x7b>
  100d02:	a1 00 20 10 00       	mov    0x102000,%eax
  100d07:	8b 55 fc             	mov    -0x4(%ebp),%edx
  100d0a:	01 d2                	add    %edx,%edx
  100d0c:	01 c2                	add    %eax,%edx
  100d0e:	0f b7 45 f8          	movzwl -0x8(%ebp),%eax
  100d12:	66 89 02             	mov    %ax,(%edx)
  100d15:	83 45 fc 01          	addl   $0x1,-0x4(%ebp)
  100d19:	81 7d fc cf 07 00 00 	cmpl   $0x7cf,-0x4(%ebp)
  100d20:	7e e0                	jle    100d02 <scroll+0x64>
  100d22:	c6 05 21 b8 10 00 18 	movb   $0x18,0x10b821
  100d29:	90                   	nop
  100d2a:	c9                   	leave  
  100d2b:	c3                   	ret    

00100d2c <console_clear>:
  100d2c:	55                   	push   %ebp
  100d2d:	89 e5                	mov    %esp,%ebp
  100d2f:	83 ec 18             	sub    $0x18,%esp
  100d32:	c6 45 f3 0f          	movb   $0xf,-0xd(%ebp)
  100d36:	0f b6 45 f3          	movzbl -0xd(%ebp),%eax
  100d3a:	c1 e0 08             	shl    $0x8,%eax
  100d3d:	83 c8 20             	or     $0x20,%eax
  100d40:	66 89 45 f0          	mov    %ax,-0x10(%ebp)
  100d44:	c7 45 f4 00 00 00 00 	movl   $0x0,-0xc(%ebp)
  100d4b:	eb 17                	jmp    100d64 <console_clear+0x38>
  100d4d:	a1 00 20 10 00       	mov    0x102000,%eax
  100d52:	8b 55 f4             	mov    -0xc(%ebp),%edx
  100d55:	01 d2                	add    %edx,%edx
  100d57:	01 c2                	add    %eax,%edx
  100d59:	0f b7 45 f0          	movzwl -0x10(%ebp),%eax
  100d5d:	66 89 02             	mov    %ax,(%edx)
  100d60:	83 45 f4 01          	addl   $0x1,-0xc(%ebp)
  100d64:	81 7d f4 cf 07 00 00 	cmpl   $0x7cf,-0xc(%ebp)
  100d6b:	7e e0                	jle    100d4d <console_clear+0x21>
  100d6d:	c6 05 20 b8 10 00 00 	movb   $0x0,0x10b820
  100d74:	c6 05 21 b8 10 00 00 	movb   $0x0,0x10b821
  100d7b:	e8 97 fe ff ff       	call   100c17 <move_cursor>
  100d80:	90                   	nop
  100d81:	c9                   	leave  
  100d82:	c3                   	ret    

00100d83 <console_putc_color>:
  100d83:	55                   	push   %ebp
  100d84:	89 e5                	mov    %esp,%ebp
  100d86:	53                   	push   %ebx
  100d87:	83 ec 24             	sub    $0x24,%esp
  100d8a:	8b 45 08             	mov    0x8(%ebp),%eax
  100d8d:	88 45 e4             	mov    %al,-0x1c(%ebp)
  100d90:	8b 45 0c             	mov    0xc(%ebp),%eax
  100d93:	88 45 f7             	mov    %al,-0x9(%ebp)
  100d96:	8b 45 10             	mov    0x10(%ebp),%eax
  100d99:	88 45 f6             	mov    %al,-0xa(%ebp)
  100d9c:	0f b6 45 f7          	movzbl -0x9(%ebp),%eax
  100da0:	c1 e0 04             	shl    $0x4,%eax
  100da3:	89 c2                	mov    %eax,%edx
  100da5:	0f b6 45 f6          	movzbl -0xa(%ebp),%eax
  100da9:	83 e0 0f             	and    $0xf,%eax
  100dac:	09 d0                	or     %edx,%eax
  100dae:	88 45 f5             	mov    %al,-0xb(%ebp)
  100db1:	0f b6 45 f5          	movzbl -0xb(%ebp),%eax
  100db5:	c1 e0 08             	shl    $0x8,%eax
  100db8:	66 89 45 f2          	mov    %ax,-0xe(%ebp)
  100dbc:	80 7d e4 08          	cmpb   $0x8,-0x1c(%ebp)
  100dc0:	75 1f                	jne    100de1 <console_putc_color+0x5e>
  100dc2:	0f b6 05 20 b8 10 00 	movzbl 0x10b820,%eax
  100dc9:	84 c0                	test   %al,%al
  100dcb:	74 14                	je     100de1 <console_putc_color+0x5e>
  100dcd:	0f b6 05 20 b8 10 00 	movzbl 0x10b820,%eax
  100dd4:	83 e8 01             	sub    $0x1,%eax
  100dd7:	a2 20 b8 10 00       	mov    %al,0x10b820
  100ddc:	e9 9d 00 00 00       	jmp    100e7e <console_putc_color+0xfb>
  100de1:	80 7d e4 09          	cmpb   $0x9,-0x1c(%ebp)
  100de5:	75 17                	jne    100dfe <console_putc_color+0x7b>
  100de7:	0f b6 05 20 b8 10 00 	movzbl 0x10b820,%eax
  100dee:	83 c0 08             	add    $0x8,%eax
  100df1:	83 e0 f8             	and    $0xfffffff8,%eax
  100df4:	a2 20 b8 10 00       	mov    %al,0x10b820
  100df9:	e9 80 00 00 00       	jmp    100e7e <console_putc_color+0xfb>
  100dfe:	80 7d e4 0d          	cmpb   $0xd,-0x1c(%ebp)
  100e02:	75 09                	jne    100e0d <console_putc_color+0x8a>
  100e04:	c6 05 20 b8 10 00 00 	movb   $0x0,0x10b820
  100e0b:	eb 71                	jmp    100e7e <console_putc_color+0xfb>
  100e0d:	80 7d e4 0a          	cmpb   $0xa,-0x1c(%ebp)
  100e11:	75 18                	jne    100e2b <console_putc_color+0xa8>
  100e13:	c6 05 20 b8 10 00 00 	movb   $0x0,0x10b820
  100e1a:	0f b6 05 21 b8 10 00 	movzbl 0x10b821,%eax
  100e21:	83 c0 01             	add    $0x1,%eax
  100e24:	a2 21 b8 10 00       	mov    %al,0x10b821
  100e29:	eb 53                	jmp    100e7e <console_putc_color+0xfb>
  100e2b:	80 7d e4 1f          	cmpb   $0x1f,-0x1c(%ebp)
  100e2f:	7e 4d                	jle    100e7e <console_putc_color+0xfb>
  100e31:	66 0f be 55 e4       	movsbw -0x1c(%ebp),%dx
  100e36:	0f b7 45 f2          	movzwl -0xe(%ebp),%eax
  100e3a:	89 d3                	mov    %edx,%ebx
  100e3c:	09 c3                	or     %eax,%ebx
  100e3e:	8b 0d 00 20 10 00    	mov    0x102000,%ecx
  100e44:	0f b6 05 21 b8 10 00 	movzbl 0x10b821,%eax
  100e4b:	0f b6 d0             	movzbl %al,%edx
  100e4e:	89 d0                	mov    %edx,%eax
  100e50:	c1 e0 02             	shl    $0x2,%eax
  100e53:	01 d0                	add    %edx,%eax
  100e55:	c1 e0 04             	shl    $0x4,%eax
  100e58:	89 c2                	mov    %eax,%edx
  100e5a:	0f b6 05 20 b8 10 00 	movzbl 0x10b820,%eax
  100e61:	0f b6 c0             	movzbl %al,%eax
  100e64:	01 d0                	add    %edx,%eax
  100e66:	01 c0                	add    %eax,%eax
  100e68:	01 c8                	add    %ecx,%eax
  100e6a:	89 da                	mov    %ebx,%edx
  100e6c:	66 89 10             	mov    %dx,(%eax)
  100e6f:	0f b6 05 20 b8 10 00 	movzbl 0x10b820,%eax
  100e76:	83 c0 01             	add    $0x1,%eax
  100e79:	a2 20 b8 10 00       	mov    %al,0x10b820
  100e7e:	0f b6 05 20 b8 10 00 	movzbl 0x10b820,%eax
  100e85:	3c 4f                	cmp    $0x4f,%al
  100e87:	76 16                	jbe    100e9f <console_putc_color+0x11c>
  100e89:	c6 05 20 b8 10 00 00 	movb   $0x0,0x10b820
  100e90:	0f b6 05 21 b8 10 00 	movzbl 0x10b821,%eax
  100e97:	83 c0 01             	add    $0x1,%eax
  100e9a:	a2 21 b8 10 00       	mov    %al,0x10b821
  100e9f:	e8 fa fd ff ff       	call   100c9e <scroll>
  100ea4:	e8 6e fd ff ff       	call   100c17 <move_cursor>
  100ea9:	90                   	nop
  100eaa:	83 c4 24             	add    $0x24,%esp
  100ead:	5b                   	pop    %ebx
  100eae:	5d                   	pop    %ebp
  100eaf:	c3                   	ret    

00100eb0 <console_write>:
  100eb0:	55                   	push   %ebp
  100eb1:	89 e5                	mov    %esp,%ebp
  100eb3:	83 ec 08             	sub    $0x8,%esp
  100eb6:	eb 1f                	jmp    100ed7 <console_write+0x27>
  100eb8:	8b 45 08             	mov    0x8(%ebp),%eax
  100ebb:	8d 50 01             	lea    0x1(%eax),%edx
  100ebe:	89 55 08             	mov    %edx,0x8(%ebp)
  100ec1:	0f b6 00             	movzbl (%eax),%eax
  100ec4:	0f be c0             	movsbl %al,%eax
  100ec7:	83 ec 04             	sub    $0x4,%esp
  100eca:	6a 0f                	push   $0xf
  100ecc:	6a 00                	push   $0x0
  100ece:	50                   	push   %eax
  100ecf:	e8 af fe ff ff       	call   100d83 <console_putc_color>
  100ed4:	83 c4 10             	add    $0x10,%esp
  100ed7:	8b 45 08             	mov    0x8(%ebp),%eax
  100eda:	0f b6 00             	movzbl (%eax),%eax
  100edd:	84 c0                	test   %al,%al
  100edf:	75 d7                	jne    100eb8 <console_write+0x8>
  100ee1:	90                   	nop
  100ee2:	c9                   	leave  
  100ee3:	c3                   	ret    

00100ee4 <console_write_color>:
  100ee4:	55                   	push   %ebp
  100ee5:	89 e5                	mov    %esp,%ebp
  100ee7:	83 ec 08             	sub    $0x8,%esp
  100eea:	eb 21                	jmp    100f0d <console_write_color+0x29>
  100eec:	8b 45 08             	mov    0x8(%ebp),%eax
  100eef:	8d 50 01             	lea    0x1(%eax),%edx
  100ef2:	89 55 08             	mov    %edx,0x8(%ebp)
  100ef5:	0f b6 00             	movzbl (%eax),%eax
  100ef8:	0f be c0             	movsbl %al,%eax
  100efb:	83 ec 04             	sub    $0x4,%esp
  100efe:	ff 75 10             	pushl  0x10(%ebp)
  100f01:	ff 75 0c             	pushl  0xc(%ebp)
  100f04:	50                   	push   %eax
  100f05:	e8 79 fe ff ff       	call   100d83 <console_putc_color>
  100f0a:	83 c4 10             	add    $0x10,%esp
  100f0d:	8b 45 08             	mov    0x8(%ebp),%eax
  100f10:	0f b6 00             	movzbl (%eax),%eax
  100f13:	84 c0                	test   %al,%al
  100f15:	75 d5                	jne    100eec <console_write_color+0x8>
  100f17:	90                   	nop
  100f18:	c9                   	leave  
  100f19:	c3                   	ret    

00100f1a <console_write_hex>:
  100f1a:	55                   	push   %ebp
  100f1b:	89 e5                	mov    %esp,%ebp
  100f1d:	83 ec 18             	sub    $0x18,%esp
  100f20:	c6 45 f7 01          	movb   $0x1,-0x9(%ebp)
  100f24:	83 ec 04             	sub    $0x4,%esp
  100f27:	ff 75 10             	pushl  0x10(%ebp)
  100f2a:	ff 75 0c             	pushl  0xc(%ebp)
  100f2d:	68 07 22 10 00       	push   $0x102207
  100f32:	e8 ad ff ff ff       	call   100ee4 <console_write_color>
  100f37:	83 c4 10             	add    $0x10,%esp
  100f3a:	c7 45 f0 1c 00 00 00 	movl   $0x1c,-0x10(%ebp)
  100f41:	eb 67                	jmp    100faa <console_write_hex+0x90>
  100f43:	8b 45 f0             	mov    -0x10(%ebp),%eax
  100f46:	8b 55 08             	mov    0x8(%ebp),%edx
  100f49:	89 c1                	mov    %eax,%ecx
  100f4b:	d3 ea                	shr    %cl,%edx
  100f4d:	89 d0                	mov    %edx,%eax
  100f4f:	83 e0 0f             	and    $0xf,%eax
  100f52:	89 45 ec             	mov    %eax,-0x14(%ebp)
  100f55:	83 7d ec 00          	cmpl   $0x0,-0x14(%ebp)
  100f59:	75 06                	jne    100f61 <console_write_hex+0x47>
  100f5b:	80 7d f7 00          	cmpb   $0x0,-0x9(%ebp)
  100f5f:	75 44                	jne    100fa5 <console_write_hex+0x8b>
  100f61:	c6 45 f7 00          	movb   $0x0,-0x9(%ebp)
  100f65:	83 7d ec 09          	cmpl   $0x9,-0x14(%ebp)
  100f69:	7e 1d                	jle    100f88 <console_write_hex+0x6e>
  100f6b:	8b 45 ec             	mov    -0x14(%ebp),%eax
  100f6e:	83 c0 57             	add    $0x57,%eax
  100f71:	0f be c0             	movsbl %al,%eax
  100f74:	83 ec 04             	sub    $0x4,%esp
  100f77:	ff 75 10             	pushl  0x10(%ebp)
  100f7a:	ff 75 0c             	pushl  0xc(%ebp)
  100f7d:	50                   	push   %eax
  100f7e:	e8 00 fe ff ff       	call   100d83 <console_putc_color>
  100f83:	83 c4 10             	add    $0x10,%esp
  100f86:	eb 1e                	jmp    100fa6 <console_write_hex+0x8c>
  100f88:	8b 45 ec             	mov    -0x14(%ebp),%eax
  100f8b:	83 c0 30             	add    $0x30,%eax
  100f8e:	0f be c0             	movsbl %al,%eax
  100f91:	83 ec 04             	sub    $0x4,%esp
  100f94:	ff 75 10             	pushl  0x10(%ebp)
  100f97:	ff 75 0c             	pushl  0xc(%ebp)
  100f9a:	50                   	push   %eax
  100f9b:	e8 e3 fd ff ff       	call   100d83 <console_putc_color>
  100fa0:	83 c4 10             	add    $0x10,%esp
  100fa3:	eb 01                	jmp    100fa6 <console_write_hex+0x8c>
  100fa5:	90                   	nop
  100fa6:	83 6d f0 04          	subl   $0x4,-0x10(%ebp)
  100faa:	83 7d f0 00          	cmpl   $0x0,-0x10(%ebp)
  100fae:	79 93                	jns    100f43 <console_write_hex+0x29>
  100fb0:	90                   	nop
  100fb1:	c9                   	leave  
  100fb2:	c3                   	ret    

00100fb3 <console_write_dec>:
  100fb3:	55                   	push   %ebp
  100fb4:	89 e5                	mov    %esp,%ebp
  100fb6:	83 ec 58             	sub    $0x58,%esp
  100fb9:	83 7d 08 00          	cmpl   $0x0,0x8(%ebp)
  100fbd:	75 18                	jne    100fd7 <console_write_dec+0x24>
  100fbf:	83 ec 04             	sub    $0x4,%esp
  100fc2:	ff 75 10             	pushl  0x10(%ebp)
  100fc5:	ff 75 0c             	pushl  0xc(%ebp)
  100fc8:	6a 30                	push   $0x30
  100fca:	e8 b4 fd ff ff       	call   100d83 <console_putc_color>
  100fcf:	83 c4 10             	add    $0x10,%esp
  100fd2:	e9 b0 00 00 00       	jmp    101087 <console_write_dec+0xd4>
  100fd7:	8b 45 08             	mov    0x8(%ebp),%eax
  100fda:	89 45 f4             	mov    %eax,-0xc(%ebp)
  100fdd:	c7 45 f0 00 00 00 00 	movl   $0x0,-0x10(%ebp)
  100fe4:	eb 43                	jmp    101029 <console_write_dec+0x76>
  100fe6:	8b 4d f4             	mov    -0xc(%ebp),%ecx
  100fe9:	ba cd cc cc cc       	mov    $0xcccccccd,%edx
  100fee:	89 c8                	mov    %ecx,%eax
  100ff0:	f7 e2                	mul    %edx
  100ff2:	c1 ea 03             	shr    $0x3,%edx
  100ff5:	89 d0                	mov    %edx,%eax
  100ff7:	c1 e0 02             	shl    $0x2,%eax
  100ffa:	01 d0                	add    %edx,%eax
  100ffc:	01 c0                	add    %eax,%eax
  100ffe:	29 c1                	sub    %eax,%ecx
  101000:	89 ca                	mov    %ecx,%edx
  101002:	89 d0                	mov    %edx,%eax
  101004:	83 c0 30             	add    $0x30,%eax
  101007:	89 c1                	mov    %eax,%ecx
  101009:	8d 55 cc             	lea    -0x34(%ebp),%edx
  10100c:	8b 45 f0             	mov    -0x10(%ebp),%eax
  10100f:	01 d0                	add    %edx,%eax
  101011:	88 08                	mov    %cl,(%eax)
  101013:	8b 45 f4             	mov    -0xc(%ebp),%eax
  101016:	ba cd cc cc cc       	mov    $0xcccccccd,%edx
  10101b:	f7 e2                	mul    %edx
  10101d:	89 d0                	mov    %edx,%eax
  10101f:	c1 e8 03             	shr    $0x3,%eax
  101022:	89 45 f4             	mov    %eax,-0xc(%ebp)
  101025:	83 45 f0 01          	addl   $0x1,-0x10(%ebp)
  101029:	83 7d f4 00          	cmpl   $0x0,-0xc(%ebp)
  10102d:	75 b7                	jne    100fe6 <console_write_dec+0x33>
  10102f:	8d 55 cc             	lea    -0x34(%ebp),%edx
  101032:	8b 45 f0             	mov    -0x10(%ebp),%eax
  101035:	01 d0                	add    %edx,%eax
  101037:	c6 00 00             	movb   $0x0,(%eax)
  10103a:	8b 45 f0             	mov    -0x10(%ebp),%eax
  10103d:	8d 50 ff             	lea    -0x1(%eax),%edx
  101040:	89 55 f0             	mov    %edx,-0x10(%ebp)
  101043:	c6 44 05 ac 00       	movb   $0x0,-0x54(%ebp,%eax,1)
  101048:	c7 45 ec 00 00 00 00 	movl   $0x0,-0x14(%ebp)
  10104f:	eb 1b                	jmp    10106c <console_write_dec+0xb9>
  101051:	8b 55 ec             	mov    -0x14(%ebp),%edx
  101054:	8d 42 01             	lea    0x1(%edx),%eax
  101057:	89 45 ec             	mov    %eax,-0x14(%ebp)
  10105a:	8b 45 f0             	mov    -0x10(%ebp),%eax
  10105d:	8d 48 ff             	lea    -0x1(%eax),%ecx
  101060:	89 4d f0             	mov    %ecx,-0x10(%ebp)
  101063:	0f b6 54 15 cc       	movzbl -0x34(%ebp,%edx,1),%edx
  101068:	88 54 05 ac          	mov    %dl,-0x54(%ebp,%eax,1)
  10106c:	83 7d f0 00          	cmpl   $0x0,-0x10(%ebp)
  101070:	79 df                	jns    101051 <console_write_dec+0x9e>
  101072:	83 ec 04             	sub    $0x4,%esp
  101075:	ff 75 10             	pushl  0x10(%ebp)
  101078:	ff 75 0c             	pushl  0xc(%ebp)
  10107b:	8d 45 ac             	lea    -0x54(%ebp),%eax
  10107e:	50                   	push   %eax
  10107f:	e8 60 fe ff ff       	call   100ee4 <console_write_color>
  101084:	83 c4 10             	add    $0x10,%esp
  101087:	c9                   	leave  
  101088:	c3                   	ret    
  101089:	66 90                	xchg   %ax,%ax
  10108b:	66 90                	xchg   %ax,%ax
  10108d:	66 90                	xchg   %ax,%ax
  10108f:	66 90                	xchg   %ax,%ax
  101091:	66 90                	xchg   %ax,%ax
  101093:	66 90                	xchg   %ax,%ax
  101095:	66 90                	xchg   %ax,%ax
  101097:	66 90                	xchg   %ax,%ax
  101099:	66 90                	xchg   %ax,%ax
  10109b:	66 90                	xchg   %ax,%ax
  10109d:	66 90                	xchg   %ax,%ax
  10109f:	66 90                	xchg   %ax,%ax
  1010a1:	66 90                	xchg   %ax,%ax
  1010a3:	66 90                	xchg   %ax,%ax
  1010a5:	66 90                	xchg   %ax,%ax
  1010a7:	66 90                	xchg   %ax,%ax
  1010a9:	66 90                	xchg   %ax,%ax
  1010ab:	66 90                	xchg   %ax,%ax
  1010ad:	66 90                	xchg   %ax,%ax
  1010af:	66 90                	xchg   %ax,%ax
  1010b1:	66 90                	xchg   %ax,%ax
  1010b3:	66 90                	xchg   %ax,%ax
  1010b5:	66 90                	xchg   %ax,%ax
  1010b7:	66 90                	xchg   %ax,%ax
  1010b9:	66 90                	xchg   %ax,%ax
  1010bb:	66 90                	xchg   %ax,%ax
  1010bd:	66 90                	xchg   %ax,%ax
  1010bf:	66 90                	xchg   %ax,%ax
  1010c1:	66 90                	xchg   %ax,%ax
  1010c3:	66 90                	xchg   %ax,%ax
  1010c5:	66 90                	xchg   %ax,%ax
  1010c7:	66 90                	xchg   %ax,%ax
  1010c9:	66 90                	xchg   %ax,%ax
  1010cb:	66 90                	xchg   %ax,%ax
  1010cd:	66 90                	xchg   %ax,%ax
  1010cf:	66 90                	xchg   %ax,%ax
  1010d1:	66 90                	xchg   %ax,%ax
  1010d3:	66 90                	xchg   %ax,%ax
  1010d5:	66 90                	xchg   %ax,%ax
  1010d7:	66 90                	xchg   %ax,%ax
  1010d9:	66 90                	xchg   %ax,%ax
  1010db:	66 90                	xchg   %ax,%ax
  1010dd:	66 90                	xchg   %ax,%ax
  1010df:	66 90                	xchg   %ax,%ax
  1010e1:	66 90                	xchg   %ax,%ax
  1010e3:	66 90                	xchg   %ax,%ax
  1010e5:	66 90                	xchg   %ax,%ax
  1010e7:	66 90                	xchg   %ax,%ax
  1010e9:	66 90                	xchg   %ax,%ax
  1010eb:	66 90                	xchg   %ax,%ax
  1010ed:	66 90                	xchg   %ax,%ax
  1010ef:	66 90                	xchg   %ax,%ax
  1010f1:	66 90                	xchg   %ax,%ax
  1010f3:	66 90                	xchg   %ax,%ax
  1010f5:	66 90                	xchg   %ax,%ax
  1010f7:	66 90                	xchg   %ax,%ax
  1010f9:	66 90                	xchg   %ax,%ax
  1010fb:	66 90                	xchg   %ax,%ax
  1010fd:	66 90                	xchg   %ax,%ax
  1010ff:	66 90                	xchg   %ax,%ax
  101101:	66 90                	xchg   %ax,%ax
  101103:	66 90                	xchg   %ax,%ax
  101105:	66 90                	xchg   %ax,%ax
  101107:	66 90                	xchg   %ax,%ax
  101109:	66 90                	xchg   %ax,%ax
  10110b:	66 90                	xchg   %ax,%ax
  10110d:	66 90                	xchg   %ax,%ax
  10110f:	66 90                	xchg   %ax,%ax
  101111:	66 90                	xchg   %ax,%ax
  101113:	66 90                	xchg   %ax,%ax
  101115:	66 90                	xchg   %ax,%ax
  101117:	66 90                	xchg   %ax,%ax
  101119:	66 90                	xchg   %ax,%ax
  10111b:	66 90                	xchg   %ax,%ax
  10111d:	66 90                	xchg   %ax,%ax
  10111f:	66 90                	xchg   %ax,%ax
  101121:	66 90                	xchg   %ax,%ax
  101123:	66 90                	xchg   %ax,%ax
  101125:	66 90                	xchg   %ax,%ax
  101127:	66 90                	xchg   %ax,%ax
  101129:	66 90                	xchg   %ax,%ax
  10112b:	66 90                	xchg   %ax,%ax
  10112d:	66 90                	xchg   %ax,%ax
  10112f:	66 90                	xchg   %ax,%ax
  101131:	66 90                	xchg   %ax,%ax
  101133:	66 90                	xchg   %ax,%ax
  101135:	66 90                	xchg   %ax,%ax
  101137:	66 90                	xchg   %ax,%ax
  101139:	66 90                	xchg   %ax,%ax
  10113b:	66 90                	xchg   %ax,%ax
  10113d:	66 90                	xchg   %ax,%ax
  10113f:	66 90                	xchg   %ax,%ax
  101141:	66 90                	xchg   %ax,%ax
  101143:	66 90                	xchg   %ax,%ax
  101145:	66 90                	xchg   %ax,%ax
  101147:	66 90                	xchg   %ax,%ax
  101149:	66 90                	xchg   %ax,%ax
  10114b:	66 90                	xchg   %ax,%ax
  10114d:	66 90                	xchg   %ax,%ax
  10114f:	66 90                	xchg   %ax,%ax
  101151:	66 90                	xchg   %ax,%ax
  101153:	66 90                	xchg   %ax,%ax
  101155:	66 90                	xchg   %ax,%ax
  101157:	66 90                	xchg   %ax,%ax
  101159:	66 90                	xchg   %ax,%ax
  10115b:	66 90                	xchg   %ax,%ax
  10115d:	66 90                	xchg   %ax,%ax
  10115f:	66 90                	xchg   %ax,%ax
  101161:	66 90                	xchg   %ax,%ax
  101163:	66 90                	xchg   %ax,%ax
  101165:	66 90                	xchg   %ax,%ax
  101167:	66 90                	xchg   %ax,%ax
  101169:	66 90                	xchg   %ax,%ax
  10116b:	66 90                	xchg   %ax,%ax
  10116d:	66 90                	xchg   %ax,%ax
  10116f:	66 90                	xchg   %ax,%ax
  101171:	66 90                	xchg   %ax,%ax
  101173:	66 90                	xchg   %ax,%ax
  101175:	66 90                	xchg   %ax,%ax
  101177:	66 90                	xchg   %ax,%ax
  101179:	66 90                	xchg   %ax,%ax
  10117b:	66 90                	xchg   %ax,%ax
  10117d:	66 90                	xchg   %ax,%ax
  10117f:	66 90                	xchg   %ax,%ax
  101181:	66 90                	xchg   %ax,%ax
  101183:	66 90                	xchg   %ax,%ax
  101185:	66 90                	xchg   %ax,%ax
  101187:	66 90                	xchg   %ax,%ax
  101189:	66 90                	xchg   %ax,%ax
  10118b:	66 90                	xchg   %ax,%ax
  10118d:	66 90                	xchg   %ax,%ax
  10118f:	66 90                	xchg   %ax,%ax
  101191:	66 90                	xchg   %ax,%ax
  101193:	66 90                	xchg   %ax,%ax
  101195:	66 90                	xchg   %ax,%ax
  101197:	66 90                	xchg   %ax,%ax
  101199:	66 90                	xchg   %ax,%ax
  10119b:	66 90                	xchg   %ax,%ax
  10119d:	66 90                	xchg   %ax,%ax
  10119f:	66 90                	xchg   %ax,%ax
  1011a1:	66 90                	xchg   %ax,%ax
  1011a3:	66 90                	xchg   %ax,%ax
  1011a5:	66 90                	xchg   %ax,%ax
  1011a7:	66 90                	xchg   %ax,%ax
  1011a9:	66 90                	xchg   %ax,%ax
  1011ab:	66 90                	xchg   %ax,%ax
  1011ad:	66 90                	xchg   %ax,%ax
  1011af:	66 90                	xchg   %ax,%ax
  1011b1:	66 90                	xchg   %ax,%ax
  1011b3:	66 90                	xchg   %ax,%ax
  1011b5:	66 90                	xchg   %ax,%ax
  1011b7:	66 90                	xchg   %ax,%ax
  1011b9:	66 90                	xchg   %ax,%ax
  1011bb:	66 90                	xchg   %ax,%ax
  1011bd:	66 90                	xchg   %ax,%ax
  1011bf:	66 90                	xchg   %ax,%ax
  1011c1:	66 90                	xchg   %ax,%ax
  1011c3:	66 90                	xchg   %ax,%ax
  1011c5:	66 90                	xchg   %ax,%ax
  1011c7:	66 90                	xchg   %ax,%ax
  1011c9:	66 90                	xchg   %ax,%ax
  1011cb:	66 90                	xchg   %ax,%ax
  1011cd:	66 90                	xchg   %ax,%ax
  1011cf:	66 90                	xchg   %ax,%ax
  1011d1:	66 90                	xchg   %ax,%ax
  1011d3:	66 90                	xchg   %ax,%ax
  1011d5:	66 90                	xchg   %ax,%ax
  1011d7:	66 90                	xchg   %ax,%ax
  1011d9:	66 90                	xchg   %ax,%ax
  1011db:	66 90                	xchg   %ax,%ax
  1011dd:	66 90                	xchg   %ax,%ax
  1011df:	66 90                	xchg   %ax,%ax
  1011e1:	66 90                	xchg   %ax,%ax
  1011e3:	66 90                	xchg   %ax,%ax
  1011e5:	66 90                	xchg   %ax,%ax
  1011e7:	66 90                	xchg   %ax,%ax
  1011e9:	66 90                	xchg   %ax,%ax
  1011eb:	66 90                	xchg   %ax,%ax
  1011ed:	66 90                	xchg   %ax,%ax
  1011ef:	66 90                	xchg   %ax,%ax
  1011f1:	66 90                	xchg   %ax,%ax
  1011f3:	66 90                	xchg   %ax,%ax
  1011f5:	66 90                	xchg   %ax,%ax
  1011f7:	66 90                	xchg   %ax,%ax
  1011f9:	66 90                	xchg   %ax,%ax
  1011fb:	66 90                	xchg   %ax,%ax
  1011fd:	66 90                	xchg   %ax,%ax
  1011ff:	66 90                	xchg   %ax,%ax
  101201:	66 90                	xchg   %ax,%ax
  101203:	66 90                	xchg   %ax,%ax
  101205:	66 90                	xchg   %ax,%ax
  101207:	66 90                	xchg   %ax,%ax
  101209:	66 90                	xchg   %ax,%ax
  10120b:	66 90                	xchg   %ax,%ax
  10120d:	66 90                	xchg   %ax,%ax
  10120f:	66 90                	xchg   %ax,%ax
  101211:	66 90                	xchg   %ax,%ax
  101213:	66 90                	xchg   %ax,%ax
  101215:	66 90                	xchg   %ax,%ax
  101217:	66 90                	xchg   %ax,%ax
  101219:	66 90                	xchg   %ax,%ax
  10121b:	66 90                	xchg   %ax,%ax
  10121d:	66 90                	xchg   %ax,%ax
  10121f:	66 90                	xchg   %ax,%ax
  101221:	66 90                	xchg   %ax,%ax
  101223:	66 90                	xchg   %ax,%ax
  101225:	66 90                	xchg   %ax,%ax
  101227:	66 90                	xchg   %ax,%ax
  101229:	66 90                	xchg   %ax,%ax
  10122b:	66 90                	xchg   %ax,%ax
  10122d:	66 90                	xchg   %ax,%ax
  10122f:	66 90                	xchg   %ax,%ax
  101231:	66 90                	xchg   %ax,%ax
  101233:	66 90                	xchg   %ax,%ax
  101235:	66 90                	xchg   %ax,%ax
  101237:	66 90                	xchg   %ax,%ax
  101239:	66 90                	xchg   %ax,%ax
  10123b:	66 90                	xchg   %ax,%ax
  10123d:	66 90                	xchg   %ax,%ax
  10123f:	66 90                	xchg   %ax,%ax
  101241:	66 90                	xchg   %ax,%ax
  101243:	66 90                	xchg   %ax,%ax
  101245:	66 90                	xchg   %ax,%ax
  101247:	66 90                	xchg   %ax,%ax
  101249:	66 90                	xchg   %ax,%ax
  10124b:	66 90                	xchg   %ax,%ax
  10124d:	66 90                	xchg   %ax,%ax
  10124f:	66 90                	xchg   %ax,%ax
  101251:	66 90                	xchg   %ax,%ax
  101253:	66 90                	xchg   %ax,%ax
  101255:	66 90                	xchg   %ax,%ax
  101257:	66 90                	xchg   %ax,%ax
  101259:	66 90                	xchg   %ax,%ax
  10125b:	66 90                	xchg   %ax,%ax
  10125d:	66 90                	xchg   %ax,%ax
  10125f:	66 90                	xchg   %ax,%ax
  101261:	66 90                	xchg   %ax,%ax
  101263:	66 90                	xchg   %ax,%ax
  101265:	66 90                	xchg   %ax,%ax
  101267:	66 90                	xchg   %ax,%ax
  101269:	66 90                	xchg   %ax,%ax
  10126b:	66 90                	xchg   %ax,%ax
  10126d:	66 90                	xchg   %ax,%ax
  10126f:	66 90                	xchg   %ax,%ax
  101271:	66 90                	xchg   %ax,%ax
  101273:	66 90                	xchg   %ax,%ax
  101275:	66 90                	xchg   %ax,%ax
  101277:	66 90                	xchg   %ax,%ax
  101279:	66 90                	xchg   %ax,%ax
  10127b:	66 90                	xchg   %ax,%ax
  10127d:	66 90                	xchg   %ax,%ax
  10127f:	66 90                	xchg   %ax,%ax
  101281:	66 90                	xchg   %ax,%ax
  101283:	66 90                	xchg   %ax,%ax
  101285:	66 90                	xchg   %ax,%ax
  101287:	66 90                	xchg   %ax,%ax
  101289:	66 90                	xchg   %ax,%ax
  10128b:	66 90                	xchg   %ax,%ax
  10128d:	66 90                	xchg   %ax,%ax
  10128f:	66 90                	xchg   %ax,%ax
  101291:	66 90                	xchg   %ax,%ax
  101293:	66 90                	xchg   %ax,%ax
  101295:	66 90                	xchg   %ax,%ax
  101297:	66 90                	xchg   %ax,%ax
  101299:	66 90                	xchg   %ax,%ax
  10129b:	66 90                	xchg   %ax,%ax
  10129d:	66 90                	xchg   %ax,%ax
  10129f:	66 90                	xchg   %ax,%ax
  1012a1:	66 90                	xchg   %ax,%ax
  1012a3:	66 90                	xchg   %ax,%ax
  1012a5:	66 90                	xchg   %ax,%ax
  1012a7:	66 90                	xchg   %ax,%ax
  1012a9:	66 90                	xchg   %ax,%ax
  1012ab:	66 90                	xchg   %ax,%ax
  1012ad:	66 90                	xchg   %ax,%ax
  1012af:	66 90                	xchg   %ax,%ax
  1012b1:	66 90                	xchg   %ax,%ax
  1012b3:	66 90                	xchg   %ax,%ax
  1012b5:	66 90                	xchg   %ax,%ax
  1012b7:	66 90                	xchg   %ax,%ax
  1012b9:	66 90                	xchg   %ax,%ax
  1012bb:	66 90                	xchg   %ax,%ax
  1012bd:	66 90                	xchg   %ax,%ax
  1012bf:	66 90                	xchg   %ax,%ax
  1012c1:	66 90                	xchg   %ax,%ax
  1012c3:	66 90                	xchg   %ax,%ax
  1012c5:	66 90                	xchg   %ax,%ax
  1012c7:	66 90                	xchg   %ax,%ax
  1012c9:	66 90                	xchg   %ax,%ax
  1012cb:	66 90                	xchg   %ax,%ax
  1012cd:	66 90                	xchg   %ax,%ax
  1012cf:	66 90                	xchg   %ax,%ax
  1012d1:	66 90                	xchg   %ax,%ax
  1012d3:	66 90                	xchg   %ax,%ax
  1012d5:	66 90                	xchg   %ax,%ax
  1012d7:	66 90                	xchg   %ax,%ax
  1012d9:	66 90                	xchg   %ax,%ax
  1012db:	66 90                	xchg   %ax,%ax
  1012dd:	66 90                	xchg   %ax,%ax
  1012df:	66 90                	xchg   %ax,%ax
  1012e1:	66 90                	xchg   %ax,%ax
  1012e3:	66 90                	xchg   %ax,%ax
  1012e5:	66 90                	xchg   %ax,%ax
  1012e7:	66 90                	xchg   %ax,%ax
  1012e9:	66 90                	xchg   %ax,%ax
  1012eb:	66 90                	xchg   %ax,%ax
  1012ed:	66 90                	xchg   %ax,%ax
  1012ef:	66 90                	xchg   %ax,%ax
  1012f1:	66 90                	xchg   %ax,%ax
  1012f3:	66 90                	xchg   %ax,%ax
  1012f5:	66 90                	xchg   %ax,%ax
  1012f7:	66 90                	xchg   %ax,%ax
  1012f9:	66 90                	xchg   %ax,%ax
  1012fb:	66 90                	xchg   %ax,%ax
  1012fd:	66 90                	xchg   %ax,%ax
  1012ff:	66 90                	xchg   %ax,%ax
  101301:	66 90                	xchg   %ax,%ax
  101303:	66 90                	xchg   %ax,%ax
  101305:	66 90                	xchg   %ax,%ax
  101307:	66 90                	xchg   %ax,%ax
  101309:	66 90                	xchg   %ax,%ax
  10130b:	66 90                	xchg   %ax,%ax
  10130d:	66 90                	xchg   %ax,%ax
  10130f:	66 90                	xchg   %ax,%ax
  101311:	66 90                	xchg   %ax,%ax
  101313:	66 90                	xchg   %ax,%ax
  101315:	66 90                	xchg   %ax,%ax
  101317:	66 90                	xchg   %ax,%ax
  101319:	66 90                	xchg   %ax,%ax
  10131b:	66 90                	xchg   %ax,%ax
  10131d:	66 90                	xchg   %ax,%ax
  10131f:	66 90                	xchg   %ax,%ax
  101321:	66 90                	xchg   %ax,%ax
  101323:	66 90                	xchg   %ax,%ax
  101325:	66 90                	xchg   %ax,%ax
  101327:	66 90                	xchg   %ax,%ax
  101329:	66 90                	xchg   %ax,%ax
  10132b:	66 90                	xchg   %ax,%ax
  10132d:	66 90                	xchg   %ax,%ax
  10132f:	66 90                	xchg   %ax,%ax
  101331:	66 90                	xchg   %ax,%ax
  101333:	66 90                	xchg   %ax,%ax
  101335:	66 90                	xchg   %ax,%ax
  101337:	66 90                	xchg   %ax,%ax
  101339:	66 90                	xchg   %ax,%ax
  10133b:	66 90                	xchg   %ax,%ax
  10133d:	66 90                	xchg   %ax,%ax
  10133f:	66 90                	xchg   %ax,%ax
  101341:	66 90                	xchg   %ax,%ax
  101343:	66 90                	xchg   %ax,%ax
  101345:	66 90                	xchg   %ax,%ax
  101347:	66 90                	xchg   %ax,%ax
  101349:	66 90                	xchg   %ax,%ax
  10134b:	66 90                	xchg   %ax,%ax
  10134d:	66 90                	xchg   %ax,%ax
  10134f:	66 90                	xchg   %ax,%ax
  101351:	66 90                	xchg   %ax,%ax
  101353:	66 90                	xchg   %ax,%ax
  101355:	66 90                	xchg   %ax,%ax
  101357:	66 90                	xchg   %ax,%ax
  101359:	66 90                	xchg   %ax,%ax
  10135b:	66 90                	xchg   %ax,%ax
  10135d:	66 90                	xchg   %ax,%ax
  10135f:	66 90                	xchg   %ax,%ax
  101361:	66 90                	xchg   %ax,%ax
  101363:	66 90                	xchg   %ax,%ax
  101365:	66 90                	xchg   %ax,%ax
  101367:	66 90                	xchg   %ax,%ax
  101369:	66 90                	xchg   %ax,%ax
  10136b:	66 90                	xchg   %ax,%ax
  10136d:	66 90                	xchg   %ax,%ax
  10136f:	66 90                	xchg   %ax,%ax
  101371:	66 90                	xchg   %ax,%ax
  101373:	66 90                	xchg   %ax,%ax
  101375:	66 90                	xchg   %ax,%ax
  101377:	66 90                	xchg   %ax,%ax
  101379:	66 90                	xchg   %ax,%ax
  10137b:	66 90                	xchg   %ax,%ax
  10137d:	66 90                	xchg   %ax,%ax
  10137f:	66 90                	xchg   %ax,%ax
  101381:	66 90                	xchg   %ax,%ax
  101383:	66 90                	xchg   %ax,%ax
  101385:	66 90                	xchg   %ax,%ax
  101387:	66 90                	xchg   %ax,%ax
  101389:	66 90                	xchg   %ax,%ax
  10138b:	66 90                	xchg   %ax,%ax
  10138d:	66 90                	xchg   %ax,%ax
  10138f:	66 90                	xchg   %ax,%ax
  101391:	66 90                	xchg   %ax,%ax
  101393:	66 90                	xchg   %ax,%ax
  101395:	66 90                	xchg   %ax,%ax
  101397:	66 90                	xchg   %ax,%ax
  101399:	66 90                	xchg   %ax,%ax
  10139b:	66 90                	xchg   %ax,%ax
  10139d:	66 90                	xchg   %ax,%ax
  10139f:	66 90                	xchg   %ax,%ax
  1013a1:	66 90                	xchg   %ax,%ax
  1013a3:	66 90                	xchg   %ax,%ax
  1013a5:	66 90                	xchg   %ax,%ax
  1013a7:	66 90                	xchg   %ax,%ax
  1013a9:	66 90                	xchg   %ax,%ax
  1013ab:	66 90                	xchg   %ax,%ax
  1013ad:	66 90                	xchg   %ax,%ax
  1013af:	66 90                	xchg   %ax,%ax
  1013b1:	66 90                	xchg   %ax,%ax
  1013b3:	66 90                	xchg   %ax,%ax
  1013b5:	66 90                	xchg   %ax,%ax
  1013b7:	66 90                	xchg   %ax,%ax
  1013b9:	66 90                	xchg   %ax,%ax
  1013bb:	66 90                	xchg   %ax,%ax
  1013bd:	66 90                	xchg   %ax,%ax
  1013bf:	66 90                	xchg   %ax,%ax
  1013c1:	66 90                	xchg   %ax,%ax
  1013c3:	66 90                	xchg   %ax,%ax
  1013c5:	66 90                	xchg   %ax,%ax
  1013c7:	66 90                	xchg   %ax,%ax
  1013c9:	66 90                	xchg   %ax,%ax
  1013cb:	66 90                	xchg   %ax,%ax
  1013cd:	66 90                	xchg   %ax,%ax
  1013cf:	66 90                	xchg   %ax,%ax
  1013d1:	66 90                	xchg   %ax,%ax
  1013d3:	66 90                	xchg   %ax,%ax
  1013d5:	66 90                	xchg   %ax,%ax
  1013d7:	66 90                	xchg   %ax,%ax
  1013d9:	66 90                	xchg   %ax,%ax
  1013db:	66 90                	xchg   %ax,%ax
  1013dd:	66 90                	xchg   %ax,%ax
  1013df:	66 90                	xchg   %ax,%ax
  1013e1:	66 90                	xchg   %ax,%ax
  1013e3:	66 90                	xchg   %ax,%ax
  1013e5:	66 90                	xchg   %ax,%ax
  1013e7:	66 90                	xchg   %ax,%ax
  1013e9:	66 90                	xchg   %ax,%ax
  1013eb:	66 90                	xchg   %ax,%ax
  1013ed:	66 90                	xchg   %ax,%ax
  1013ef:	66 90                	xchg   %ax,%ax
  1013f1:	66 90                	xchg   %ax,%ax
  1013f3:	66 90                	xchg   %ax,%ax
  1013f5:	66 90                	xchg   %ax,%ax
  1013f7:	66 90                	xchg   %ax,%ax
  1013f9:	66 90                	xchg   %ax,%ax
  1013fb:	66 90                	xchg   %ax,%ax
  1013fd:	66 90                	xchg   %ax,%ax
  1013ff:	66 90                	xchg   %ax,%ax
  101401:	66 90                	xchg   %ax,%ax
  101403:	66 90                	xchg   %ax,%ax
  101405:	66 90                	xchg   %ax,%ax
  101407:	66 90                	xchg   %ax,%ax
  101409:	66 90                	xchg   %ax,%ax
  10140b:	66 90                	xchg   %ax,%ax
  10140d:	66 90                	xchg   %ax,%ax
  10140f:	66 90                	xchg   %ax,%ax
  101411:	66 90                	xchg   %ax,%ax
  101413:	66 90                	xchg   %ax,%ax
  101415:	66 90                	xchg   %ax,%ax
  101417:	66 90                	xchg   %ax,%ax
  101419:	66 90                	xchg   %ax,%ax
  10141b:	66 90                	xchg   %ax,%ax
  10141d:	66 90                	xchg   %ax,%ax
  10141f:	66 90                	xchg   %ax,%ax
  101421:	66 90                	xchg   %ax,%ax
  101423:	66 90                	xchg   %ax,%ax
  101425:	66 90                	xchg   %ax,%ax
  101427:	66 90                	xchg   %ax,%ax
  101429:	66 90                	xchg   %ax,%ax
  10142b:	66 90                	xchg   %ax,%ax
  10142d:	66 90                	xchg   %ax,%ax
  10142f:	66 90                	xchg   %ax,%ax
  101431:	66 90                	xchg   %ax,%ax
  101433:	66 90                	xchg   %ax,%ax
  101435:	66 90                	xchg   %ax,%ax
  101437:	66 90                	xchg   %ax,%ax
  101439:	66 90                	xchg   %ax,%ax
  10143b:	66 90                	xchg   %ax,%ax
  10143d:	66 90                	xchg   %ax,%ax
  10143f:	66 90                	xchg   %ax,%ax
  101441:	66 90                	xchg   %ax,%ax
  101443:	66 90                	xchg   %ax,%ax
  101445:	66 90                	xchg   %ax,%ax
  101447:	66 90                	xchg   %ax,%ax
  101449:	66 90                	xchg   %ax,%ax
  10144b:	66 90                	xchg   %ax,%ax
  10144d:	66 90                	xchg   %ax,%ax
  10144f:	66 90                	xchg   %ax,%ax
  101451:	66 90                	xchg   %ax,%ax
  101453:	66 90                	xchg   %ax,%ax
  101455:	66 90                	xchg   %ax,%ax
  101457:	66 90                	xchg   %ax,%ax
  101459:	66 90                	xchg   %ax,%ax
  10145b:	66 90                	xchg   %ax,%ax
  10145d:	66 90                	xchg   %ax,%ax
  10145f:	66 90                	xchg   %ax,%ax
  101461:	66 90                	xchg   %ax,%ax
  101463:	66 90                	xchg   %ax,%ax
  101465:	66 90                	xchg   %ax,%ax
  101467:	66 90                	xchg   %ax,%ax
  101469:	66 90                	xchg   %ax,%ax
  10146b:	66 90                	xchg   %ax,%ax
  10146d:	66 90                	xchg   %ax,%ax
  10146f:	66 90                	xchg   %ax,%ax
  101471:	66 90                	xchg   %ax,%ax
  101473:	66 90                	xchg   %ax,%ax
  101475:	66 90                	xchg   %ax,%ax
  101477:	66 90                	xchg   %ax,%ax
  101479:	66 90                	xchg   %ax,%ax
  10147b:	66 90                	xchg   %ax,%ax
  10147d:	66 90                	xchg   %ax,%ax
  10147f:	66 90                	xchg   %ax,%ax
  101481:	66 90                	xchg   %ax,%ax
  101483:	66 90                	xchg   %ax,%ax
  101485:	66 90                	xchg   %ax,%ax
  101487:	66 90                	xchg   %ax,%ax
  101489:	66 90                	xchg   %ax,%ax
  10148b:	66 90                	xchg   %ax,%ax
  10148d:	66 90                	xchg   %ax,%ax
  10148f:	66 90                	xchg   %ax,%ax
  101491:	66 90                	xchg   %ax,%ax
  101493:	66 90                	xchg   %ax,%ax
  101495:	66 90                	xchg   %ax,%ax
  101497:	66 90                	xchg   %ax,%ax
  101499:	66 90                	xchg   %ax,%ax
  10149b:	66 90                	xchg   %ax,%ax
  10149d:	66 90                	xchg   %ax,%ax
  10149f:	66 90                	xchg   %ax,%ax
  1014a1:	66 90                	xchg   %ax,%ax
  1014a3:	66 90                	xchg   %ax,%ax
  1014a5:	66 90                	xchg   %ax,%ax
  1014a7:	66 90                	xchg   %ax,%ax
  1014a9:	66 90                	xchg   %ax,%ax
  1014ab:	66 90                	xchg   %ax,%ax
  1014ad:	66 90                	xchg   %ax,%ax
  1014af:	66 90                	xchg   %ax,%ax
  1014b1:	66 90                	xchg   %ax,%ax
  1014b3:	66 90                	xchg   %ax,%ax
  1014b5:	66 90                	xchg   %ax,%ax
  1014b7:	66 90                	xchg   %ax,%ax
  1014b9:	66 90                	xchg   %ax,%ax
  1014bb:	66 90                	xchg   %ax,%ax
  1014bd:	66 90                	xchg   %ax,%ax
  1014bf:	66 90                	xchg   %ax,%ax
  1014c1:	66 90                	xchg   %ax,%ax
  1014c3:	66 90                	xchg   %ax,%ax
  1014c5:	66 90                	xchg   %ax,%ax
  1014c7:	66 90                	xchg   %ax,%ax
  1014c9:	66 90                	xchg   %ax,%ax
  1014cb:	66 90                	xchg   %ax,%ax
  1014cd:	66 90                	xchg   %ax,%ax
  1014cf:	66 90                	xchg   %ax,%ax
  1014d1:	66 90                	xchg   %ax,%ax
  1014d3:	66 90                	xchg   %ax,%ax
  1014d5:	66 90                	xchg   %ax,%ax
  1014d7:	66 90                	xchg   %ax,%ax
  1014d9:	66 90                	xchg   %ax,%ax
  1014db:	66 90                	xchg   %ax,%ax
  1014dd:	66 90                	xchg   %ax,%ax
  1014df:	66 90                	xchg   %ax,%ax
  1014e1:	66 90                	xchg   %ax,%ax
  1014e3:	66 90                	xchg   %ax,%ax
  1014e5:	66 90                	xchg   %ax,%ax
  1014e7:	66 90                	xchg   %ax,%ax
  1014e9:	66 90                	xchg   %ax,%ax
  1014eb:	66 90                	xchg   %ax,%ax
  1014ed:	66 90                	xchg   %ax,%ax
  1014ef:	66 90                	xchg   %ax,%ax
  1014f1:	66 90                	xchg   %ax,%ax
  1014f3:	66 90                	xchg   %ax,%ax
  1014f5:	66 90                	xchg   %ax,%ax
  1014f7:	66 90                	xchg   %ax,%ax
  1014f9:	66 90                	xchg   %ax,%ax
  1014fb:	66 90                	xchg   %ax,%ax
  1014fd:	66 90                	xchg   %ax,%ax
  1014ff:	66 90                	xchg   %ax,%ax
  101501:	66 90                	xchg   %ax,%ax
  101503:	66 90                	xchg   %ax,%ax
  101505:	66 90                	xchg   %ax,%ax
  101507:	66 90                	xchg   %ax,%ax
  101509:	66 90                	xchg   %ax,%ax
  10150b:	66 90                	xchg   %ax,%ax
  10150d:	66 90                	xchg   %ax,%ax
  10150f:	66 90                	xchg   %ax,%ax
  101511:	66 90                	xchg   %ax,%ax
  101513:	66 90                	xchg   %ax,%ax
  101515:	66 90                	xchg   %ax,%ax
  101517:	66 90                	xchg   %ax,%ax
  101519:	66 90                	xchg   %ax,%ax
  10151b:	66 90                	xchg   %ax,%ax
  10151d:	66 90                	xchg   %ax,%ax
  10151f:	66 90                	xchg   %ax,%ax
  101521:	66 90                	xchg   %ax,%ax
  101523:	66 90                	xchg   %ax,%ax
  101525:	66 90                	xchg   %ax,%ax
  101527:	66 90                	xchg   %ax,%ax
  101529:	66 90                	xchg   %ax,%ax
  10152b:	66 90                	xchg   %ax,%ax
  10152d:	66 90                	xchg   %ax,%ax
  10152f:	66 90                	xchg   %ax,%ax
  101531:	66 90                	xchg   %ax,%ax
  101533:	66 90                	xchg   %ax,%ax
  101535:	66 90                	xchg   %ax,%ax
  101537:	66 90                	xchg   %ax,%ax
  101539:	66 90                	xchg   %ax,%ax
  10153b:	66 90                	xchg   %ax,%ax
  10153d:	66 90                	xchg   %ax,%ax
  10153f:	66 90                	xchg   %ax,%ax
  101541:	66 90                	xchg   %ax,%ax
  101543:	66 90                	xchg   %ax,%ax
  101545:	66 90                	xchg   %ax,%ax
  101547:	66 90                	xchg   %ax,%ax
  101549:	66 90                	xchg   %ax,%ax
  10154b:	66 90                	xchg   %ax,%ax
  10154d:	66 90                	xchg   %ax,%ax
  10154f:	66 90                	xchg   %ax,%ax
  101551:	66 90                	xchg   %ax,%ax
  101553:	66 90                	xchg   %ax,%ax
  101555:	66 90                	xchg   %ax,%ax
  101557:	66 90                	xchg   %ax,%ax
  101559:	66 90                	xchg   %ax,%ax
  10155b:	66 90                	xchg   %ax,%ax
  10155d:	66 90                	xchg   %ax,%ax
  10155f:	66 90                	xchg   %ax,%ax
  101561:	66 90                	xchg   %ax,%ax
  101563:	66 90                	xchg   %ax,%ax
  101565:	66 90                	xchg   %ax,%ax
  101567:	66 90                	xchg   %ax,%ax
  101569:	66 90                	xchg   %ax,%ax
  10156b:	66 90                	xchg   %ax,%ax
  10156d:	66 90                	xchg   %ax,%ax
  10156f:	66 90                	xchg   %ax,%ax
  101571:	66 90                	xchg   %ax,%ax
  101573:	66 90                	xchg   %ax,%ax
  101575:	66 90                	xchg   %ax,%ax
  101577:	66 90                	xchg   %ax,%ax
  101579:	66 90                	xchg   %ax,%ax
  10157b:	66 90                	xchg   %ax,%ax
  10157d:	66 90                	xchg   %ax,%ax
  10157f:	66 90                	xchg   %ax,%ax
  101581:	66 90                	xchg   %ax,%ax
  101583:	66 90                	xchg   %ax,%ax
  101585:	66 90                	xchg   %ax,%ax
  101587:	66 90                	xchg   %ax,%ax
  101589:	66 90                	xchg   %ax,%ax
  10158b:	66 90                	xchg   %ax,%ax
  10158d:	66 90                	xchg   %ax,%ax
  10158f:	66 90                	xchg   %ax,%ax
  101591:	66 90                	xchg   %ax,%ax
  101593:	66 90                	xchg   %ax,%ax
  101595:	66 90                	xchg   %ax,%ax
  101597:	66 90                	xchg   %ax,%ax
  101599:	66 90                	xchg   %ax,%ax
  10159b:	66 90                	xchg   %ax,%ax
  10159d:	66 90                	xchg   %ax,%ax
  10159f:	66 90                	xchg   %ax,%ax
  1015a1:	66 90                	xchg   %ax,%ax
  1015a3:	66 90                	xchg   %ax,%ax
  1015a5:	66 90                	xchg   %ax,%ax
  1015a7:	66 90                	xchg   %ax,%ax
  1015a9:	66 90                	xchg   %ax,%ax
  1015ab:	66 90                	xchg   %ax,%ax
  1015ad:	66 90                	xchg   %ax,%ax
  1015af:	66 90                	xchg   %ax,%ax
  1015b1:	66 90                	xchg   %ax,%ax
  1015b3:	66 90                	xchg   %ax,%ax
  1015b5:	66 90                	xchg   %ax,%ax
  1015b7:	66 90                	xchg   %ax,%ax
  1015b9:	66 90                	xchg   %ax,%ax
  1015bb:	66 90                	xchg   %ax,%ax
  1015bd:	66 90                	xchg   %ax,%ax
  1015bf:	66 90                	xchg   %ax,%ax
  1015c1:	66 90                	xchg   %ax,%ax
  1015c3:	66 90                	xchg   %ax,%ax
  1015c5:	66 90                	xchg   %ax,%ax
  1015c7:	66 90                	xchg   %ax,%ax
  1015c9:	66 90                	xchg   %ax,%ax
  1015cb:	66 90                	xchg   %ax,%ax
  1015cd:	66 90                	xchg   %ax,%ax
  1015cf:	66 90                	xchg   %ax,%ax
  1015d1:	66 90                	xchg   %ax,%ax
  1015d3:	66 90                	xchg   %ax,%ax
  1015d5:	66 90                	xchg   %ax,%ax
  1015d7:	66 90                	xchg   %ax,%ax
  1015d9:	66 90                	xchg   %ax,%ax
  1015db:	66 90                	xchg   %ax,%ax
  1015dd:	66 90                	xchg   %ax,%ax
  1015df:	66 90                	xchg   %ax,%ax
  1015e1:	66 90                	xchg   %ax,%ax
  1015e3:	66 90                	xchg   %ax,%ax
  1015e5:	66 90                	xchg   %ax,%ax
  1015e7:	66 90                	xchg   %ax,%ax
  1015e9:	66 90                	xchg   %ax,%ax
  1015eb:	66 90                	xchg   %ax,%ax
  1015ed:	66 90                	xchg   %ax,%ax
  1015ef:	66 90                	xchg   %ax,%ax
  1015f1:	66 90                	xchg   %ax,%ax
  1015f3:	66 90                	xchg   %ax,%ax
  1015f5:	66 90                	xchg   %ax,%ax
  1015f7:	66 90                	xchg   %ax,%ax
  1015f9:	66 90                	xchg   %ax,%ax
  1015fb:	66 90                	xchg   %ax,%ax
  1015fd:	66 90                	xchg   %ax,%ax
  1015ff:	66 90                	xchg   %ax,%ax
  101601:	66 90                	xchg   %ax,%ax
  101603:	66 90                	xchg   %ax,%ax
  101605:	66 90                	xchg   %ax,%ax
  101607:	66 90                	xchg   %ax,%ax
  101609:	66 90                	xchg   %ax,%ax
  10160b:	66 90                	xchg   %ax,%ax
  10160d:	66 90                	xchg   %ax,%ax
  10160f:	66 90                	xchg   %ax,%ax
  101611:	66 90                	xchg   %ax,%ax
  101613:	66 90                	xchg   %ax,%ax
  101615:	66 90                	xchg   %ax,%ax
  101617:	66 90                	xchg   %ax,%ax
  101619:	66 90                	xchg   %ax,%ax
  10161b:	66 90                	xchg   %ax,%ax
  10161d:	66 90                	xchg   %ax,%ax
  10161f:	66 90                	xchg   %ax,%ax
  101621:	66 90                	xchg   %ax,%ax
  101623:	66 90                	xchg   %ax,%ax
  101625:	66 90                	xchg   %ax,%ax
  101627:	66 90                	xchg   %ax,%ax
  101629:	66 90                	xchg   %ax,%ax
  10162b:	66 90                	xchg   %ax,%ax
  10162d:	66 90                	xchg   %ax,%ax
  10162f:	66 90                	xchg   %ax,%ax
  101631:	66 90                	xchg   %ax,%ax
  101633:	66 90                	xchg   %ax,%ax
  101635:	66 90                	xchg   %ax,%ax
  101637:	66 90                	xchg   %ax,%ax
  101639:	66 90                	xchg   %ax,%ax
  10163b:	66 90                	xchg   %ax,%ax
  10163d:	66 90                	xchg   %ax,%ax
  10163f:	66 90                	xchg   %ax,%ax
  101641:	66 90                	xchg   %ax,%ax
  101643:	66 90                	xchg   %ax,%ax
  101645:	66 90                	xchg   %ax,%ax
  101647:	66 90                	xchg   %ax,%ax
  101649:	66 90                	xchg   %ax,%ax
  10164b:	66 90                	xchg   %ax,%ax
  10164d:	66 90                	xchg   %ax,%ax
  10164f:	66 90                	xchg   %ax,%ax
  101651:	66 90                	xchg   %ax,%ax
  101653:	66 90                	xchg   %ax,%ax
  101655:	66 90                	xchg   %ax,%ax
  101657:	66 90                	xchg   %ax,%ax
  101659:	66 90                	xchg   %ax,%ax
  10165b:	66 90                	xchg   %ax,%ax
  10165d:	66 90                	xchg   %ax,%ax
  10165f:	66 90                	xchg   %ax,%ax
  101661:	66 90                	xchg   %ax,%ax
  101663:	66 90                	xchg   %ax,%ax
  101665:	66 90                	xchg   %ax,%ax
  101667:	66 90                	xchg   %ax,%ax
  101669:	66 90                	xchg   %ax,%ax
  10166b:	66 90                	xchg   %ax,%ax
  10166d:	66 90                	xchg   %ax,%ax
  10166f:	66 90                	xchg   %ax,%ax
  101671:	66 90                	xchg   %ax,%ax
  101673:	66 90                	xchg   %ax,%ax
  101675:	66 90                	xchg   %ax,%ax
  101677:	66 90                	xchg   %ax,%ax
  101679:	66 90                	xchg   %ax,%ax
  10167b:	66 90                	xchg   %ax,%ax
  10167d:	66 90                	xchg   %ax,%ax
  10167f:	66 90                	xchg   %ax,%ax
  101681:	66 90                	xchg   %ax,%ax
  101683:	66 90                	xchg   %ax,%ax
  101685:	66 90                	xchg   %ax,%ax
  101687:	66 90                	xchg   %ax,%ax
  101689:	66 90                	xchg   %ax,%ax
  10168b:	66 90                	xchg   %ax,%ax
  10168d:	66 90                	xchg   %ax,%ax
  10168f:	66 90                	xchg   %ax,%ax
  101691:	66 90                	xchg   %ax,%ax
  101693:	66 90                	xchg   %ax,%ax
  101695:	66 90                	xchg   %ax,%ax
  101697:	66 90                	xchg   %ax,%ax
  101699:	66 90                	xchg   %ax,%ax
  10169b:	66 90                	xchg   %ax,%ax
  10169d:	66 90                	xchg   %ax,%ax
  10169f:	66 90                	xchg   %ax,%ax
  1016a1:	66 90                	xchg   %ax,%ax
  1016a3:	66 90                	xchg   %ax,%ax
  1016a5:	66 90                	xchg   %ax,%ax
  1016a7:	66 90                	xchg   %ax,%ax
  1016a9:	66 90                	xchg   %ax,%ax
  1016ab:	66 90                	xchg   %ax,%ax
  1016ad:	66 90                	xchg   %ax,%ax
  1016af:	66 90                	xchg   %ax,%ax
  1016b1:	66 90                	xchg   %ax,%ax
  1016b3:	66 90                	xchg   %ax,%ax
  1016b5:	66 90                	xchg   %ax,%ax
  1016b7:	66 90                	xchg   %ax,%ax
  1016b9:	66 90                	xchg   %ax,%ax
  1016bb:	66 90                	xchg   %ax,%ax
  1016bd:	66 90                	xchg   %ax,%ax
  1016bf:	66 90                	xchg   %ax,%ax
  1016c1:	66 90                	xchg   %ax,%ax
  1016c3:	66 90                	xchg   %ax,%ax
  1016c5:	66 90                	xchg   %ax,%ax
  1016c7:	66 90                	xchg   %ax,%ax
  1016c9:	66 90                	xchg   %ax,%ax
  1016cb:	66 90                	xchg   %ax,%ax
  1016cd:	66 90                	xchg   %ax,%ax
  1016cf:	66 90                	xchg   %ax,%ax
  1016d1:	66 90                	xchg   %ax,%ax
  1016d3:	66 90                	xchg   %ax,%ax
  1016d5:	66 90                	xchg   %ax,%ax
  1016d7:	66 90                	xchg   %ax,%ax
  1016d9:	66 90                	xchg   %ax,%ax
  1016db:	66 90                	xchg   %ax,%ax
  1016dd:	66 90                	xchg   %ax,%ax
  1016df:	66 90                	xchg   %ax,%ax
  1016e1:	66 90                	xchg   %ax,%ax
  1016e3:	66 90                	xchg   %ax,%ax
  1016e5:	66 90                	xchg   %ax,%ax
  1016e7:	66 90                	xchg   %ax,%ax
  1016e9:	66 90                	xchg   %ax,%ax
  1016eb:	66 90                	xchg   %ax,%ax
  1016ed:	66 90                	xchg   %ax,%ax
  1016ef:	66 90                	xchg   %ax,%ax
  1016f1:	66 90                	xchg   %ax,%ax
  1016f3:	66 90                	xchg   %ax,%ax
  1016f5:	66 90                	xchg   %ax,%ax
  1016f7:	66 90                	xchg   %ax,%ax
  1016f9:	66 90                	xchg   %ax,%ax
  1016fb:	66 90                	xchg   %ax,%ax
  1016fd:	66 90                	xchg   %ax,%ax
  1016ff:	66 90                	xchg   %ax,%ax
  101701:	66 90                	xchg   %ax,%ax
  101703:	66 90                	xchg   %ax,%ax
  101705:	66 90                	xchg   %ax,%ax
  101707:	66 90                	xchg   %ax,%ax
  101709:	66 90                	xchg   %ax,%ax
  10170b:	66 90                	xchg   %ax,%ax
  10170d:	66 90                	xchg   %ax,%ax
  10170f:	66 90                	xchg   %ax,%ax
  101711:	66 90                	xchg   %ax,%ax
  101713:	66 90                	xchg   %ax,%ax
  101715:	66 90                	xchg   %ax,%ax
  101717:	66 90                	xchg   %ax,%ax
  101719:	66 90                	xchg   %ax,%ax
  10171b:	66 90                	xchg   %ax,%ax
  10171d:	66 90                	xchg   %ax,%ax
  10171f:	66 90                	xchg   %ax,%ax
  101721:	66 90                	xchg   %ax,%ax
  101723:	66 90                	xchg   %ax,%ax
  101725:	66 90                	xchg   %ax,%ax
  101727:	66 90                	xchg   %ax,%ax
  101729:	66 90                	xchg   %ax,%ax
  10172b:	66 90                	xchg   %ax,%ax
  10172d:	66 90                	xchg   %ax,%ax
  10172f:	66 90                	xchg   %ax,%ax
  101731:	66 90                	xchg   %ax,%ax
  101733:	66 90                	xchg   %ax,%ax
  101735:	66 90                	xchg   %ax,%ax
  101737:	66 90                	xchg   %ax,%ax
  101739:	66 90                	xchg   %ax,%ax
  10173b:	66 90                	xchg   %ax,%ax
  10173d:	66 90                	xchg   %ax,%ax
  10173f:	66 90                	xchg   %ax,%ax
  101741:	66 90                	xchg   %ax,%ax
  101743:	66 90                	xchg   %ax,%ax
  101745:	66 90                	xchg   %ax,%ax
  101747:	66 90                	xchg   %ax,%ax
  101749:	66 90                	xchg   %ax,%ax
  10174b:	66 90                	xchg   %ax,%ax
  10174d:	66 90                	xchg   %ax,%ax
  10174f:	66 90                	xchg   %ax,%ax
  101751:	66 90                	xchg   %ax,%ax
  101753:	66 90                	xchg   %ax,%ax
  101755:	66 90                	xchg   %ax,%ax
  101757:	66 90                	xchg   %ax,%ax
  101759:	66 90                	xchg   %ax,%ax
  10175b:	66 90                	xchg   %ax,%ax
  10175d:	66 90                	xchg   %ax,%ax
  10175f:	66 90                	xchg   %ax,%ax
  101761:	66 90                	xchg   %ax,%ax
  101763:	66 90                	xchg   %ax,%ax
  101765:	66 90                	xchg   %ax,%ax
  101767:	66 90                	xchg   %ax,%ax
  101769:	66 90                	xchg   %ax,%ax
  10176b:	66 90                	xchg   %ax,%ax
  10176d:	66 90                	xchg   %ax,%ax
  10176f:	66 90                	xchg   %ax,%ax
  101771:	66 90                	xchg   %ax,%ax
  101773:	66 90                	xchg   %ax,%ax
  101775:	66 90                	xchg   %ax,%ax
  101777:	66 90                	xchg   %ax,%ax
  101779:	66 90                	xchg   %ax,%ax
  10177b:	66 90                	xchg   %ax,%ax
  10177d:	66 90                	xchg   %ax,%ax
  10177f:	66 90                	xchg   %ax,%ax
  101781:	66 90                	xchg   %ax,%ax
  101783:	66 90                	xchg   %ax,%ax
  101785:	66 90                	xchg   %ax,%ax
  101787:	66 90                	xchg   %ax,%ax
  101789:	66 90                	xchg   %ax,%ax
  10178b:	66 90                	xchg   %ax,%ax
  10178d:	66 90                	xchg   %ax,%ax
  10178f:	66 90                	xchg   %ax,%ax
  101791:	66 90                	xchg   %ax,%ax
  101793:	66 90                	xchg   %ax,%ax
  101795:	66 90                	xchg   %ax,%ax
  101797:	66 90                	xchg   %ax,%ax
  101799:	66 90                	xchg   %ax,%ax
  10179b:	66 90                	xchg   %ax,%ax
  10179d:	66 90                	xchg   %ax,%ax
  10179f:	66 90                	xchg   %ax,%ax
  1017a1:	66 90                	xchg   %ax,%ax
  1017a3:	66 90                	xchg   %ax,%ax
  1017a5:	66 90                	xchg   %ax,%ax
  1017a7:	66 90                	xchg   %ax,%ax
  1017a9:	66 90                	xchg   %ax,%ax
  1017ab:	66 90                	xchg   %ax,%ax
  1017ad:	66 90                	xchg   %ax,%ax
  1017af:	66 90                	xchg   %ax,%ax
  1017b1:	66 90                	xchg   %ax,%ax
  1017b3:	66 90                	xchg   %ax,%ax
  1017b5:	66 90                	xchg   %ax,%ax
  1017b7:	66 90                	xchg   %ax,%ax
  1017b9:	66 90                	xchg   %ax,%ax
  1017bb:	66 90                	xchg   %ax,%ax
  1017bd:	66 90                	xchg   %ax,%ax
  1017bf:	66 90                	xchg   %ax,%ax
  1017c1:	66 90                	xchg   %ax,%ax
  1017c3:	66 90                	xchg   %ax,%ax
  1017c5:	66 90                	xchg   %ax,%ax
  1017c7:	66 90                	xchg   %ax,%ax
  1017c9:	66 90                	xchg   %ax,%ax
  1017cb:	66 90                	xchg   %ax,%ax
  1017cd:	66 90                	xchg   %ax,%ax
  1017cf:	66 90                	xchg   %ax,%ax
  1017d1:	66 90                	xchg   %ax,%ax
  1017d3:	66 90                	xchg   %ax,%ax
  1017d5:	66 90                	xchg   %ax,%ax
  1017d7:	66 90                	xchg   %ax,%ax
  1017d9:	66 90                	xchg   %ax,%ax
  1017db:	66 90                	xchg   %ax,%ax
  1017dd:	66 90                	xchg   %ax,%ax
  1017df:	66 90                	xchg   %ax,%ax
  1017e1:	66 90                	xchg   %ax,%ax
  1017e3:	66 90                	xchg   %ax,%ax
  1017e5:	66 90                	xchg   %ax,%ax
  1017e7:	66 90                	xchg   %ax,%ax
  1017e9:	66 90                	xchg   %ax,%ax
  1017eb:	66 90                	xchg   %ax,%ax
  1017ed:	66 90                	xchg   %ax,%ax
  1017ef:	66 90                	xchg   %ax,%ax
  1017f1:	66 90                	xchg   %ax,%ax
  1017f3:	66 90                	xchg   %ax,%ax
  1017f5:	66 90                	xchg   %ax,%ax
  1017f7:	66 90                	xchg   %ax,%ax
  1017f9:	66 90                	xchg   %ax,%ax
  1017fb:	66 90                	xchg   %ax,%ax
  1017fd:	66 90                	xchg   %ax,%ax
  1017ff:	66 90                	xchg   %ax,%ax
  101801:	66 90                	xchg   %ax,%ax
  101803:	66 90                	xchg   %ax,%ax
  101805:	66 90                	xchg   %ax,%ax
  101807:	66 90                	xchg   %ax,%ax
  101809:	66 90                	xchg   %ax,%ax
  10180b:	66 90                	xchg   %ax,%ax
  10180d:	66 90                	xchg   %ax,%ax
  10180f:	66 90                	xchg   %ax,%ax
  101811:	66 90                	xchg   %ax,%ax
  101813:	66 90                	xchg   %ax,%ax
  101815:	66 90                	xchg   %ax,%ax
  101817:	66 90                	xchg   %ax,%ax
  101819:	66 90                	xchg   %ax,%ax
  10181b:	66 90                	xchg   %ax,%ax
  10181d:	66 90                	xchg   %ax,%ax
  10181f:	66 90                	xchg   %ax,%ax
  101821:	66 90                	xchg   %ax,%ax
  101823:	66 90                	xchg   %ax,%ax
  101825:	66 90                	xchg   %ax,%ax
  101827:	66 90                	xchg   %ax,%ax
  101829:	66 90                	xchg   %ax,%ax
  10182b:	66 90                	xchg   %ax,%ax
  10182d:	66 90                	xchg   %ax,%ax
  10182f:	66 90                	xchg   %ax,%ax
  101831:	66 90                	xchg   %ax,%ax
  101833:	66 90                	xchg   %ax,%ax
  101835:	66 90                	xchg   %ax,%ax
  101837:	66 90                	xchg   %ax,%ax
  101839:	66 90                	xchg   %ax,%ax
  10183b:	66 90                	xchg   %ax,%ax
  10183d:	66 90                	xchg   %ax,%ax
  10183f:	66 90                	xchg   %ax,%ax
  101841:	66 90                	xchg   %ax,%ax
  101843:	66 90                	xchg   %ax,%ax
  101845:	66 90                	xchg   %ax,%ax
  101847:	66 90                	xchg   %ax,%ax
  101849:	66 90                	xchg   %ax,%ax
  10184b:	66 90                	xchg   %ax,%ax
  10184d:	66 90                	xchg   %ax,%ax
  10184f:	66 90                	xchg   %ax,%ax
  101851:	66 90                	xchg   %ax,%ax
  101853:	66 90                	xchg   %ax,%ax
  101855:	66 90                	xchg   %ax,%ax
  101857:	66 90                	xchg   %ax,%ax
  101859:	66 90                	xchg   %ax,%ax
  10185b:	66 90                	xchg   %ax,%ax
  10185d:	66 90                	xchg   %ax,%ax
  10185f:	66 90                	xchg   %ax,%ax
  101861:	66 90                	xchg   %ax,%ax
  101863:	66 90                	xchg   %ax,%ax
  101865:	66 90                	xchg   %ax,%ax
  101867:	66 90                	xchg   %ax,%ax
  101869:	66 90                	xchg   %ax,%ax
  10186b:	66 90                	xchg   %ax,%ax
  10186d:	66 90                	xchg   %ax,%ax
  10186f:	66 90                	xchg   %ax,%ax
  101871:	66 90                	xchg   %ax,%ax
  101873:	66 90                	xchg   %ax,%ax
  101875:	66 90                	xchg   %ax,%ax
  101877:	66 90                	xchg   %ax,%ax
  101879:	66 90                	xchg   %ax,%ax
  10187b:	66 90                	xchg   %ax,%ax
  10187d:	66 90                	xchg   %ax,%ax
  10187f:	66 90                	xchg   %ax,%ax
  101881:	66 90                	xchg   %ax,%ax
  101883:	66 90                	xchg   %ax,%ax
  101885:	66 90                	xchg   %ax,%ax
  101887:	66 90                	xchg   %ax,%ax
  101889:	66 90                	xchg   %ax,%ax
  10188b:	66 90                	xchg   %ax,%ax
  10188d:	66 90                	xchg   %ax,%ax
  10188f:	66 90                	xchg   %ax,%ax
  101891:	66 90                	xchg   %ax,%ax
  101893:	66 90                	xchg   %ax,%ax
  101895:	66 90                	xchg   %ax,%ax
  101897:	66 90                	xchg   %ax,%ax
  101899:	66 90                	xchg   %ax,%ax
  10189b:	66 90                	xchg   %ax,%ax
  10189d:	66 90                	xchg   %ax,%ax
  10189f:	66 90                	xchg   %ax,%ax
  1018a1:	66 90                	xchg   %ax,%ax
  1018a3:	66 90                	xchg   %ax,%ax
  1018a5:	66 90                	xchg   %ax,%ax
  1018a7:	66 90                	xchg   %ax,%ax
  1018a9:	66 90                	xchg   %ax,%ax
  1018ab:	66 90                	xchg   %ax,%ax
  1018ad:	66 90                	xchg   %ax,%ax
  1018af:	66 90                	xchg   %ax,%ax
  1018b1:	66 90                	xchg   %ax,%ax
  1018b3:	66 90                	xchg   %ax,%ax
  1018b5:	66 90                	xchg   %ax,%ax
  1018b7:	66 90                	xchg   %ax,%ax
  1018b9:	66 90                	xchg   %ax,%ax
  1018bb:	66 90                	xchg   %ax,%ax
  1018bd:	66 90                	xchg   %ax,%ax
  1018bf:	66 90                	xchg   %ax,%ax
  1018c1:	66 90                	xchg   %ax,%ax
  1018c3:	66 90                	xchg   %ax,%ax
  1018c5:	66 90                	xchg   %ax,%ax
  1018c7:	66 90                	xchg   %ax,%ax
  1018c9:	66 90                	xchg   %ax,%ax
  1018cb:	66 90                	xchg   %ax,%ax
  1018cd:	66 90                	xchg   %ax,%ax
  1018cf:	66 90                	xchg   %ax,%ax
  1018d1:	66 90                	xchg   %ax,%ax
  1018d3:	66 90                	xchg   %ax,%ax
  1018d5:	66 90                	xchg   %ax,%ax
  1018d7:	66 90                	xchg   %ax,%ax
  1018d9:	66 90                	xchg   %ax,%ax
  1018db:	66 90                	xchg   %ax,%ax
  1018dd:	66 90                	xchg   %ax,%ax
  1018df:	66 90                	xchg   %ax,%ax
  1018e1:	66 90                	xchg   %ax,%ax
  1018e3:	66 90                	xchg   %ax,%ax
  1018e5:	66 90                	xchg   %ax,%ax
  1018e7:	66 90                	xchg   %ax,%ax
  1018e9:	66 90                	xchg   %ax,%ax
  1018eb:	66 90                	xchg   %ax,%ax
  1018ed:	66 90                	xchg   %ax,%ax
  1018ef:	66 90                	xchg   %ax,%ax
  1018f1:	66 90                	xchg   %ax,%ax
  1018f3:	66 90                	xchg   %ax,%ax
  1018f5:	66 90                	xchg   %ax,%ax
  1018f7:	66 90                	xchg   %ax,%ax
  1018f9:	66 90                	xchg   %ax,%ax
  1018fb:	66 90                	xchg   %ax,%ax
  1018fd:	66 90                	xchg   %ax,%ax
  1018ff:	66 90                	xchg   %ax,%ax
  101901:	66 90                	xchg   %ax,%ax
  101903:	66 90                	xchg   %ax,%ax
  101905:	66 90                	xchg   %ax,%ax
  101907:	66 90                	xchg   %ax,%ax
  101909:	66 90                	xchg   %ax,%ax
  10190b:	66 90                	xchg   %ax,%ax
  10190d:	66 90                	xchg   %ax,%ax
  10190f:	66 90                	xchg   %ax,%ax
  101911:	66 90                	xchg   %ax,%ax
  101913:	66 90                	xchg   %ax,%ax
  101915:	66 90                	xchg   %ax,%ax
  101917:	66 90                	xchg   %ax,%ax
  101919:	66 90                	xchg   %ax,%ax
  10191b:	66 90                	xchg   %ax,%ax
  10191d:	66 90                	xchg   %ax,%ax
  10191f:	66 90                	xchg   %ax,%ax
  101921:	66 90                	xchg   %ax,%ax
  101923:	66 90                	xchg   %ax,%ax
  101925:	66 90                	xchg   %ax,%ax
  101927:	66 90                	xchg   %ax,%ax
  101929:	66 90                	xchg   %ax,%ax
  10192b:	66 90                	xchg   %ax,%ax
  10192d:	66 90                	xchg   %ax,%ax
  10192f:	66 90                	xchg   %ax,%ax
  101931:	66 90                	xchg   %ax,%ax
  101933:	66 90                	xchg   %ax,%ax
  101935:	66 90                	xchg   %ax,%ax
  101937:	66 90                	xchg   %ax,%ax
  101939:	66 90                	xchg   %ax,%ax
  10193b:	66 90                	xchg   %ax,%ax
  10193d:	66 90                	xchg   %ax,%ax
  10193f:	66 90                	xchg   %ax,%ax
  101941:	66 90                	xchg   %ax,%ax
  101943:	66 90                	xchg   %ax,%ax
  101945:	66 90                	xchg   %ax,%ax
  101947:	66 90                	xchg   %ax,%ax
  101949:	66 90                	xchg   %ax,%ax
  10194b:	66 90                	xchg   %ax,%ax
  10194d:	66 90                	xchg   %ax,%ax
  10194f:	66 90                	xchg   %ax,%ax
  101951:	66 90                	xchg   %ax,%ax
  101953:	66 90                	xchg   %ax,%ax
  101955:	66 90                	xchg   %ax,%ax
  101957:	66 90                	xchg   %ax,%ax
  101959:	66 90                	xchg   %ax,%ax
  10195b:	66 90                	xchg   %ax,%ax
  10195d:	66 90                	xchg   %ax,%ax
  10195f:	66 90                	xchg   %ax,%ax
  101961:	66 90                	xchg   %ax,%ax
  101963:	66 90                	xchg   %ax,%ax
  101965:	66 90                	xchg   %ax,%ax
  101967:	66 90                	xchg   %ax,%ax
  101969:	66 90                	xchg   %ax,%ax
  10196b:	66 90                	xchg   %ax,%ax
  10196d:	66 90                	xchg   %ax,%ax
  10196f:	66 90                	xchg   %ax,%ax
  101971:	66 90                	xchg   %ax,%ax
  101973:	66 90                	xchg   %ax,%ax
  101975:	66 90                	xchg   %ax,%ax
  101977:	66 90                	xchg   %ax,%ax
  101979:	66 90                	xchg   %ax,%ax
  10197b:	66 90                	xchg   %ax,%ax
  10197d:	66 90                	xchg   %ax,%ax
  10197f:	66 90                	xchg   %ax,%ax
  101981:	66 90                	xchg   %ax,%ax
  101983:	66 90                	xchg   %ax,%ax
  101985:	66 90                	xchg   %ax,%ax
  101987:	66 90                	xchg   %ax,%ax
  101989:	66 90                	xchg   %ax,%ax
  10198b:	66 90                	xchg   %ax,%ax
  10198d:	66 90                	xchg   %ax,%ax
  10198f:	66 90                	xchg   %ax,%ax
  101991:	66 90                	xchg   %ax,%ax
  101993:	66 90                	xchg   %ax,%ax
  101995:	66 90                	xchg   %ax,%ax
  101997:	66 90                	xchg   %ax,%ax
  101999:	66 90                	xchg   %ax,%ax
  10199b:	66 90                	xchg   %ax,%ax
  10199d:	66 90                	xchg   %ax,%ax
  10199f:	66 90                	xchg   %ax,%ax
  1019a1:	66 90                	xchg   %ax,%ax
  1019a3:	66 90                	xchg   %ax,%ax
  1019a5:	66 90                	xchg   %ax,%ax
  1019a7:	66 90                	xchg   %ax,%ax
  1019a9:	66 90                	xchg   %ax,%ax
  1019ab:	66 90                	xchg   %ax,%ax
  1019ad:	66 90                	xchg   %ax,%ax
  1019af:	66 90                	xchg   %ax,%ax
  1019b1:	66 90                	xchg   %ax,%ax
  1019b3:	66 90                	xchg   %ax,%ax
  1019b5:	66 90                	xchg   %ax,%ax
  1019b7:	66 90                	xchg   %ax,%ax
  1019b9:	66 90                	xchg   %ax,%ax
  1019bb:	66 90                	xchg   %ax,%ax
  1019bd:	66 90                	xchg   %ax,%ax
  1019bf:	66 90                	xchg   %ax,%ax
  1019c1:	66 90                	xchg   %ax,%ax
  1019c3:	66 90                	xchg   %ax,%ax
  1019c5:	66 90                	xchg   %ax,%ax
  1019c7:	66 90                	xchg   %ax,%ax
  1019c9:	66 90                	xchg   %ax,%ax
  1019cb:	66 90                	xchg   %ax,%ax
  1019cd:	66 90                	xchg   %ax,%ax
  1019cf:	66 90                	xchg   %ax,%ax
  1019d1:	66 90                	xchg   %ax,%ax
  1019d3:	66 90                	xchg   %ax,%ax
  1019d5:	66 90                	xchg   %ax,%ax
  1019d7:	66 90                	xchg   %ax,%ax
  1019d9:	66 90                	xchg   %ax,%ax
  1019db:	66 90                	xchg   %ax,%ax
  1019dd:	66 90                	xchg   %ax,%ax
  1019df:	66 90                	xchg   %ax,%ax
  1019e1:	66 90                	xchg   %ax,%ax
  1019e3:	66 90                	xchg   %ax,%ax
  1019e5:	66 90                	xchg   %ax,%ax
  1019e7:	66 90                	xchg   %ax,%ax
  1019e9:	66 90                	xchg   %ax,%ax
  1019eb:	66 90                	xchg   %ax,%ax
  1019ed:	66 90                	xchg   %ax,%ax
  1019ef:	66 90                	xchg   %ax,%ax
  1019f1:	66 90                	xchg   %ax,%ax
  1019f3:	66 90                	xchg   %ax,%ax
  1019f5:	66 90                	xchg   %ax,%ax
  1019f7:	66 90                	xchg   %ax,%ax
  1019f9:	66 90                	xchg   %ax,%ax
  1019fb:	66 90                	xchg   %ax,%ax
  1019fd:	66 90                	xchg   %ax,%ax
  1019ff:	66 90                	xchg   %ax,%ax
  101a01:	66 90                	xchg   %ax,%ax
  101a03:	66 90                	xchg   %ax,%ax
  101a05:	66 90                	xchg   %ax,%ax
  101a07:	66 90                	xchg   %ax,%ax
  101a09:	66 90                	xchg   %ax,%ax
  101a0b:	66 90                	xchg   %ax,%ax
  101a0d:	66 90                	xchg   %ax,%ax
  101a0f:	66 90                	xchg   %ax,%ax
  101a11:	66 90                	xchg   %ax,%ax
  101a13:	66 90                	xchg   %ax,%ax
  101a15:	66 90                	xchg   %ax,%ax
  101a17:	66 90                	xchg   %ax,%ax
  101a19:	66 90                	xchg   %ax,%ax
  101a1b:	66 90                	xchg   %ax,%ax
  101a1d:	66 90                	xchg   %ax,%ax
  101a1f:	66 90                	xchg   %ax,%ax
  101a21:	66 90                	xchg   %ax,%ax
  101a23:	66 90                	xchg   %ax,%ax
  101a25:	66 90                	xchg   %ax,%ax
  101a27:	66 90                	xchg   %ax,%ax
  101a29:	66 90                	xchg   %ax,%ax
  101a2b:	66 90                	xchg   %ax,%ax
  101a2d:	66 90                	xchg   %ax,%ax
  101a2f:	66 90                	xchg   %ax,%ax
  101a31:	66 90                	xchg   %ax,%ax
  101a33:	66 90                	xchg   %ax,%ax
  101a35:	66 90                	xchg   %ax,%ax
  101a37:	66 90                	xchg   %ax,%ax
  101a39:	66 90                	xchg   %ax,%ax
  101a3b:	66 90                	xchg   %ax,%ax
  101a3d:	66 90                	xchg   %ax,%ax
  101a3f:	66 90                	xchg   %ax,%ax
  101a41:	66 90                	xchg   %ax,%ax
  101a43:	66 90                	xchg   %ax,%ax
  101a45:	66 90                	xchg   %ax,%ax
  101a47:	66 90                	xchg   %ax,%ax
  101a49:	66 90                	xchg   %ax,%ax
  101a4b:	66 90                	xchg   %ax,%ax
  101a4d:	66 90                	xchg   %ax,%ax
  101a4f:	66 90                	xchg   %ax,%ax
  101a51:	66 90                	xchg   %ax,%ax
  101a53:	66 90                	xchg   %ax,%ax
  101a55:	66 90                	xchg   %ax,%ax
  101a57:	66 90                	xchg   %ax,%ax
  101a59:	66 90                	xchg   %ax,%ax
  101a5b:	66 90                	xchg   %ax,%ax
  101a5d:	66 90                	xchg   %ax,%ax
  101a5f:	66 90                	xchg   %ax,%ax
  101a61:	66 90                	xchg   %ax,%ax
  101a63:	66 90                	xchg   %ax,%ax
  101a65:	66 90                	xchg   %ax,%ax
  101a67:	66 90                	xchg   %ax,%ax
  101a69:	66 90                	xchg   %ax,%ax
  101a6b:	66 90                	xchg   %ax,%ax
  101a6d:	66 90                	xchg   %ax,%ax
  101a6f:	66 90                	xchg   %ax,%ax
  101a71:	66 90                	xchg   %ax,%ax
  101a73:	66 90                	xchg   %ax,%ax
  101a75:	66 90                	xchg   %ax,%ax
  101a77:	66 90                	xchg   %ax,%ax
  101a79:	66 90                	xchg   %ax,%ax
  101a7b:	66 90                	xchg   %ax,%ax
  101a7d:	66 90                	xchg   %ax,%ax
  101a7f:	66 90                	xchg   %ax,%ax
  101a81:	66 90                	xchg   %ax,%ax
  101a83:	66 90                	xchg   %ax,%ax
  101a85:	66 90                	xchg   %ax,%ax
  101a87:	66 90                	xchg   %ax,%ax
  101a89:	66 90                	xchg   %ax,%ax
  101a8b:	66 90                	xchg   %ax,%ax
  101a8d:	66 90                	xchg   %ax,%ax
  101a8f:	66 90                	xchg   %ax,%ax
  101a91:	66 90                	xchg   %ax,%ax
  101a93:	66 90                	xchg   %ax,%ax
  101a95:	66 90                	xchg   %ax,%ax
  101a97:	66 90                	xchg   %ax,%ax
  101a99:	66 90                	xchg   %ax,%ax
  101a9b:	66 90                	xchg   %ax,%ax
  101a9d:	66 90                	xchg   %ax,%ax
  101a9f:	66 90                	xchg   %ax,%ax
  101aa1:	66 90                	xchg   %ax,%ax
  101aa3:	66 90                	xchg   %ax,%ax
  101aa5:	66 90                	xchg   %ax,%ax
  101aa7:	66 90                	xchg   %ax,%ax
  101aa9:	66 90                	xchg   %ax,%ax
  101aab:	66 90                	xchg   %ax,%ax
  101aad:	66 90                	xchg   %ax,%ax
  101aaf:	66 90                	xchg   %ax,%ax
  101ab1:	66 90                	xchg   %ax,%ax
  101ab3:	66 90                	xchg   %ax,%ax
  101ab5:	66 90                	xchg   %ax,%ax
  101ab7:	66 90                	xchg   %ax,%ax
  101ab9:	66 90                	xchg   %ax,%ax
  101abb:	66 90                	xchg   %ax,%ax
  101abd:	66 90                	xchg   %ax,%ax
  101abf:	66 90                	xchg   %ax,%ax
  101ac1:	66 90                	xchg   %ax,%ax
  101ac3:	66 90                	xchg   %ax,%ax
  101ac5:	66 90                	xchg   %ax,%ax
  101ac7:	66 90                	xchg   %ax,%ax
  101ac9:	66 90                	xchg   %ax,%ax
  101acb:	66 90                	xchg   %ax,%ax
  101acd:	66 90                	xchg   %ax,%ax
  101acf:	66 90                	xchg   %ax,%ax
  101ad1:	66 90                	xchg   %ax,%ax
  101ad3:	66 90                	xchg   %ax,%ax
  101ad5:	66 90                	xchg   %ax,%ax
  101ad7:	66 90                	xchg   %ax,%ax
  101ad9:	66 90                	xchg   %ax,%ax
  101adb:	66 90                	xchg   %ax,%ax
  101add:	66 90                	xchg   %ax,%ax
  101adf:	66 90                	xchg   %ax,%ax
  101ae1:	66 90                	xchg   %ax,%ax
  101ae3:	66 90                	xchg   %ax,%ax
  101ae5:	66 90                	xchg   %ax,%ax
  101ae7:	66 90                	xchg   %ax,%ax
  101ae9:	66 90                	xchg   %ax,%ax
  101aeb:	66 90                	xchg   %ax,%ax
  101aed:	66 90                	xchg   %ax,%ax
  101aef:	66 90                	xchg   %ax,%ax
  101af1:	66 90                	xchg   %ax,%ax
  101af3:	66 90                	xchg   %ax,%ax
  101af5:	66 90                	xchg   %ax,%ax
  101af7:	66 90                	xchg   %ax,%ax
  101af9:	66 90                	xchg   %ax,%ax
  101afb:	66 90                	xchg   %ax,%ax
  101afd:	66 90                	xchg   %ax,%ax
  101aff:	66 90                	xchg   %ax,%ax
  101b01:	66 90                	xchg   %ax,%ax
  101b03:	66 90                	xchg   %ax,%ax
  101b05:	66 90                	xchg   %ax,%ax
  101b07:	66 90                	xchg   %ax,%ax
  101b09:	66 90                	xchg   %ax,%ax
  101b0b:	66 90                	xchg   %ax,%ax
  101b0d:	66 90                	xchg   %ax,%ax
  101b0f:	66 90                	xchg   %ax,%ax
  101b11:	66 90                	xchg   %ax,%ax
  101b13:	66 90                	xchg   %ax,%ax
  101b15:	66 90                	xchg   %ax,%ax
  101b17:	66 90                	xchg   %ax,%ax
  101b19:	66 90                	xchg   %ax,%ax
  101b1b:	66 90                	xchg   %ax,%ax
  101b1d:	66 90                	xchg   %ax,%ax
  101b1f:	66 90                	xchg   %ax,%ax
  101b21:	66 90                	xchg   %ax,%ax
  101b23:	66 90                	xchg   %ax,%ax
  101b25:	66 90                	xchg   %ax,%ax
  101b27:	66 90                	xchg   %ax,%ax
  101b29:	66 90                	xchg   %ax,%ax
  101b2b:	66 90                	xchg   %ax,%ax
  101b2d:	66 90                	xchg   %ax,%ax
  101b2f:	66 90                	xchg   %ax,%ax
  101b31:	66 90                	xchg   %ax,%ax
  101b33:	66 90                	xchg   %ax,%ax
  101b35:	66 90                	xchg   %ax,%ax
  101b37:	66 90                	xchg   %ax,%ax
  101b39:	66 90                	xchg   %ax,%ax
  101b3b:	66 90                	xchg   %ax,%ax
  101b3d:	66 90                	xchg   %ax,%ax
  101b3f:	66 90                	xchg   %ax,%ax
  101b41:	66 90                	xchg   %ax,%ax
  101b43:	66 90                	xchg   %ax,%ax
  101b45:	66 90                	xchg   %ax,%ax
  101b47:	66 90                	xchg   %ax,%ax
  101b49:	66 90                	xchg   %ax,%ax
  101b4b:	66 90                	xchg   %ax,%ax
  101b4d:	66 90                	xchg   %ax,%ax
  101b4f:	66 90                	xchg   %ax,%ax
  101b51:	66 90                	xchg   %ax,%ax
  101b53:	66 90                	xchg   %ax,%ax
  101b55:	66 90                	xchg   %ax,%ax
  101b57:	66 90                	xchg   %ax,%ax
  101b59:	66 90                	xchg   %ax,%ax
  101b5b:	66 90                	xchg   %ax,%ax
  101b5d:	66 90                	xchg   %ax,%ax
  101b5f:	66 90                	xchg   %ax,%ax
  101b61:	66 90                	xchg   %ax,%ax
  101b63:	66 90                	xchg   %ax,%ax
  101b65:	66 90                	xchg   %ax,%ax
  101b67:	66 90                	xchg   %ax,%ax
  101b69:	66 90                	xchg   %ax,%ax
  101b6b:	66 90                	xchg   %ax,%ax
  101b6d:	66 90                	xchg   %ax,%ax
  101b6f:	66 90                	xchg   %ax,%ax
  101b71:	66 90                	xchg   %ax,%ax
  101b73:	66 90                	xchg   %ax,%ax
  101b75:	66 90                	xchg   %ax,%ax
  101b77:	66 90                	xchg   %ax,%ax
  101b79:	66 90                	xchg   %ax,%ax
  101b7b:	66 90                	xchg   %ax,%ax
  101b7d:	66 90                	xchg   %ax,%ax
  101b7f:	66 90                	xchg   %ax,%ax
  101b81:	66 90                	xchg   %ax,%ax
  101b83:	66 90                	xchg   %ax,%ax
  101b85:	66 90                	xchg   %ax,%ax
  101b87:	66 90                	xchg   %ax,%ax
  101b89:	66 90                	xchg   %ax,%ax
  101b8b:	66 90                	xchg   %ax,%ax
  101b8d:	66 90                	xchg   %ax,%ax
  101b8f:	66 90                	xchg   %ax,%ax
  101b91:	66 90                	xchg   %ax,%ax
  101b93:	66 90                	xchg   %ax,%ax
  101b95:	66 90                	xchg   %ax,%ax
  101b97:	66 90                	xchg   %ax,%ax
  101b99:	66 90                	xchg   %ax,%ax
  101b9b:	66 90                	xchg   %ax,%ax
  101b9d:	66 90                	xchg   %ax,%ax
  101b9f:	66 90                	xchg   %ax,%ax
  101ba1:	66 90                	xchg   %ax,%ax
  101ba3:	66 90                	xchg   %ax,%ax
  101ba5:	66 90                	xchg   %ax,%ax
  101ba7:	66 90                	xchg   %ax,%ax
  101ba9:	66 90                	xchg   %ax,%ax
  101bab:	66 90                	xchg   %ax,%ax
  101bad:	66 90                	xchg   %ax,%ax
  101baf:	66 90                	xchg   %ax,%ax
  101bb1:	66 90                	xchg   %ax,%ax
  101bb3:	66 90                	xchg   %ax,%ax
  101bb5:	66 90                	xchg   %ax,%ax
  101bb7:	66 90                	xchg   %ax,%ax
  101bb9:	66 90                	xchg   %ax,%ax
  101bbb:	66 90                	xchg   %ax,%ax
  101bbd:	66 90                	xchg   %ax,%ax
  101bbf:	66 90                	xchg   %ax,%ax
  101bc1:	66 90                	xchg   %ax,%ax
  101bc3:	66 90                	xchg   %ax,%ax
  101bc5:	66 90                	xchg   %ax,%ax
  101bc7:	66 90                	xchg   %ax,%ax
  101bc9:	66 90                	xchg   %ax,%ax
  101bcb:	66 90                	xchg   %ax,%ax
  101bcd:	66 90                	xchg   %ax,%ax
  101bcf:	66 90                	xchg   %ax,%ax
  101bd1:	66 90                	xchg   %ax,%ax
  101bd3:	66 90                	xchg   %ax,%ax
  101bd5:	66 90                	xchg   %ax,%ax
  101bd7:	66 90                	xchg   %ax,%ax
  101bd9:	66 90                	xchg   %ax,%ax
  101bdb:	66 90                	xchg   %ax,%ax
  101bdd:	66 90                	xchg   %ax,%ax
  101bdf:	66 90                	xchg   %ax,%ax
  101be1:	66 90                	xchg   %ax,%ax
  101be3:	66 90                	xchg   %ax,%ax
  101be5:	66 90                	xchg   %ax,%ax
  101be7:	66 90                	xchg   %ax,%ax
  101be9:	66 90                	xchg   %ax,%ax
  101beb:	66 90                	xchg   %ax,%ax
  101bed:	66 90                	xchg   %ax,%ax
  101bef:	66 90                	xchg   %ax,%ax
  101bf1:	66 90                	xchg   %ax,%ax
  101bf3:	66 90                	xchg   %ax,%ax
  101bf5:	66 90                	xchg   %ax,%ax
  101bf7:	66 90                	xchg   %ax,%ax
  101bf9:	66 90                	xchg   %ax,%ax
  101bfb:	66 90                	xchg   %ax,%ax
  101bfd:	66 90                	xchg   %ax,%ax
  101bff:	66 90                	xchg   %ax,%ax
  101c01:	66 90                	xchg   %ax,%ax
  101c03:	66 90                	xchg   %ax,%ax
  101c05:	66 90                	xchg   %ax,%ax
  101c07:	66 90                	xchg   %ax,%ax
  101c09:	66 90                	xchg   %ax,%ax
  101c0b:	66 90                	xchg   %ax,%ax
  101c0d:	66 90                	xchg   %ax,%ax
  101c0f:	66 90                	xchg   %ax,%ax
  101c11:	66 90                	xchg   %ax,%ax
  101c13:	66 90                	xchg   %ax,%ax
  101c15:	66 90                	xchg   %ax,%ax
  101c17:	66 90                	xchg   %ax,%ax
  101c19:	66 90                	xchg   %ax,%ax
  101c1b:	66 90                	xchg   %ax,%ax
  101c1d:	66 90                	xchg   %ax,%ax
  101c1f:	66 90                	xchg   %ax,%ax
  101c21:	66 90                	xchg   %ax,%ax
  101c23:	66 90                	xchg   %ax,%ax
  101c25:	66 90                	xchg   %ax,%ax
  101c27:	66 90                	xchg   %ax,%ax
  101c29:	66 90                	xchg   %ax,%ax
  101c2b:	66 90                	xchg   %ax,%ax
  101c2d:	66 90                	xchg   %ax,%ax
  101c2f:	66 90                	xchg   %ax,%ax
  101c31:	66 90                	xchg   %ax,%ax
  101c33:	66 90                	xchg   %ax,%ax
  101c35:	66 90                	xchg   %ax,%ax
  101c37:	66 90                	xchg   %ax,%ax
  101c39:	66 90                	xchg   %ax,%ax
  101c3b:	66 90                	xchg   %ax,%ax
  101c3d:	66 90                	xchg   %ax,%ax
  101c3f:	66 90                	xchg   %ax,%ax
  101c41:	66 90                	xchg   %ax,%ax
  101c43:	66 90                	xchg   %ax,%ax
  101c45:	66 90                	xchg   %ax,%ax
  101c47:	66 90                	xchg   %ax,%ax
  101c49:	66 90                	xchg   %ax,%ax
  101c4b:	66 90                	xchg   %ax,%ax
  101c4d:	66 90                	xchg   %ax,%ax
  101c4f:	66 90                	xchg   %ax,%ax
  101c51:	66 90                	xchg   %ax,%ax
  101c53:	66 90                	xchg   %ax,%ax
  101c55:	66 90                	xchg   %ax,%ax
  101c57:	66 90                	xchg   %ax,%ax
  101c59:	66 90                	xchg   %ax,%ax
  101c5b:	66 90                	xchg   %ax,%ax
  101c5d:	66 90                	xchg   %ax,%ax
  101c5f:	66 90                	xchg   %ax,%ax
  101c61:	66 90                	xchg   %ax,%ax
  101c63:	66 90                	xchg   %ax,%ax
  101c65:	66 90                	xchg   %ax,%ax
  101c67:	66 90                	xchg   %ax,%ax
  101c69:	66 90                	xchg   %ax,%ax
  101c6b:	66 90                	xchg   %ax,%ax
  101c6d:	66 90                	xchg   %ax,%ax
  101c6f:	66 90                	xchg   %ax,%ax
  101c71:	66 90                	xchg   %ax,%ax
  101c73:	66 90                	xchg   %ax,%ax
  101c75:	66 90                	xchg   %ax,%ax
  101c77:	66 90                	xchg   %ax,%ax
  101c79:	66 90                	xchg   %ax,%ax
  101c7b:	66 90                	xchg   %ax,%ax
  101c7d:	66 90                	xchg   %ax,%ax
  101c7f:	66 90                	xchg   %ax,%ax
  101c81:	66 90                	xchg   %ax,%ax
  101c83:	66 90                	xchg   %ax,%ax
  101c85:	66 90                	xchg   %ax,%ax
  101c87:	66 90                	xchg   %ax,%ax
  101c89:	66 90                	xchg   %ax,%ax
  101c8b:	66 90                	xchg   %ax,%ax
  101c8d:	66 90                	xchg   %ax,%ax
  101c8f:	66 90                	xchg   %ax,%ax
  101c91:	66 90                	xchg   %ax,%ax
  101c93:	66 90                	xchg   %ax,%ax
  101c95:	66 90                	xchg   %ax,%ax
  101c97:	66 90                	xchg   %ax,%ax
  101c99:	66 90                	xchg   %ax,%ax
  101c9b:	66 90                	xchg   %ax,%ax
  101c9d:	66 90                	xchg   %ax,%ax
  101c9f:	66 90                	xchg   %ax,%ax
  101ca1:	66 90                	xchg   %ax,%ax
  101ca3:	66 90                	xchg   %ax,%ax
  101ca5:	66 90                	xchg   %ax,%ax
  101ca7:	66 90                	xchg   %ax,%ax
  101ca9:	66 90                	xchg   %ax,%ax
  101cab:	66 90                	xchg   %ax,%ax
  101cad:	66 90                	xchg   %ax,%ax
  101caf:	66 90                	xchg   %ax,%ax
  101cb1:	66 90                	xchg   %ax,%ax
  101cb3:	66 90                	xchg   %ax,%ax
  101cb5:	66 90                	xchg   %ax,%ax
  101cb7:	66 90                	xchg   %ax,%ax
  101cb9:	66 90                	xchg   %ax,%ax
  101cbb:	66 90                	xchg   %ax,%ax
  101cbd:	66 90                	xchg   %ax,%ax
  101cbf:	66 90                	xchg   %ax,%ax
  101cc1:	66 90                	xchg   %ax,%ax
  101cc3:	66 90                	xchg   %ax,%ax
  101cc5:	66 90                	xchg   %ax,%ax
  101cc7:	66 90                	xchg   %ax,%ax
  101cc9:	66 90                	xchg   %ax,%ax
  101ccb:	66 90                	xchg   %ax,%ax
  101ccd:	66 90                	xchg   %ax,%ax
  101ccf:	66 90                	xchg   %ax,%ax
  101cd1:	66 90                	xchg   %ax,%ax
  101cd3:	66 90                	xchg   %ax,%ax
  101cd5:	66 90                	xchg   %ax,%ax
  101cd7:	66 90                	xchg   %ax,%ax
  101cd9:	66 90                	xchg   %ax,%ax
  101cdb:	66 90                	xchg   %ax,%ax
  101cdd:	66 90                	xchg   %ax,%ax
  101cdf:	66 90                	xchg   %ax,%ax
  101ce1:	66 90                	xchg   %ax,%ax
  101ce3:	66 90                	xchg   %ax,%ax
  101ce5:	66 90                	xchg   %ax,%ax
  101ce7:	66 90                	xchg   %ax,%ax
  101ce9:	66 90                	xchg   %ax,%ax
  101ceb:	66 90                	xchg   %ax,%ax
  101ced:	66 90                	xchg   %ax,%ax
  101cef:	66 90                	xchg   %ax,%ax
  101cf1:	66 90                	xchg   %ax,%ax
  101cf3:	66 90                	xchg   %ax,%ax
  101cf5:	66 90                	xchg   %ax,%ax
  101cf7:	66 90                	xchg   %ax,%ax
  101cf9:	66 90                	xchg   %ax,%ax
  101cfb:	66 90                	xchg   %ax,%ax
  101cfd:	66 90                	xchg   %ax,%ax
  101cff:	66 90                	xchg   %ax,%ax
  101d01:	66 90                	xchg   %ax,%ax
  101d03:	66 90                	xchg   %ax,%ax
  101d05:	66 90                	xchg   %ax,%ax
  101d07:	66 90                	xchg   %ax,%ax
  101d09:	66 90                	xchg   %ax,%ax
  101d0b:	66 90                	xchg   %ax,%ax
  101d0d:	66 90                	xchg   %ax,%ax
  101d0f:	66 90                	xchg   %ax,%ax
  101d11:	66 90                	xchg   %ax,%ax
  101d13:	66 90                	xchg   %ax,%ax
  101d15:	66 90                	xchg   %ax,%ax
  101d17:	66 90                	xchg   %ax,%ax
  101d19:	66 90                	xchg   %ax,%ax
  101d1b:	66 90                	xchg   %ax,%ax
  101d1d:	66 90                	xchg   %ax,%ax
  101d1f:	66 90                	xchg   %ax,%ax
  101d21:	66 90                	xchg   %ax,%ax
  101d23:	66 90                	xchg   %ax,%ax
  101d25:	66 90                	xchg   %ax,%ax
  101d27:	66 90                	xchg   %ax,%ax
  101d29:	66 90                	xchg   %ax,%ax
  101d2b:	66 90                	xchg   %ax,%ax
  101d2d:	66 90                	xchg   %ax,%ax
  101d2f:	66 90                	xchg   %ax,%ax
  101d31:	66 90                	xchg   %ax,%ax
  101d33:	66 90                	xchg   %ax,%ax
  101d35:	66 90                	xchg   %ax,%ax
  101d37:	66 90                	xchg   %ax,%ax
  101d39:	66 90                	xchg   %ax,%ax
  101d3b:	66 90                	xchg   %ax,%ax
  101d3d:	66 90                	xchg   %ax,%ax
  101d3f:	66 90                	xchg   %ax,%ax
  101d41:	66 90                	xchg   %ax,%ax
  101d43:	66 90                	xchg   %ax,%ax
  101d45:	66 90                	xchg   %ax,%ax
  101d47:	66 90                	xchg   %ax,%ax
  101d49:	66 90                	xchg   %ax,%ax
  101d4b:	66 90                	xchg   %ax,%ax
  101d4d:	66 90                	xchg   %ax,%ax
  101d4f:	66 90                	xchg   %ax,%ax
  101d51:	66 90                	xchg   %ax,%ax
  101d53:	66 90                	xchg   %ax,%ax
  101d55:	66 90                	xchg   %ax,%ax
  101d57:	66 90                	xchg   %ax,%ax
  101d59:	66 90                	xchg   %ax,%ax
  101d5b:	66 90                	xchg   %ax,%ax
  101d5d:	66 90                	xchg   %ax,%ax
  101d5f:	66 90                	xchg   %ax,%ax
  101d61:	66 90                	xchg   %ax,%ax
  101d63:	66 90                	xchg   %ax,%ax
  101d65:	66 90                	xchg   %ax,%ax
  101d67:	66 90                	xchg   %ax,%ax
  101d69:	66 90                	xchg   %ax,%ax
  101d6b:	66 90                	xchg   %ax,%ax
  101d6d:	66 90                	xchg   %ax,%ax
  101d6f:	66 90                	xchg   %ax,%ax
  101d71:	66 90                	xchg   %ax,%ax
  101d73:	66 90                	xchg   %ax,%ax
  101d75:	66 90                	xchg   %ax,%ax
  101d77:	66 90                	xchg   %ax,%ax
  101d79:	66 90                	xchg   %ax,%ax
  101d7b:	66 90                	xchg   %ax,%ax
  101d7d:	66 90                	xchg   %ax,%ax
  101d7f:	66 90                	xchg   %ax,%ax
  101d81:	66 90                	xchg   %ax,%ax
  101d83:	66 90                	xchg   %ax,%ax
  101d85:	66 90                	xchg   %ax,%ax
  101d87:	66 90                	xchg   %ax,%ax
  101d89:	66 90                	xchg   %ax,%ax
  101d8b:	66 90                	xchg   %ax,%ax
  101d8d:	66 90                	xchg   %ax,%ax
  101d8f:	66 90                	xchg   %ax,%ax
  101d91:	66 90                	xchg   %ax,%ax
  101d93:	66 90                	xchg   %ax,%ax
  101d95:	66 90                	xchg   %ax,%ax
  101d97:	66 90                	xchg   %ax,%ax
  101d99:	66 90                	xchg   %ax,%ax
  101d9b:	66 90                	xchg   %ax,%ax
  101d9d:	66 90                	xchg   %ax,%ax
  101d9f:	66 90                	xchg   %ax,%ax
  101da1:	66 90                	xchg   %ax,%ax
  101da3:	66 90                	xchg   %ax,%ax
  101da5:	66 90                	xchg   %ax,%ax
  101da7:	66 90                	xchg   %ax,%ax
  101da9:	66 90                	xchg   %ax,%ax
  101dab:	66 90                	xchg   %ax,%ax
  101dad:	66 90                	xchg   %ax,%ax
  101daf:	66 90                	xchg   %ax,%ax
  101db1:	66 90                	xchg   %ax,%ax
  101db3:	66 90                	xchg   %ax,%ax
  101db5:	66 90                	xchg   %ax,%ax
  101db7:	66 90                	xchg   %ax,%ax
  101db9:	66 90                	xchg   %ax,%ax
  101dbb:	66 90                	xchg   %ax,%ax
  101dbd:	66 90                	xchg   %ax,%ax
  101dbf:	66 90                	xchg   %ax,%ax
  101dc1:	66 90                	xchg   %ax,%ax
  101dc3:	66 90                	xchg   %ax,%ax
  101dc5:	66 90                	xchg   %ax,%ax
  101dc7:	66 90                	xchg   %ax,%ax
  101dc9:	66 90                	xchg   %ax,%ax
  101dcb:	66 90                	xchg   %ax,%ax
  101dcd:	66 90                	xchg   %ax,%ax
  101dcf:	66 90                	xchg   %ax,%ax
  101dd1:	66 90                	xchg   %ax,%ax
  101dd3:	66 90                	xchg   %ax,%ax
  101dd5:	66 90                	xchg   %ax,%ax
  101dd7:	66 90                	xchg   %ax,%ax
  101dd9:	66 90                	xchg   %ax,%ax
  101ddb:	66 90                	xchg   %ax,%ax
  101ddd:	66 90                	xchg   %ax,%ax
  101ddf:	66 90                	xchg   %ax,%ax
  101de1:	66 90                	xchg   %ax,%ax
  101de3:	66 90                	xchg   %ax,%ax
  101de5:	66 90                	xchg   %ax,%ax
  101de7:	66 90                	xchg   %ax,%ax
  101de9:	66 90                	xchg   %ax,%ax
  101deb:	66 90                	xchg   %ax,%ax
  101ded:	66 90                	xchg   %ax,%ax
  101def:	66 90                	xchg   %ax,%ax
  101df1:	66 90                	xchg   %ax,%ax
  101df3:	66 90                	xchg   %ax,%ax
  101df5:	66 90                	xchg   %ax,%ax
  101df7:	66 90                	xchg   %ax,%ax
  101df9:	66 90                	xchg   %ax,%ax
  101dfb:	66 90                	xchg   %ax,%ax
  101dfd:	66 90                	xchg   %ax,%ax
  101dff:	66 90                	xchg   %ax,%ax
  101e01:	66 90                	xchg   %ax,%ax
  101e03:	66 90                	xchg   %ax,%ax
  101e05:	66 90                	xchg   %ax,%ax
  101e07:	66 90                	xchg   %ax,%ax
  101e09:	66 90                	xchg   %ax,%ax
  101e0b:	66 90                	xchg   %ax,%ax
  101e0d:	66 90                	xchg   %ax,%ax
  101e0f:	66 90                	xchg   %ax,%ax
  101e11:	66 90                	xchg   %ax,%ax
  101e13:	66 90                	xchg   %ax,%ax
  101e15:	66 90                	xchg   %ax,%ax
  101e17:	66 90                	xchg   %ax,%ax
  101e19:	66 90                	xchg   %ax,%ax
  101e1b:	66 90                	xchg   %ax,%ax
  101e1d:	66 90                	xchg   %ax,%ax
  101e1f:	66 90                	xchg   %ax,%ax
  101e21:	66 90                	xchg   %ax,%ax
  101e23:	66 90                	xchg   %ax,%ax
  101e25:	66 90                	xchg   %ax,%ax
  101e27:	66 90                	xchg   %ax,%ax
  101e29:	66 90                	xchg   %ax,%ax
  101e2b:	66 90                	xchg   %ax,%ax
  101e2d:	66 90                	xchg   %ax,%ax
  101e2f:	66 90                	xchg   %ax,%ax
  101e31:	66 90                	xchg   %ax,%ax
  101e33:	66 90                	xchg   %ax,%ax
  101e35:	66 90                	xchg   %ax,%ax
  101e37:	66 90                	xchg   %ax,%ax
  101e39:	66 90                	xchg   %ax,%ax
  101e3b:	66 90                	xchg   %ax,%ax
  101e3d:	66 90                	xchg   %ax,%ax
  101e3f:	66 90                	xchg   %ax,%ax
  101e41:	66 90                	xchg   %ax,%ax
  101e43:	66 90                	xchg   %ax,%ax
  101e45:	66 90                	xchg   %ax,%ax
  101e47:	66 90                	xchg   %ax,%ax
  101e49:	66 90                	xchg   %ax,%ax
  101e4b:	66 90                	xchg   %ax,%ax
  101e4d:	66 90                	xchg   %ax,%ax
  101e4f:	66 90                	xchg   %ax,%ax
  101e51:	66 90                	xchg   %ax,%ax
  101e53:	66 90                	xchg   %ax,%ax
  101e55:	66 90                	xchg   %ax,%ax
  101e57:	66 90                	xchg   %ax,%ax
  101e59:	66 90                	xchg   %ax,%ax
  101e5b:	66 90                	xchg   %ax,%ax
  101e5d:	66 90                	xchg   %ax,%ax
  101e5f:	66 90                	xchg   %ax,%ax
  101e61:	66 90                	xchg   %ax,%ax
  101e63:	66 90                	xchg   %ax,%ax
  101e65:	66 90                	xchg   %ax,%ax
  101e67:	66 90                	xchg   %ax,%ax
  101e69:	66 90                	xchg   %ax,%ax
  101e6b:	66 90                	xchg   %ax,%ax
  101e6d:	66 90                	xchg   %ax,%ax
  101e6f:	66 90                	xchg   %ax,%ax
  101e71:	66 90                	xchg   %ax,%ax
  101e73:	66 90                	xchg   %ax,%ax
  101e75:	66 90                	xchg   %ax,%ax
  101e77:	66 90                	xchg   %ax,%ax
  101e79:	66 90                	xchg   %ax,%ax
  101e7b:	66 90                	xchg   %ax,%ax
  101e7d:	66 90                	xchg   %ax,%ax
  101e7f:	66 90                	xchg   %ax,%ax
  101e81:	66 90                	xchg   %ax,%ax
  101e83:	66 90                	xchg   %ax,%ax
  101e85:	66 90                	xchg   %ax,%ax
  101e87:	66 90                	xchg   %ax,%ax
  101e89:	66 90                	xchg   %ax,%ax
  101e8b:	66 90                	xchg   %ax,%ax
  101e8d:	66 90                	xchg   %ax,%ax
  101e8f:	66 90                	xchg   %ax,%ax
  101e91:	66 90                	xchg   %ax,%ax
  101e93:	66 90                	xchg   %ax,%ax
  101e95:	66 90                	xchg   %ax,%ax
  101e97:	66 90                	xchg   %ax,%ax
  101e99:	66 90                	xchg   %ax,%ax
  101e9b:	66 90                	xchg   %ax,%ax
  101e9d:	66 90                	xchg   %ax,%ax
  101e9f:	66 90                	xchg   %ax,%ax
  101ea1:	66 90                	xchg   %ax,%ax
  101ea3:	66 90                	xchg   %ax,%ax
  101ea5:	66 90                	xchg   %ax,%ax
  101ea7:	66 90                	xchg   %ax,%ax
  101ea9:	66 90                	xchg   %ax,%ax
  101eab:	66 90                	xchg   %ax,%ax
  101ead:	66 90                	xchg   %ax,%ax
  101eaf:	66 90                	xchg   %ax,%ax
  101eb1:	66 90                	xchg   %ax,%ax
  101eb3:	66 90                	xchg   %ax,%ax
  101eb5:	66 90                	xchg   %ax,%ax
  101eb7:	66 90                	xchg   %ax,%ax
  101eb9:	66 90                	xchg   %ax,%ax
  101ebb:	66 90                	xchg   %ax,%ax
  101ebd:	66 90                	xchg   %ax,%ax
  101ebf:	66 90                	xchg   %ax,%ax
  101ec1:	66 90                	xchg   %ax,%ax
  101ec3:	66 90                	xchg   %ax,%ax
  101ec5:	66 90                	xchg   %ax,%ax
  101ec7:	66 90                	xchg   %ax,%ax
  101ec9:	66 90                	xchg   %ax,%ax
  101ecb:	66 90                	xchg   %ax,%ax
  101ecd:	66 90                	xchg   %ax,%ax
  101ecf:	66 90                	xchg   %ax,%ax
  101ed1:	66 90                	xchg   %ax,%ax
  101ed3:	66 90                	xchg   %ax,%ax
  101ed5:	66 90                	xchg   %ax,%ax
  101ed7:	66 90                	xchg   %ax,%ax
  101ed9:	66 90                	xchg   %ax,%ax
  101edb:	66 90                	xchg   %ax,%ax
  101edd:	66 90                	xchg   %ax,%ax
  101edf:	66 90                	xchg   %ax,%ax
  101ee1:	66 90                	xchg   %ax,%ax
  101ee3:	66 90                	xchg   %ax,%ax
  101ee5:	66 90                	xchg   %ax,%ax
  101ee7:	66 90                	xchg   %ax,%ax
  101ee9:	66 90                	xchg   %ax,%ax
  101eeb:	66 90                	xchg   %ax,%ax
  101eed:	66 90                	xchg   %ax,%ax
  101eef:	66 90                	xchg   %ax,%ax
  101ef1:	66 90                	xchg   %ax,%ax
  101ef3:	66 90                	xchg   %ax,%ax
  101ef5:	66 90                	xchg   %ax,%ax
  101ef7:	66 90                	xchg   %ax,%ax
  101ef9:	66 90                	xchg   %ax,%ax
  101efb:	66 90                	xchg   %ax,%ax
  101efd:	66 90                	xchg   %ax,%ax
  101eff:	66 90                	xchg   %ax,%ax
  101f01:	66 90                	xchg   %ax,%ax
  101f03:	66 90                	xchg   %ax,%ax
  101f05:	66 90                	xchg   %ax,%ax
  101f07:	66 90                	xchg   %ax,%ax
  101f09:	66 90                	xchg   %ax,%ax
  101f0b:	66 90                	xchg   %ax,%ax
  101f0d:	66 90                	xchg   %ax,%ax
  101f0f:	66 90                	xchg   %ax,%ax
  101f11:	66 90                	xchg   %ax,%ax
  101f13:	66 90                	xchg   %ax,%ax
  101f15:	66 90                	xchg   %ax,%ax
  101f17:	66 90                	xchg   %ax,%ax
  101f19:	66 90                	xchg   %ax,%ax
  101f1b:	66 90                	xchg   %ax,%ax
  101f1d:	66 90                	xchg   %ax,%ax
  101f1f:	66 90                	xchg   %ax,%ax
  101f21:	66 90                	xchg   %ax,%ax
  101f23:	66 90                	xchg   %ax,%ax
  101f25:	66 90                	xchg   %ax,%ax
  101f27:	66 90                	xchg   %ax,%ax
  101f29:	66 90                	xchg   %ax,%ax
  101f2b:	66 90                	xchg   %ax,%ax
  101f2d:	66 90                	xchg   %ax,%ax
  101f2f:	66 90                	xchg   %ax,%ax
  101f31:	66 90                	xchg   %ax,%ax
  101f33:	66 90                	xchg   %ax,%ax
  101f35:	66 90                	xchg   %ax,%ax
  101f37:	66 90                	xchg   %ax,%ax
  101f39:	66 90                	xchg   %ax,%ax
  101f3b:	66 90                	xchg   %ax,%ax
  101f3d:	66 90                	xchg   %ax,%ax
  101f3f:	66 90                	xchg   %ax,%ax
  101f41:	66 90                	xchg   %ax,%ax
  101f43:	66 90                	xchg   %ax,%ax
  101f45:	66 90                	xchg   %ax,%ax
  101f47:	66 90                	xchg   %ax,%ax
  101f49:	66 90                	xchg   %ax,%ax
  101f4b:	66 90                	xchg   %ax,%ax
  101f4d:	66 90                	xchg   %ax,%ax
  101f4f:	66 90                	xchg   %ax,%ax
  101f51:	66 90                	xchg   %ax,%ax
  101f53:	66 90                	xchg   %ax,%ax
  101f55:	66 90                	xchg   %ax,%ax
  101f57:	66 90                	xchg   %ax,%ax
  101f59:	66 90                	xchg   %ax,%ax
  101f5b:	66 90                	xchg   %ax,%ax
  101f5d:	66 90                	xchg   %ax,%ax
  101f5f:	66 90                	xchg   %ax,%ax
  101f61:	66 90                	xchg   %ax,%ax
  101f63:	66 90                	xchg   %ax,%ax
  101f65:	66 90                	xchg   %ax,%ax
  101f67:	66 90                	xchg   %ax,%ax
  101f69:	66 90                	xchg   %ax,%ax
  101f6b:	66 90                	xchg   %ax,%ax
  101f6d:	66 90                	xchg   %ax,%ax
  101f6f:	66 90                	xchg   %ax,%ax
  101f71:	66 90                	xchg   %ax,%ax
  101f73:	66 90                	xchg   %ax,%ax
  101f75:	66 90                	xchg   %ax,%ax
  101f77:	66 90                	xchg   %ax,%ax
  101f79:	66 90                	xchg   %ax,%ax
  101f7b:	66 90                	xchg   %ax,%ax
  101f7d:	66 90                	xchg   %ax,%ax
  101f7f:	66 90                	xchg   %ax,%ax
  101f81:	66 90                	xchg   %ax,%ax
  101f83:	66 90                	xchg   %ax,%ax
  101f85:	66 90                	xchg   %ax,%ax
  101f87:	66 90                	xchg   %ax,%ax
  101f89:	66 90                	xchg   %ax,%ax
  101f8b:	66 90                	xchg   %ax,%ax
  101f8d:	66 90                	xchg   %ax,%ax
  101f8f:	66 90                	xchg   %ax,%ax
  101f91:	66 90                	xchg   %ax,%ax
  101f93:	66 90                	xchg   %ax,%ax
  101f95:	66 90                	xchg   %ax,%ax
  101f97:	66 90                	xchg   %ax,%ax
  101f99:	66 90                	xchg   %ax,%ax
  101f9b:	66 90                	xchg   %ax,%ax
  101f9d:	66 90                	xchg   %ax,%ax
  101f9f:	66 90                	xchg   %ax,%ax
  101fa1:	66 90                	xchg   %ax,%ax
  101fa3:	66 90                	xchg   %ax,%ax
  101fa5:	66 90                	xchg   %ax,%ax
  101fa7:	66 90                	xchg   %ax,%ax
  101fa9:	66 90                	xchg   %ax,%ax
  101fab:	66 90                	xchg   %ax,%ax
  101fad:	66 90                	xchg   %ax,%ax
  101faf:	66 90                	xchg   %ax,%ax
  101fb1:	66 90                	xchg   %ax,%ax
  101fb3:	66 90                	xchg   %ax,%ax
  101fb5:	66 90                	xchg   %ax,%ax
  101fb7:	66 90                	xchg   %ax,%ax
  101fb9:	66 90                	xchg   %ax,%ax
  101fbb:	66 90                	xchg   %ax,%ax
  101fbd:	66 90                	xchg   %ax,%ax
  101fbf:	66 90                	xchg   %ax,%ax
  101fc1:	66 90                	xchg   %ax,%ax
  101fc3:	66 90                	xchg   %ax,%ax
  101fc5:	66 90                	xchg   %ax,%ax
  101fc7:	66 90                	xchg   %ax,%ax
  101fc9:	66 90                	xchg   %ax,%ax
  101fcb:	66 90                	xchg   %ax,%ax
  101fcd:	66 90                	xchg   %ax,%ax
  101fcf:	66 90                	xchg   %ax,%ax
  101fd1:	66 90                	xchg   %ax,%ax
  101fd3:	66 90                	xchg   %ax,%ax
  101fd5:	66 90                	xchg   %ax,%ax
  101fd7:	66 90                	xchg   %ax,%ax
  101fd9:	66 90                	xchg   %ax,%ax
  101fdb:	66 90                	xchg   %ax,%ax
  101fdd:	66 90                	xchg   %ax,%ax
  101fdf:	66 90                	xchg   %ax,%ax
  101fe1:	66 90                	xchg   %ax,%ax
  101fe3:	66 90                	xchg   %ax,%ax
  101fe5:	66 90                	xchg   %ax,%ax
  101fe7:	66 90                	xchg   %ax,%ax
  101fe9:	66 90                	xchg   %ax,%ax
  101feb:	66 90                	xchg   %ax,%ax
  101fed:	66 90                	xchg   %ax,%ax
  101fef:	66 90                	xchg   %ax,%ax
  101ff1:	66 90                	xchg   %ax,%ax
  101ff3:	66 90                	xchg   %ax,%ax
  101ff5:	66 90                	xchg   %ax,%ax
  101ff7:	66 90                	xchg   %ax,%ax
  101ff9:	66 90                	xchg   %ax,%ax
  101ffb:	66 90                	xchg   %ax,%ax
  101ffd:	66 90                	xchg   %ax,%ax
  101fff:	90                   	nop

Disassembly of section .data:

00102000 <video_memory>:
  102000:	00 80 0b 00 6d 62    	add    %al,0x626d000b(%eax)
  102006:	2d 3e 66 6c 61       	sub    $0x616c663e,%eax
  10200b:	67 73 20             	addr16 jae 10202e <video_memory+0x2e>
  10200e:	3d 20 25 78 0a       	cmp    $0xa782520,%eax
  102013:	00 6d 62             	add    %ch,0x62(%ebp)
  102016:	2d 3e 6e 75 6d       	sub    $0x6d756e3e,%eax
  10201b:	20 3d 20 25 75 0a    	and    %bh,0xa752520
  102021:	00 6d 62             	add    %ch,0x62(%ebp)
  102024:	2d 3e 73 69 7a       	sub    $0x7a69733e,%eax
  102029:	65 20 3d 20 25 75 0a 	and    %bh,%gs:0xa752520
  102030:	00 6d 62             	add    %ch,0x62(%ebp)
  102033:	2d 3e 61 64 64       	sub    $0x6464613e,%eax
  102038:	72 20                	jb     10205a <video_memory+0x5a>
  10203a:	3d 20 30 78 25       	cmp    $0x25783020,%eax
  10203f:	78 0a                	js     10204b <video_memory+0x4b>
  102041:	00 6d 62             	add    %ch,0x62(%ebp)
  102044:	2d 3e 73 68 6e       	sub    $0x6e68733e,%eax
  102049:	64 78 20             	fs js  10206c <video_memory+0x6c>
  10204c:	3d 20 25 75 0a       	cmp    $0xa752520,%eax
  102051:	00 2e                	add    %ch,(%esi)
  102053:	73 74                	jae    1020c9 <video_memory+0xc9>
  102055:	72 74                	jb     1020cb <video_memory+0xcb>
  102057:	61                   	popa   
  102058:	62 00                	bound  %eax,(%eax)
  10205a:	2e 73 79             	jae,pn 1020d6 <video_memory+0xd6>
  10205d:	6d                   	insl   (%dx),%es:(%edi)
  10205e:	74 61                	je     1020c1 <video_memory+0xc1>
  102060:	62 00                	bound  %eax,(%eax)
  102062:	25 64 3a 20 40       	and    $0x40203a64,%eax
  102067:	72 69                	jb     1020d2 <video_memory+0xd2>
  102069:	6e                   	outsb  %ds:(%esi),(%dx)
  10206a:	67 20 25             	and    %ah,(%di)
  10206d:	64 0a 00             	or     %fs:(%eax),%al
  102070:	25 64 3a 20 20       	and    $0x20203a64,%eax
  102075:	63 73 20             	arpl   %si,0x20(%ebx)
  102078:	3d 20 25 78 0a       	cmp    $0xa782520,%eax
  10207d:	00 25 64 3a 20 20    	add    %ah,0x20203a64
  102083:	64 73 20             	fs jae 1020a6 <video_memory+0xa6>
  102086:	3d 20 25 78 0a       	cmp    $0xa782520,%eax
  10208b:	00 25 64 3a 20 20    	add    %ah,0x20203a64
  102091:	65 73 20             	gs jae 1020b4 <video_memory+0xb4>
  102094:	3d 20 25 78 0a       	cmp    $0xa782520,%eax
  102099:	00 25 64 3a 20 20    	add    %ah,0x20203a64
  10209f:	73 73                	jae    102114 <video_memory+0x114>
  1020a1:	20 3d 20 25 78 0a    	and    %bh,0xa782520
  1020a7:	00 2a                	add    %ch,(%edx)
  1020a9:	2a 2a                	sub    (%edx),%ch
  1020ab:	20 53 79             	and    %dl,0x79(%ebx)
  1020ae:	73 74                	jae    102124 <video_memory+0x124>
  1020b0:	65 6d                	gs insl (%dx),%es:(%edi)
  1020b2:	20 70 61             	and    %dh,0x61(%eax)
  1020b5:	6e                   	outsb  %ds:(%esi),(%dx)
  1020b6:	69 63 3a 20 25 73 0a 	imul   $0xa732520,0x3a(%ebx),%esp
  1020bd:	00 2a                	add    %ch,(%edx)
  1020bf:	2a 2a                	sub    (%edx),%ch
  1020c1:	0a 00                	or     (%eax),%al
  1020c3:	20 20                	and    %ah,(%eax)
  1020c5:	20 5b 30             	and    %bl,0x30(%ebx)
  1020c8:	78 25                	js     1020ef <video_memory+0xef>
  1020ca:	78 5d                	js     102129 <video_memory+0x129>
  1020cc:	20 25 73 0a 00 00    	and    %ah,0xa73
  1020d2:	00 00                	add    %al,(%eax)
  1020d4:	30 31                	xor    %dh,(%ecx)
  1020d6:	32 33                	xor    (%ebx),%dh
  1020d8:	34 35                	xor    $0x35,%al
  1020da:	36 37                	ss aaa 
  1020dc:	38 39                	cmp    %bh,(%ecx)
  1020de:	41                   	inc    %ecx
  1020df:	42                   	inc    %edx
  1020e0:	43                   	inc    %ebx
  1020e1:	44                   	inc    %esp
  1020e2:	45                   	inc    %ebp
  1020e3:	46                   	inc    %esi
  1020e4:	47                   	inc    %edi
  1020e5:	48                   	dec    %eax
  1020e6:	49                   	dec    %ecx
  1020e7:	4a                   	dec    %edx
  1020e8:	4b                   	dec    %ebx
  1020e9:	4c                   	dec    %esp
  1020ea:	4d                   	dec    %ebp
  1020eb:	4e                   	dec    %esi
  1020ec:	4f                   	dec    %edi
  1020ed:	50                   	push   %eax
  1020ee:	51                   	push   %ecx
  1020ef:	52                   	push   %edx
  1020f0:	53                   	push   %ebx
  1020f1:	54                   	push   %esp
  1020f2:	55                   	push   %ebp
  1020f3:	56                   	push   %esi
  1020f4:	57                   	push   %edi
  1020f5:	58                   	pop    %eax
  1020f6:	59                   	pop    %ecx
  1020f7:	5a                   	pop    %edx
  1020f8:	00 00                	add    %al,(%eax)
  1020fa:	00 00                	add    %al,(%eax)
  1020fc:	30 31                	xor    %dh,(%ecx)
  1020fe:	32 33                	xor    (%ebx),%dh
  102100:	34 35                	xor    $0x35,%al
  102102:	36 37                	ss aaa 
  102104:	38 39                	cmp    %bh,(%ecx)
  102106:	61                   	popa   
  102107:	62 63 64             	bound  %esp,0x64(%ebx)
  10210a:	65 66 67 68 69 6a    	gs addr16 pushw $0x6a69
  102110:	6b 6c 6d 6e 6f       	imul   $0x6f,0x6e(%ebp,%ebp,2),%ebp
  102115:	70 71                	jo     102188 <video_memory+0x188>
  102117:	72 73                	jb     10218c <video_memory+0x18c>
  102119:	74 75                	je     102190 <video_memory+0x190>
  10211b:	76 77                	jbe    102194 <video_memory+0x194>
  10211d:	78 79                	js     102198 <video_memory+0x198>
  10211f:	7a 00                	jp     102121 <video_memory+0x121>
  102121:	00 00                	add    %al,(%eax)
  102123:	00 26                	add    %ah,(%esi)
  102125:	08 10                	or     %dl,(%eax)
  102127:	00 38                	add    %bh,(%eax)
  102129:	08 10                	or     %dl,(%eax)
  10212b:	00 38                	add    %bh,(%eax)
  10212d:	08 10                	or     %dl,(%eax)
  10212f:	00 2c 08             	add    %ch,(%eax,%ecx,1)
  102132:	10 00                	adc    %al,(%eax)
  102134:	38 08                	cmp    %cl,(%eax)
  102136:	10 00                	adc    %al,(%eax)
  102138:	38 08                	cmp    %cl,(%eax)
  10213a:	10 00                	adc    %al,(%eax)
  10213c:	38 08                	cmp    %cl,(%eax)
  10213e:	10 00                	adc    %al,(%eax)
  102140:	38 08                	cmp    %cl,(%eax)
  102142:	10 00                	adc    %al,(%eax)
  102144:	38 08                	cmp    %cl,(%eax)
  102146:	10 00                	adc    %al,(%eax)
  102148:	38 08                	cmp    %cl,(%eax)
  10214a:	10 00                	adc    %al,(%eax)
  10214c:	38 08                	cmp    %cl,(%eax)
  10214e:	10 00                	adc    %al,(%eax)
  102150:	20 08                	and    %cl,(%eax)
  102152:	10 00                	adc    %al,(%eax)
  102154:	38 08                	cmp    %cl,(%eax)
  102156:	10 00                	adc    %al,(%eax)
  102158:	1a 08                	sbb    (%eax),%cl
  10215a:	10 00                	adc    %al,(%eax)
  10215c:	38 08                	cmp    %cl,(%eax)
  10215e:	10 00                	adc    %al,(%eax)
  102160:	38 08                	cmp    %cl,(%eax)
  102162:	10 00                	adc    %al,(%eax)
  102164:	32 08                	xor    (%eax),%cl
  102166:	10 00                	adc    %al,(%eax)
  102168:	9d                   	popf   
  102169:	0a 10                	or     (%eax),%dl
  10216b:	00 39                	add    %bh,(%ecx)
  10216d:	0b 10                	or     (%eax),%edx
  10216f:	00 39                	add    %bh,(%ecx)
  102171:	0b 10                	or     (%eax),%edx
  102173:	00 39                	add    %bh,(%ecx)
  102175:	0b 10                	or     (%eax),%edx
  102177:	00 39                	add    %bh,(%ecx)
  102179:	0b 10                	or     (%eax),%edx
  10217b:	00 39                	add    %bh,(%ecx)
  10217d:	0b 10                	or     (%eax),%edx
  10217f:	00 39                	add    %bh,(%ecx)
  102181:	0b 10                	or     (%eax),%edx
  102183:	00 39                	add    %bh,(%ecx)
  102185:	0b 10                	or     (%eax),%edx
  102187:	00 39                	add    %bh,(%ecx)
  102189:	0b 10                	or     (%eax),%edx
  10218b:	00 39                	add    %bh,(%ecx)
  10218d:	0b 10                	or     (%eax),%edx
  10218f:	00 f5                	add    %dh,%ch
  102191:	0a 10                	or     (%eax),%dl
  102193:	00 32                	add    %dh,(%edx)
  102195:	09 10                	or     %edx,(%eax)
  102197:	00 c7                	add    %al,%bh
  102199:	0a 10                	or     (%eax),%dl
  10219b:	00 39                	add    %bh,(%ecx)
  10219d:	0b 10                	or     (%eax),%edx
  10219f:	00 39                	add    %bh,(%ecx)
  1021a1:	0b 10                	or     (%eax),%edx
  1021a3:	00 39                	add    %bh,(%ecx)
  1021a5:	0b 10                	or     (%eax),%edx
  1021a7:	00 39                	add    %bh,(%ecx)
  1021a9:	0b 10                	or     (%eax),%edx
  1021ab:	00 c7                	add    %al,%bh
  1021ad:	0a 10                	or     (%eax),%dl
  1021af:	00 39                	add    %bh,(%ecx)
  1021b1:	0b 10                	or     (%eax),%edx
  1021b3:	00 39                	add    %bh,(%ecx)
  1021b5:	0b 10                	or     (%eax),%edx
  1021b7:	00 39                	add    %bh,(%ecx)
  1021b9:	0b 10                	or     (%eax),%edx
  1021bb:	00 39                	add    %bh,(%ecx)
  1021bd:	0b 10                	or     (%eax),%edx
  1021bf:	00 1c 0b             	add    %bl,(%ebx,%ecx,1)
  1021c2:	10 00                	adc    %al,(%eax)
  1021c4:	34 0a                	xor    $0xa,%al
  1021c6:	10 00                	adc    %al,(%eax)
  1021c8:	5e                   	pop    %esi
  1021c9:	0a 10                	or     (%eax),%dl
  1021cb:	00 39                	add    %bh,(%ecx)
  1021cd:	0b 10                	or     (%eax),%edx
  1021cf:	00 39                	add    %bh,(%ecx)
  1021d1:	0b 10                	or     (%eax),%edx
  1021d3:	00 89 09 10 00 39    	add    %cl,0x39001009(%ecx)
  1021d9:	0b 10                	or     (%eax),%edx
  1021db:	00 cb                	add    %cl,%bl
  1021dd:	0a 10                	or     (%eax),%dl
  1021df:	00 39                	add    %bh,(%ecx)
  1021e1:	0b 10                	or     (%eax),%edx
  1021e3:	00 39                	add    %bh,(%ecx)
  1021e5:	0b 10                	or     (%eax),%edx
  1021e7:	00 99 0a 10 00 72    	add    %bl,0x7200100a(%ecx)
  1021ed:	20 3d 20 25 64 0a    	and    %bh,0xa642520
  1021f3:	00 48 65             	add    %cl,0x65(%eax)
  1021f6:	6c                   	insb   (%dx),%es:(%edi)
  1021f7:	6c                   	insb   (%dx),%es:(%edi)
  1021f8:	6f                   	outsl  %ds:(%esi),(%dx)
  1021f9:	2c 20                	sub    $0x20,%al
  1021fb:	4f                   	dec    %edi
  1021fc:	53                   	push   %ebx
  1021fd:	20 6b 65             	and    %ch,0x65(%ebx)
  102200:	72 6e                	jb     102270 <video_memory+0x270>
  102202:	65 6c                	gs insb (%dx),%es:(%edi)
  102204:	21 0a                	and    %ecx,(%edx)
  102206:	00 30                	add    %dh,(%eax)
  102208:	78 00                	js     10220a <video_memory+0x20a>
	...

Disassembly of section .bss:

00103000 <stack>:
	...

0010b000 <glb_mboot_ptr>:
  10b000:	00 00                	add    %al,(%eax)
	...

0010b004 <kernel_elf>:
	...

0010b014 <round.1057>:
	...

0010b020 <buff.1112>:
	...

0010b420 <buff.1120>:
	...

0010b820 <cursor_x>:
	...

0010b821 <cursor_y>:
	...

Disassembly of section .stab:

0010c000 <.stab>:
  10c000:	01 00                	add    %eax,(%eax)
  10c002:	00 00                	add    %al,(%eax)
  10c004:	00 00                	add    %al,(%eax)
  10c006:	ff 03                	incl   (%ebx)
  10c008:	c4 12                	les    (%edx),%edx
  10c00a:	00 00                	add    %al,(%eax)
  10c00c:	01 00                	add    %eax,(%eax)
  10c00e:	00 00                	add    %al,(%eax)
  10c010:	64 00 00             	add    %al,%fs:(%eax)
  10c013:	00 00                	add    %al,(%eax)
  10c015:	00 10                	add    %dl,(%eax)
  10c017:	00 00                	add    %al,(%eax)
  10c019:	00 00                	add    %al,(%eax)
  10c01b:	00 44 00 2b          	add    %al,0x2b(%eax,%eax,1)
  10c01f:	00 00                	add    %al,(%eax)
  10c021:	00 10                	add    %dl,(%eax)
  10c023:	00 00                	add    %al,(%eax)
  10c025:	00 00                	add    %al,(%eax)
  10c027:	00 44 00 2c          	add    %al,0x2c(%eax,%eax,1)
  10c02b:	00 04 00             	add    %al,(%eax,%eax,1)
  10c02e:	10 00                	adc    %al,(%eax)
  10c030:	00 00                	add    %al,(%eax)
  10c032:	00 00                	add    %al,(%eax)
  10c034:	44                   	inc    %esp
  10c035:	00 2d 00 08 00 10    	add    %ch,0x10000800
  10c03b:	00 00                	add    %al,(%eax)
  10c03d:	00 00                	add    %al,(%eax)
  10c03f:	00 44 00 34          	add    %al,0x34(%eax,%eax,1)
  10c043:	00 0c 00             	add    %cl,(%eax,%eax,1)
  10c046:	10 00                	adc    %al,(%eax)
  10c048:	00 00                	add    %al,(%eax)
  10c04a:	00 00                	add    %al,(%eax)
  10c04c:	44                   	inc    %esp
  10c04d:	00 36                	add    %dh,(%esi)
  10c04f:	00 0d 00 10 00 00    	add    %cl,0x1000
  10c055:	00 00                	add    %al,(%eax)
  10c057:	00 44 00 37          	add    %al,0x37(%eax,%eax,1)
  10c05b:	00 12                	add    %dl,(%edx)
  10c05d:	00 10                	add    %dl,(%eax)
  10c05f:	00 00                	add    %al,(%eax)
  10c061:	00 00                	add    %al,(%eax)
  10c063:	00 44 00 38          	add    %al,0x38(%eax,%eax,1)
  10c067:	00 17                	add    %dl,(%edi)
  10c069:	00 10                	add    %dl,(%eax)
  10c06b:	00 00                	add    %al,(%eax)
  10c06d:	00 00                	add    %al,(%eax)
  10c06f:	00 44 00 39          	add    %al,0x39(%eax,%eax,1)
  10c073:	00 1a                	add    %bl,(%edx)
  10c075:	00 10                	add    %dl,(%eax)
  10c077:	00 00                	add    %al,(%eax)
  10c079:	00 00                	add    %al,(%eax)
  10c07b:	00 44 00 3a          	add    %al,0x3a(%eax,%eax,1)
  10c07f:	00 20                	add    %ah,(%eax)
  10c081:	00 10                	add    %dl,(%eax)
  10c083:	00 00                	add    %al,(%eax)
  10c085:	00 00                	add    %al,(%eax)
  10c087:	00 44 00 3c          	add    %al,0x3c(%eax,%eax,1)
  10c08b:	00 25 00 10 00 00    	add    %ah,0x1000
  10c091:	00 00                	add    %al,(%eax)
  10c093:	00 44 00 3d          	add    %al,0x3d(%eax,%eax,1)
  10c097:	00 26                	add    %ah,(%esi)
  10c099:	00 10                	add    %dl,(%eax)
  10c09b:	00 00                	add    %al,(%eax)
  10c09d:	00 00                	add    %al,(%eax)
  10c09f:	00 64 00 00          	add    %ah,0x0(%eax,%eax,1)
  10c0a3:	00 00                	add    %al,(%eax)
  10c0a5:	00 00                	add    %al,(%eax)
  10c0a7:	00 0d 00 00 00 64    	add    %cl,0x64000000
  10c0ad:	00 02                	add    %al,(%edx)
  10c0af:	00 28                	add    %ch,(%eax)
  10c0b1:	00 10                	add    %dl,(%eax)
  10c0b3:	00 3b                	add    %bh,(%ebx)
  10c0b5:	00 00                	add    %al,(%eax)
  10c0b7:	00 64 00 02          	add    %ah,0x2(%eax,%eax,1)
  10c0bb:	00 28                	add    %ch,(%eax)
  10c0bd:	00 10                	add    %dl,(%eax)
  10c0bf:	00 49 00             	add    %cl,0x0(%ecx)
  10c0c2:	00 00                	add    %al,(%eax)
  10c0c4:	3c 00                	cmp    $0x0,%al
  10c0c6:	00 00                	add    %al,(%eax)
  10c0c8:	00 00                	add    %al,(%eax)
  10c0ca:	00 00                	add    %al,(%eax)
  10c0cc:	58                   	pop    %eax
  10c0cd:	00 00                	add    %al,(%eax)
  10c0cf:	00 80 00 00 00 00    	add    %al,0x0(%eax)
  10c0d5:	00 00                	add    %al,(%eax)
  10c0d7:	00 82 00 00 00 80    	add    %al,-0x80000000(%edx)
  10c0dd:	00 00                	add    %al,(%eax)
  10c0df:	00 00                	add    %al,(%eax)
  10c0e1:	00 00                	add    %al,(%eax)
  10c0e3:	00 9c 00 00 00 80 00 	add    %bl,0x800000(%eax,%eax,1)
  10c0ea:	00 00                	add    %al,(%eax)
  10c0ec:	00 00                	add    %al,(%eax)
  10c0ee:	00 00                	add    %al,(%eax)
  10c0f0:	cb                   	lret   
  10c0f1:	00 00                	add    %al,(%eax)
  10c0f3:	00 80 00 00 00 00    	add    %al,0x0(%eax)
  10c0f9:	00 00                	add    %al,(%eax)
  10c0fb:	00 f6                	add    %dh,%dh
  10c0fd:	00 00                	add    %al,(%eax)
  10c0ff:	00 80 00 00 00 00    	add    %al,0x0(%eax)
  10c105:	00 00                	add    %al,(%eax)
  10c107:	00 26                	add    %ah,(%esi)
  10c109:	01 00                	add    %eax,(%eax)
  10c10b:	00 80 00 00 00 00    	add    %al,0x0(%eax)
  10c111:	00 00                	add    %al,(%eax)
  10c113:	00 9e 01 00 00 80    	add    %bl,-0x7fffffff(%esi)
  10c119:	00 00                	add    %al,(%eax)
  10c11b:	00 00                	add    %al,(%eax)
  10c11d:	00 00                	add    %al,(%eax)
  10c11f:	00 f4                	add    %dh,%ah
  10c121:	01 00                	add    %eax,(%eax)
  10c123:	00 80 00 00 00 00    	add    %al,0x0(%eax)
  10c129:	00 00                	add    %al,(%eax)
  10c12b:	00 46 02             	add    %al,0x2(%esi)
  10c12e:	00 00                	add    %al,(%eax)
  10c130:	80 00 00             	addb   $0x0,(%eax)
  10c133:	00 00                	add    %al,(%eax)
  10c135:	00 00                	add    %al,(%eax)
  10c137:	00 8b 02 00 00 80    	add    %cl,-0x7ffffffe(%ebx)
  10c13d:	00 00                	add    %al,(%eax)
  10c13f:	00 00                	add    %al,(%eax)
  10c141:	00 00                	add    %al,(%eax)
  10c143:	00 b8 02 00 00 80    	add    %bh,-0x7ffffffe(%eax)
  10c149:	00 00                	add    %al,(%eax)
  10c14b:	00 00                	add    %al,(%eax)
  10c14d:	00 00                	add    %al,(%eax)
  10c14f:	00 e9                	add    %ch,%cl
  10c151:	02 00                	add    (%eax),%al
  10c153:	00 80 00 00 00 00    	add    %al,0x0(%eax)
  10c159:	00 00                	add    %al,(%eax)
  10c15b:	00 13                	add    %dl,(%ebx)
  10c15d:	03 00                	add    (%eax),%eax
  10c15f:	00 80 00 00 00 00    	add    %al,0x0(%eax)
  10c165:	00 00                	add    %al,(%eax)
  10c167:	00 3c 03             	add    %bh,(%ebx,%eax,1)
  10c16a:	00 00                	add    %al,(%eax)
  10c16c:	80 00 00             	addb   $0x0,(%eax)
  10c16f:	00 00                	add    %al,(%eax)
  10c171:	00 00                	add    %al,(%eax)
  10c173:	00 56 03             	add    %dl,0x3(%esi)
  10c176:	00 00                	add    %al,(%eax)
  10c178:	80 00 00             	addb   $0x0,(%eax)
  10c17b:	00 00                	add    %al,(%eax)
  10c17d:	00 00                	add    %al,(%eax)
  10c17f:	00 71 03             	add    %dh,0x3(%ecx)
  10c182:	00 00                	add    %al,(%eax)
  10c184:	80 00 00             	addb   $0x0,(%eax)
  10c187:	00 00                	add    %al,(%eax)
  10c189:	00 00                	add    %al,(%eax)
  10c18b:	00 92 03 00 00 80    	add    %dl,-0x7ffffffd(%edx)
  10c191:	00 00                	add    %al,(%eax)
  10c193:	00 00                	add    %al,(%eax)
  10c195:	00 00                	add    %al,(%eax)
  10c197:	00 af 03 00 00 80    	add    %ch,-0x7ffffffd(%edi)
  10c19d:	00 00                	add    %al,(%eax)
  10c19f:	00 00                	add    %al,(%eax)
  10c1a1:	00 00                	add    %al,(%eax)
  10c1a3:	00 cc                	add    %cl,%ah
  10c1a5:	03 00                	add    (%eax),%eax
  10c1a7:	00 80 00 00 00 00    	add    %al,0x0(%eax)
  10c1ad:	00 00                	add    %al,(%eax)
  10c1af:	00 eb                	add    %ch,%bl
  10c1b1:	03 00                	add    (%eax),%eax
  10c1b3:	00 80 00 00 00 00    	add    %al,0x0(%eax)
  10c1b9:	00 00                	add    %al,(%eax)
  10c1bb:	00 09                	add    %cl,(%ecx)
  10c1bd:	04 00                	add    $0x0,%al
  10c1bf:	00 80 00 00 00 00    	add    %al,0x0(%eax)
  10c1c5:	00 00                	add    %al,(%eax)
  10c1c7:	00 28                	add    %ch,(%eax)
  10c1c9:	04 00                	add    $0x0,%al
  10c1cb:	00 80 00 00 00 00    	add    %al,0x0(%eax)
  10c1d1:	00 00                	add    %al,(%eax)
  10c1d3:	00 47 04             	add    %al,0x4(%edi)
  10c1d6:	00 00                	add    %al,(%eax)
  10c1d8:	80 00 00             	addb   $0x0,(%eax)
  10c1db:	00 00                	add    %al,(%eax)
  10c1dd:	00 00                	add    %al,(%eax)
  10c1df:	00 66 04             	add    %ah,0x4(%esi)
  10c1e2:	00 00                	add    %al,(%eax)
  10c1e4:	80 00 00             	addb   $0x0,(%eax)
  10c1e7:	00 00                	add    %al,(%eax)
  10c1e9:	00 00                	add    %al,(%eax)
  10c1eb:	00 87 04 00 00 80    	add    %al,-0x7ffffffc(%edi)
  10c1f1:	00 00                	add    %al,(%eax)
  10c1f3:	00 00                	add    %al,(%eax)
  10c1f5:	00 00                	add    %al,(%eax)
  10c1f7:	00 9b 04 00 00 82    	add    %bl,-0x7dfffffc(%ebx)
  10c1fd:	00 00                	add    %al,(%eax)
  10c1ff:	00 00                	add    %al,(%eax)
  10c201:	00 00                	add    %al,(%eax)
  10c203:	00 ac 04 00 00 82 00 	add    %ch,0x820000(%esp,%eax,1)
  10c20a:	00 00                	add    %al,(%eax)
  10c20c:	6c                   	insb   (%dx),%es:(%edi)
  10c20d:	1e                   	push   %ds
  10c20e:	00 00                	add    %al,(%eax)
  10c210:	bc 04 00 00 80       	mov    $0x80000004,%esp
  10c215:	00 1f                	add    %bl,(%edi)
  10c217:	00 00                	add    %al,(%eax)
  10c219:	00 00                	add    %al,(%eax)
  10c21b:	00 d2                	add    %dl,%dl
  10c21d:	04 00                	add    $0x0,%al
  10c21f:	00 80 00 20 00 00    	add    %al,0x2000(%eax)
  10c225:	00 00                	add    %al,(%eax)
  10c227:	00 e7                	add    %ah,%bh
  10c229:	04 00                	add    $0x0,%al
  10c22b:	00 80 00 21 00 00    	add    %al,0x2100(%eax)
  10c231:	00 00                	add    %al,(%eax)
  10c233:	00 fe                	add    %bh,%dh
  10c235:	04 00                	add    $0x0,%al
  10c237:	00 80 00 22 00 00    	add    %al,0x2200(%eax)
  10c23d:	00 00                	add    %al,(%eax)
  10c23f:	00 14 05 00 00 80 00 	add    %dl,0x800000(,%eax,1)
  10c246:	23 00                	and    (%eax),%eax
  10c248:	00 00                	add    %al,(%eax)
  10c24a:	00 00                	add    %al,(%eax)
  10c24c:	2a 05 00 00 80 00    	sub    0x800000,%al
  10c252:	24 00                	and    $0x0,%al
	...
  10c25c:	a2 00 00 00 00       	mov    %al,0x0
  10c261:	00 00                	add    %al,(%eax)
  10c263:	00 00                	add    %al,(%eax)
  10c265:	00 00                	add    %al,(%eax)
  10c267:	00 a2 00 00 00 00    	add    %ah,0x0(%edx)
  10c26d:	00 00                	add    %al,(%eax)
  10c26f:	00 3e                	add    %bh,(%esi)
  10c271:	05 00 00 24 00       	add    $0x240000,%eax
  10c276:	16                   	push   %ss
  10c277:	00 28                	add    %ch,(%eax)
  10c279:	00 10                	add    %dl,(%eax)
  10c27b:	00 4b 05             	add    %cl,0x5(%ebx)
  10c27e:	00 00                	add    %al,(%eax)
  10c280:	a0 00 16 00 08       	mov    0x8001600,%al
  10c285:	00 00                	add    %al,(%eax)
  10c287:	00 57 05             	add    %dl,0x5(%edi)
  10c28a:	00 00                	add    %al,(%eax)
  10c28c:	a0 00 16 00 0c       	mov    0xc001600,%al
  10c291:	00 00                	add    %al,(%eax)
  10c293:	00 00                	add    %al,(%eax)
  10c295:	00 00                	add    %al,(%eax)
  10c297:	00 2e                	add    %ch,(%esi)
  10c299:	00 00                	add    %al,(%eax)
  10c29b:	00 28                	add    %ch,(%eax)
  10c29d:	00 10                	add    %dl,(%eax)
  10c29f:	00 00                	add    %al,(%eax)
  10c2a1:	00 00                	add    %al,(%eax)
  10c2a3:	00 44 00 17          	add    %al,0x17(%eax,%eax,1)
	...
  10c2af:	00 44 00 18          	add    %al,0x18(%eax,%eax,1)
  10c2b3:	00 13                	add    %dl,(%ebx)
  10c2b5:	00 00                	add    %al,(%eax)
  10c2b7:	00 00                	add    %al,(%eax)
  10c2b9:	00 00                	add    %al,(%eax)
  10c2bb:	00 44 00 19          	add    %al,0x19(%eax,%eax,1)
  10c2bf:	00 1c 00             	add    %bl,(%eax,%eax,1)
  10c2c2:	00 00                	add    %al,(%eax)
  10c2c4:	64 05 00 00 80 00    	fs add $0x800000,%eax
  10c2ca:	16                   	push   %ss
  10c2cb:	00 fc                	add    %bh,%ah
  10c2cd:	ff                   	(bad)  
  10c2ce:	ff                   	(bad)  
  10c2cf:	ff 6f 05             	ljmp   *0x5(%edi)
  10c2d2:	00 00                	add    %al,(%eax)
  10c2d4:	80 00 16             	addb   $0x16,(%eax)
  10c2d7:	00 f8                	add    %bh,%al
  10c2d9:	ff                   	(bad)  
  10c2da:	ff                   	(bad)  
  10c2db:	ff 00                	incl   (%eax)
  10c2dd:	00 00                	add    %al,(%eax)
  10c2df:	00 24 00             	add    %ah,(%eax,%eax,1)
  10c2e2:	00 00                	add    %al,(%eax)
  10c2e4:	1f                   	pop    %ds
  10c2e5:	00 00                	add    %al,(%eax)
  10c2e7:	00 00                	add    %al,(%eax)
  10c2e9:	00 00                	add    %al,(%eax)
  10c2eb:	00 4e 00             	add    %cl,0x0(%esi)
  10c2ee:	00 00                	add    %al,(%eax)
  10c2f0:	47                   	inc    %edi
  10c2f1:	00 10                	add    %dl,(%eax)
  10c2f3:	00 7b 05             	add    %bh,0x5(%ebx)
  10c2f6:	00 00                	add    %al,(%eax)
  10c2f8:	24 00                	and    $0x0,%al
  10c2fa:	1c 00                	sbb    $0x0,%al
  10c2fc:	47                   	inc    %edi
  10c2fd:	00 10                	add    %dl,(%eax)
  10c2ff:	00 4b 05             	add    %cl,0x5(%ebx)
  10c302:	00 00                	add    %al,(%eax)
  10c304:	a0 00 1c 00 08       	mov    0x8001c00,%al
  10c309:	00 00                	add    %al,(%eax)
  10c30b:	00 00                	add    %al,(%eax)
  10c30d:	00 00                	add    %al,(%eax)
  10c30f:	00 2e                	add    %ch,(%esi)
  10c311:	00 00                	add    %al,(%eax)
  10c313:	00 47 00             	add    %al,0x0(%edi)
  10c316:	10 00                	adc    %al,(%eax)
  10c318:	00 00                	add    %al,(%eax)
  10c31a:	00 00                	add    %al,(%eax)
  10c31c:	44                   	inc    %esp
  10c31d:	00 1d 00 00 00 00    	add    %bl,0x0
  10c323:	00 00                	add    %al,(%eax)
  10c325:	00 00                	add    %al,(%eax)
  10c327:	00 44 00 20          	add    %al,0x20(%eax,%eax,1)
  10c32b:	00 0d 00 00 00 00    	add    %cl,0x0
  10c331:	00 00                	add    %al,(%eax)
  10c333:	00 44 00 22          	add    %al,0x22(%eax,%eax,1)
  10c337:	00 17                	add    %dl,(%edi)
  10c339:	00 00                	add    %al,(%eax)
  10c33b:	00 00                	add    %al,(%eax)
  10c33d:	00 00                	add    %al,(%eax)
  10c33f:	00 44 00 23          	add    %al,0x23(%eax,%eax,1)
  10c343:	00 1b                	add    %bl,(%ebx)
  10c345:	00 00                	add    %al,(%eax)
  10c347:	00 86 05 00 00 80    	add    %al,-0x7ffffffb(%esi)
  10c34d:	00 1e                	add    %bl,(%esi)
  10c34f:	00 ff                	add    %bh,%bh
  10c351:	ff                   	(bad)  
  10c352:	ff                   	(bad)  
  10c353:	ff 64 05 00          	jmp    *0x0(%ebp,%eax,1)
  10c357:	00 80 00 1c 00 ec    	add    %al,-0x13ffe400(%eax)
  10c35d:	ff                   	(bad)  
  10c35e:	ff                   	(bad)  
  10c35f:	ff 00                	incl   (%eax)
  10c361:	00 00                	add    %al,(%eax)
  10c363:	00 c0                	add    %al,%al
	...
  10c36d:	00 00                	add    %al,(%eax)
  10c36f:	00 e0                	add    %ah,%al
  10c371:	00 00                	add    %al,(%eax)
  10c373:	00 1d 00 00 00 00    	add    %bl,0x0
  10c379:	00 00                	add    %al,(%eax)
  10c37b:	00 24 00             	add    %ah,(%eax,%eax,1)
  10c37e:	00 00                	add    %al,(%eax)
  10c380:	1d 00 00 00 00       	sbb    $0x0,%eax
  10c385:	00 00                	add    %al,(%eax)
  10c387:	00 4e 00             	add    %cl,0x0(%esi)
  10c38a:	00 00                	add    %al,(%eax)
  10c38c:	64 00 10             	add    %dl,%fs:(%eax)
  10c38f:	00 90 05 00 00 24    	add    %dl,0x24000005(%eax)
  10c395:	00 26                	add    %ah,(%esi)
  10c397:	00 64 00 10          	add    %ah,0x10(%eax,%eax,1)
  10c39b:	00 4b 05             	add    %cl,0x5(%ebx)
  10c39e:	00 00                	add    %al,(%eax)
  10c3a0:	a0 00 26 00 08       	mov    0x8002600,%al
  10c3a5:	00 00                	add    %al,(%eax)
  10c3a7:	00 00                	add    %al,(%eax)
  10c3a9:	00 00                	add    %al,(%eax)
  10c3ab:	00 2e                	add    %ch,(%esi)
  10c3ad:	00 00                	add    %al,(%eax)
  10c3af:	00 64 00 10          	add    %ah,0x10(%eax,%eax,1)
  10c3b3:	00 00                	add    %al,(%eax)
  10c3b5:	00 00                	add    %al,(%eax)
  10c3b7:	00 44 00 27          	add    %al,0x27(%eax,%eax,1)
	...
  10c3c3:	00 44 00 2a          	add    %al,0x2a(%eax,%eax,1)
  10c3c7:	00 0d 00 00 00 00    	add    %cl,0x0
  10c3cd:	00 00                	add    %al,(%eax)
  10c3cf:	00 44 00 2c          	add    %al,0x2c(%eax,%eax,1)
  10c3d3:	00 19                	add    %bl,(%ecx)
  10c3d5:	00 00                	add    %al,(%eax)
  10c3d7:	00 00                	add    %al,(%eax)
  10c3d9:	00 00                	add    %al,(%eax)
  10c3db:	00 44 00 2d          	add    %al,0x2d(%eax,%eax,1)
  10c3df:	00 1d 00 00 00 9b    	add    %bl,0x9b000000
  10c3e5:	05 00 00 80 00       	add    $0x800000,%eax
  10c3ea:	28 00                	sub    %al,(%eax)
  10c3ec:	fe                   	(bad)  
  10c3ed:	ff                   	(bad)  
  10c3ee:	ff                   	(bad)  
  10c3ef:	ff 64 05 00          	jmp    *0x0(%ebp,%eax,1)
  10c3f3:	00 80 00 26 00 ec    	add    %al,-0x13ffda00(%eax)
  10c3f9:	ff                   	(bad)  
  10c3fa:	ff                   	(bad)  
  10c3fb:	ff 00                	incl   (%eax)
  10c3fd:	00 00                	add    %al,(%eax)
  10c3ff:	00 c0                	add    %al,%al
	...
  10c409:	00 00                	add    %al,(%eax)
  10c40b:	00 e0                	add    %ah,%al
  10c40d:	00 00                	add    %al,(%eax)
  10c40f:	00 1f                	add    %bl,(%edi)
  10c411:	00 00                	add    %al,(%eax)
  10c413:	00 00                	add    %al,(%eax)
  10c415:	00 00                	add    %al,(%eax)
  10c417:	00 24 00             	add    %ah,(%eax,%eax,1)
  10c41a:	00 00                	add    %al,(%eax)
  10c41c:	1f                   	pop    %ds
  10c41d:	00 00                	add    %al,(%eax)
  10c41f:	00 00                	add    %al,(%eax)
  10c421:	00 00                	add    %al,(%eax)
  10c423:	00 4e 00             	add    %cl,0x0(%esi)
  10c426:	00 00                	add    %al,(%eax)
  10c428:	83 00 10             	addl   $0x10,(%eax)
  10c42b:	00 00                	add    %al,(%eax)
  10c42d:	00 00                	add    %al,(%eax)
  10c42f:	00 64 00 00          	add    %ah,0x0(%eax,%eax,1)
  10c433:	00 83 00 10 00 0d    	add    %al,0xd001000(%ebx)
  10c439:	00 00                	add    %al,(%eax)
  10c43b:	00 64 00 02          	add    %ah,0x2(%eax,%eax,1)
  10c43f:	00 83 00 10 00 a5    	add    %al,-0x5afff000(%ebx)
  10c445:	05 00 00 64 00       	add    $0x640000,%eax
  10c44a:	02 00                	add    (%eax),%al
  10c44c:	83 00 10             	addl   $0x10,(%eax)
  10c44f:	00 49 00             	add    %cl,0x0(%ecx)
  10c452:	00 00                	add    %al,(%eax)
  10c454:	3c 00                	cmp    $0x0,%al
  10c456:	00 00                	add    %al,(%eax)
  10c458:	00 00                	add    %al,(%eax)
  10c45a:	00 00                	add    %al,(%eax)
  10c45c:	58                   	pop    %eax
  10c45d:	00 00                	add    %al,(%eax)
  10c45f:	00 80 00 00 00 00    	add    %al,0x0(%eax)
  10c465:	00 00                	add    %al,(%eax)
  10c467:	00 82 00 00 00 80    	add    %al,-0x80000000(%edx)
  10c46d:	00 00                	add    %al,(%eax)
  10c46f:	00 00                	add    %al,(%eax)
  10c471:	00 00                	add    %al,(%eax)
  10c473:	00 9c 00 00 00 80 00 	add    %bl,0x800000(%eax,%eax,1)
  10c47a:	00 00                	add    %al,(%eax)
  10c47c:	00 00                	add    %al,(%eax)
  10c47e:	00 00                	add    %al,(%eax)
  10c480:	cb                   	lret   
  10c481:	00 00                	add    %al,(%eax)
  10c483:	00 80 00 00 00 00    	add    %al,0x0(%eax)
  10c489:	00 00                	add    %al,(%eax)
  10c48b:	00 f6                	add    %dh,%dh
  10c48d:	00 00                	add    %al,(%eax)
  10c48f:	00 80 00 00 00 00    	add    %al,0x0(%eax)
  10c495:	00 00                	add    %al,(%eax)
  10c497:	00 26                	add    %ah,(%esi)
  10c499:	01 00                	add    %eax,(%eax)
  10c49b:	00 80 00 00 00 00    	add    %al,0x0(%eax)
  10c4a1:	00 00                	add    %al,(%eax)
  10c4a3:	00 9e 01 00 00 80    	add    %bl,-0x7fffffff(%esi)
  10c4a9:	00 00                	add    %al,(%eax)
  10c4ab:	00 00                	add    %al,(%eax)
  10c4ad:	00 00                	add    %al,(%eax)
  10c4af:	00 f4                	add    %dh,%ah
  10c4b1:	01 00                	add    %eax,(%eax)
  10c4b3:	00 80 00 00 00 00    	add    %al,0x0(%eax)
  10c4b9:	00 00                	add    %al,(%eax)
  10c4bb:	00 46 02             	add    %al,0x2(%esi)
  10c4be:	00 00                	add    %al,(%eax)
  10c4c0:	80 00 00             	addb   $0x0,(%eax)
  10c4c3:	00 00                	add    %al,(%eax)
  10c4c5:	00 00                	add    %al,(%eax)
  10c4c7:	00 8b 02 00 00 80    	add    %cl,-0x7ffffffe(%ebx)
  10c4cd:	00 00                	add    %al,(%eax)
  10c4cf:	00 00                	add    %al,(%eax)
  10c4d1:	00 00                	add    %al,(%eax)
  10c4d3:	00 b8 02 00 00 80    	add    %bh,-0x7ffffffe(%eax)
  10c4d9:	00 00                	add    %al,(%eax)
  10c4db:	00 00                	add    %al,(%eax)
  10c4dd:	00 00                	add    %al,(%eax)
  10c4df:	00 e9                	add    %ch,%cl
  10c4e1:	02 00                	add    (%eax),%al
  10c4e3:	00 80 00 00 00 00    	add    %al,0x0(%eax)
  10c4e9:	00 00                	add    %al,(%eax)
  10c4eb:	00 13                	add    %dl,(%ebx)
  10c4ed:	03 00                	add    (%eax),%eax
  10c4ef:	00 80 00 00 00 00    	add    %al,0x0(%eax)
  10c4f5:	00 00                	add    %al,(%eax)
  10c4f7:	00 3c 03             	add    %bh,(%ebx,%eax,1)
  10c4fa:	00 00                	add    %al,(%eax)
  10c4fc:	80 00 00             	addb   $0x0,(%eax)
  10c4ff:	00 00                	add    %al,(%eax)
  10c501:	00 00                	add    %al,(%eax)
  10c503:	00 56 03             	add    %dl,0x3(%esi)
  10c506:	00 00                	add    %al,(%eax)
  10c508:	80 00 00             	addb   $0x0,(%eax)
  10c50b:	00 00                	add    %al,(%eax)
  10c50d:	00 00                	add    %al,(%eax)
  10c50f:	00 71 03             	add    %dh,0x3(%ecx)
  10c512:	00 00                	add    %al,(%eax)
  10c514:	80 00 00             	addb   $0x0,(%eax)
  10c517:	00 00                	add    %al,(%eax)
  10c519:	00 00                	add    %al,(%eax)
  10c51b:	00 92 03 00 00 80    	add    %dl,-0x7ffffffd(%edx)
  10c521:	00 00                	add    %al,(%eax)
  10c523:	00 00                	add    %al,(%eax)
  10c525:	00 00                	add    %al,(%eax)
  10c527:	00 af 03 00 00 80    	add    %ch,-0x7ffffffd(%edi)
  10c52d:	00 00                	add    %al,(%eax)
  10c52f:	00 00                	add    %al,(%eax)
  10c531:	00 00                	add    %al,(%eax)
  10c533:	00 cc                	add    %cl,%ah
  10c535:	03 00                	add    (%eax),%eax
  10c537:	00 80 00 00 00 00    	add    %al,0x0(%eax)
  10c53d:	00 00                	add    %al,(%eax)
  10c53f:	00 eb                	add    %ch,%bl
  10c541:	03 00                	add    (%eax),%eax
  10c543:	00 80 00 00 00 00    	add    %al,0x0(%eax)
  10c549:	00 00                	add    %al,(%eax)
  10c54b:	00 09                	add    %cl,(%ecx)
  10c54d:	04 00                	add    $0x0,%al
  10c54f:	00 80 00 00 00 00    	add    %al,0x0(%eax)
  10c555:	00 00                	add    %al,(%eax)
  10c557:	00 28                	add    %ch,(%eax)
  10c559:	04 00                	add    $0x0,%al
  10c55b:	00 80 00 00 00 00    	add    %al,0x0(%eax)
  10c561:	00 00                	add    %al,(%eax)
  10c563:	00 47 04             	add    %al,0x4(%edi)
  10c566:	00 00                	add    %al,(%eax)
  10c568:	80 00 00             	addb   $0x0,(%eax)
  10c56b:	00 00                	add    %al,(%eax)
  10c56d:	00 00                	add    %al,(%eax)
  10c56f:	00 66 04             	add    %ah,0x4(%esi)
  10c572:	00 00                	add    %al,(%eax)
  10c574:	80 00 00             	addb   $0x0,(%eax)
  10c577:	00 00                	add    %al,(%eax)
  10c579:	00 00                	add    %al,(%eax)
  10c57b:	00 87 04 00 00 80    	add    %al,-0x7ffffffc(%edi)
  10c581:	00 00                	add    %al,(%eax)
  10c583:	00 00                	add    %al,(%eax)
  10c585:	00 00                	add    %al,(%eax)
  10c587:	00 9b 04 00 00 c2    	add    %bl,-0x3dfffffc(%ebx)
  10c58d:	00 00                	add    %al,(%eax)
  10c58f:	00 00                	add    %al,(%eax)
  10c591:	00 00                	add    %al,(%eax)
  10c593:	00 ac 04 00 00 c2 00 	add    %ch,0xc20000(%esp,%eax,1)
  10c59a:	00 00                	add    %al,(%eax)
  10c59c:	6c                   	insb   (%dx),%es:(%edi)
  10c59d:	1e                   	push   %ds
  10c59e:	00 00                	add    %al,(%eax)
  10c5a0:	b0 05                	mov    $0x5,%al
  10c5a2:	00 00                	add    %al,(%eax)
  10c5a4:	82                   	(bad)  
  10c5a5:	00 00                	add    %al,(%eax)
  10c5a7:	00 a7 8b 00 00 be    	add    %ah,-0x41ffff75(%edi)
  10c5ad:	05 00 00 82 00       	add    $0x820000,%eax
  10c5b2:	00 00                	add    %al,(%eax)
  10c5b4:	9b                   	fwait
  10c5b5:	e1 00                	loope  10c5b7 <cursor_y+0xd96>
  10c5b7:	00 d2                	add    %dl,%dl
  10c5b9:	05 00 00 80 00       	add    $0x800000,%eax
  10c5be:	00 00                	add    %al,(%eax)
  10c5c0:	00 00                	add    %al,(%eax)
  10c5c2:	00 00                	add    %al,(%eax)
  10c5c4:	2a 08                	sub    (%eax),%cl
  10c5c6:	00 00                	add    %al,(%eax)
  10c5c8:	80 00 53             	addb   $0x53,(%eax)
  10c5cb:	00 00                	add    %al,(%eax)
  10c5cd:	00 00                	add    %al,(%eax)
  10c5cf:	00 43 08             	add    %al,0x8(%ebx)
  10c5d2:	00 00                	add    %al,(%eax)
  10c5d4:	80 00 00             	addb   $0x0,(%eax)
  10c5d7:	00 00                	add    %al,(%eax)
  10c5d9:	00 00                	add    %al,(%eax)
  10c5db:	00 e3                	add    %ah,%bl
  10c5dd:	08 00                	or     %al,(%eax)
  10c5df:	00 80 00 63 00 00    	add    %al,0x6300(%eax)
  10c5e5:	00 00                	add    %al,(%eax)
  10c5e7:	00 00                	add    %al,(%eax)
  10c5e9:	00 00                	add    %al,(%eax)
  10c5eb:	00 a2 00 00 00 00    	add    %ah,0x0(%edx)
  10c5f1:	00 00                	add    %al,(%eax)
  10c5f3:	00 fd                	add    %bh,%ch
  10c5f5:	08 00                	or     %al,(%eax)
  10c5f7:	00 80 00 00 00 00    	add    %al,0x0(%eax)
  10c5fd:	00 00                	add    %al,(%eax)
  10c5ff:	00 d8                	add    %bl,%al
  10c601:	09 00                	or     %eax,(%eax)
  10c603:	00 80 00 28 00 00    	add    %al,0x2800(%eax)
  10c609:	00 00                	add    %al,(%eax)
  10c60b:	00 fa                	add    %bh,%dl
  10c60d:	09 00                	or     %eax,(%eax)
  10c60f:	00 80 00 00 00 00    	add    %al,0x0(%eax)
  10c615:	00 00                	add    %al,(%eax)
  10c617:	00 7b 0a             	add    %bh,0xa(%ebx)
  10c61a:	00 00                	add    %al,(%eax)
  10c61c:	80 00 33             	addb   $0x33,(%eax)
  10c61f:	00 00                	add    %al,(%eax)
  10c621:	00 00                	add    %al,(%eax)
  10c623:	00 95 0a 00 00 80    	add    %dl,-0x7ffffff6(%ebp)
  10c629:	00 00                	add    %al,(%eax)
  10c62b:	00 00                	add    %al,(%eax)
  10c62d:	00 00                	add    %al,(%eax)
  10c62f:	00 0b                	add    %cl,(%ebx)
  10c631:	0b 00                	or     (%eax),%eax
  10c633:	00 80 00 3d 00 00    	add    %al,0x3d00(%eax)
  10c639:	00 00                	add    %al,(%eax)
  10c63b:	00 00                	add    %al,(%eax)
  10c63d:	00 00                	add    %al,(%eax)
  10c63f:	00 a2 00 00 00 00    	add    %ah,0x0(%edx)
  10c645:	00 00                	add    %al,(%eax)
  10c647:	00 1e                	add    %bl,(%esi)
  10c649:	0b 00                	or     (%eax),%eax
  10c64b:	00 24 00             	add    %ah,(%eax,%eax,1)
  10c64e:	2d 00 83 00 10       	sub    $0x10008300,%eax
  10c653:	00 2c 0b             	add    %ch,(%ebx,%ecx,1)
  10c656:	00 00                	add    %al,(%eax)
  10c658:	a0 00 2d 00 08       	mov    0x8002d00,%al
  10c65d:	00 00                	add    %al,(%eax)
  10c65f:	00 38                	add    %bh,(%eax)
  10c661:	0b 00                	or     (%eax),%eax
  10c663:	00 a0 00 2d 00 0c    	add    %ah,0xc002d00(%eax)
  10c669:	00 00                	add    %al,(%eax)
  10c66b:	00 00                	add    %al,(%eax)
  10c66d:	00 00                	add    %al,(%eax)
  10c66f:	00 2e                	add    %ch,(%esi)
  10c671:	00 00                	add    %al,(%eax)
  10c673:	00 83 00 10 00 44    	add    %al,0x44001000(%ebx)
  10c679:	0b 00                	or     (%eax),%eax
  10c67b:	00 84 00 00 00 83 00 	add    %al,0x830000(%eax,%eax,1)
  10c682:	10 00                	adc    %al,(%eax)
  10c684:	00 00                	add    %al,(%eax)
  10c686:	00 00                	add    %al,(%eax)
  10c688:	44                   	inc    %esp
  10c689:	00 2e                	add    %ch,(%esi)
	...
  10c693:	00 44 00 2f          	add    %al,0x2f(%eax,%eax,1)
  10c697:	00 03                	add    %al,(%ebx)
  10c699:	00 00                	add    %al,(%eax)
  10c69b:	00 00                	add    %al,(%eax)
  10c69d:	00 00                	add    %al,(%eax)
  10c69f:	00 44 00 30          	add    %al,0x30(%eax,%eax,1)
  10c6a3:	00 05 00 00 00 00    	add    %al,0x0
  10c6a9:	00 00                	add    %al,(%eax)
  10c6ab:	00 44 00 31          	add    %al,0x31(%eax,%eax,1)
  10c6af:	00 09                	add    %cl,(%ecx)
  10c6b1:	00 00                	add    %al,(%eax)
  10c6b3:	00 00                	add    %al,(%eax)
  10c6b5:	00 00                	add    %al,(%eax)
  10c6b7:	00 44 00 2f          	add    %al,0x2f(%eax,%eax,1)
  10c6bb:	00 0d 00 00 00 00    	add    %cl,0x0
  10c6c1:	00 00                	add    %al,(%eax)
  10c6c3:	00 44 00 2f          	add    %al,0x2f(%eax,%eax,1)
  10c6c7:	00 17                	add    %dl,(%edi)
  10c6c9:	00 00                	add    %al,(%eax)
  10c6cb:	00 00                	add    %al,(%eax)
  10c6cd:	00 00                	add    %al,(%eax)
  10c6cf:	00 44 00 2f          	add    %al,0x2f(%eax,%eax,1)
  10c6d3:	00 21                	add    %ah,(%ecx)
  10c6d5:	00 00                	add    %al,(%eax)
  10c6d7:	00 00                	add    %al,(%eax)
  10c6d9:	00 00                	add    %al,(%eax)
  10c6db:	00 44 00 34          	add    %al,0x34(%eax,%eax,1)
  10c6df:	00 31                	add    %dh,(%ecx)
  10c6e1:	00 00                	add    %al,(%eax)
  10c6e3:	00 00                	add    %al,(%eax)
  10c6e5:	00 00                	add    %al,(%eax)
  10c6e7:	00 44 00 35          	add    %al,0x35(%eax,%eax,1)
  10c6eb:	00 47 00             	add    %al,0x0(%edi)
  10c6ee:	00 00                	add    %al,(%eax)
  10c6f0:	00 00                	add    %al,(%eax)
  10c6f2:	00 00                	add    %al,(%eax)
  10c6f4:	24 00                	and    $0x0,%al
  10c6f6:	00 00                	add    %al,(%eax)
  10c6f8:	49                   	dec    %ecx
  10c6f9:	00 00                	add    %al,(%eax)
  10c6fb:	00 00                	add    %al,(%eax)
  10c6fd:	00 00                	add    %al,(%eax)
  10c6ff:	00 4e 00             	add    %cl,0x0(%esi)
  10c702:	00 00                	add    %al,(%eax)
  10c704:	cc                   	int3   
  10c705:	00 10                	add    %dl,(%eax)
  10c707:	00 55 0b             	add    %dl,0xb(%ebp)
  10c70a:	00 00                	add    %al,(%eax)
  10c70c:	24 00                	and    $0x0,%al
  10c70e:	18 00                	sbb    %al,(%eax)
  10c710:	cc                   	int3   
  10c711:	00 10                	add    %dl,(%eax)
  10c713:	00 6f 0b             	add    %ch,0xb(%edi)
  10c716:	00 00                	add    %al,(%eax)
  10c718:	a0 00 18 00 0c       	mov    0xc001800,%al
  10c71d:	00 00                	add    %al,(%eax)
  10c71f:	00 00                	add    %al,(%eax)
  10c721:	00 00                	add    %al,(%eax)
  10c723:	00 2e                	add    %ch,(%esi)
  10c725:	00 00                	add    %al,(%eax)
  10c727:	00 cc                	add    %cl,%ah
  10c729:	00 10                	add    %dl,(%eax)
  10c72b:	00 a5 05 00 00 84    	add    %ah,-0x7bfffffb(%ebp)
  10c731:	00 00                	add    %al,(%eax)
  10c733:	00 cc                	add    %cl,%ah
  10c735:	00 10                	add    %dl,(%eax)
  10c737:	00 00                	add    %al,(%eax)
  10c739:	00 00                	add    %al,(%eax)
  10c73b:	00 44 00 19          	add    %al,0x19(%eax,%eax,1)
	...
  10c747:	00 44 00 1c          	add    %al,0x1c(%eax,%eax,1)
  10c74b:	00 06                	add    %al,(%esi)
  10c74d:	00 00                	add    %al,(%eax)
  10c74f:	00 00                	add    %al,(%eax)
  10c751:	00 00                	add    %al,(%eax)
  10c753:	00 44 00 1d          	add    %al,0x1d(%eax,%eax,1)
  10c757:	00 0f                	add    %cl,(%edi)
  10c759:	00 00                	add    %al,(%eax)
  10c75b:	00 00                	add    %al,(%eax)
  10c75d:	00 00                	add    %al,(%eax)
  10c75f:	00 44 00 1e          	add    %al,0x1e(%eax,%eax,1)
  10c763:	00 25 00 00 00 00    	add    %ah,0x0
  10c769:	00 00                	add    %al,(%eax)
  10c76b:	00 44 00 1f          	add    %al,0x1f(%eax,%eax,1)
  10c76f:	00 3c 00             	add    %bh,(%eax,%eax,1)
  10c772:	00 00                	add    %al,(%eax)
  10c774:	00 00                	add    %al,(%eax)
  10c776:	00 00                	add    %al,(%eax)
  10c778:	44                   	inc    %esp
  10c779:	00 20                	add    %ah,(%eax)
  10c77b:	00 53 00             	add    %dl,0x0(%ebx)
  10c77e:	00 00                	add    %al,(%eax)
  10c780:	00 00                	add    %al,(%eax)
  10c782:	00 00                	add    %al,(%eax)
  10c784:	44                   	inc    %esp
  10c785:	00 21                	add    %ah,(%ecx)
  10c787:	00 6a 00             	add    %ch,0x0(%edx)
  10c78a:	00 00                	add    %al,(%eax)
  10c78c:	00 00                	add    %al,(%eax)
  10c78e:	00 00                	add    %al,(%eax)
  10c790:	44                   	inc    %esp
  10c791:	00 23                	add    %ah,(%ebx)
  10c793:	00 81 00 00 00 00    	add    %al,0x0(%ecx)
  10c799:	00 00                	add    %al,(%eax)
  10c79b:	00 44 00 24          	add    %al,0x24(%eax,%eax,1)
  10c79f:	00 9e 00 00 00 00    	add    %bl,0x0(%esi)
  10c7a5:	00 00                	add    %al,(%eax)
  10c7a7:	00 44 00 25          	add    %al,0x25(%eax,%eax,1)
  10c7ab:	00 aa 00 00 00 00    	add    %ch,0x0(%edx)
  10c7b1:	00 00                	add    %al,(%eax)
  10c7b3:	00 44 00 27          	add    %al,0x27(%eax,%eax,1)
  10c7b7:	00 c8                	add    %cl,%al
  10c7b9:	00 00                	add    %al,(%eax)
  10c7bb:	00 00                	add    %al,(%eax)
  10c7bd:	00 00                	add    %al,(%eax)
  10c7bf:	00 44 00 28          	add    %al,0x28(%eax,%eax,1)
  10c7c3:	00 df                	add    %bl,%bh
  10c7c5:	00 00                	add    %al,(%eax)
  10c7c7:	00 00                	add    %al,(%eax)
  10c7c9:	00 00                	add    %al,(%eax)
  10c7cb:	00 44 00 29          	add    %al,0x29(%eax,%eax,1)
  10c7cf:	00 f9                	add    %bh,%cl
  10c7d1:	00 00                	add    %al,(%eax)
  10c7d3:	00 00                	add    %al,(%eax)
  10c7d5:	00 00                	add    %al,(%eax)
  10c7d7:	00 44 00 2b          	add    %al,0x2b(%eax,%eax,1)
  10c7db:	00 13                	add    %dl,(%ebx)
  10c7dd:	01 00                	add    %eax,(%eax)
  10c7df:	00 00                	add    %al,(%eax)
  10c7e1:	00 00                	add    %al,(%eax)
  10c7e3:	00 44 00 2c          	add    %al,0x2c(%eax,%eax,1)
  10c7e7:	00 2a                	add    %ch,(%edx)
  10c7e9:	01 00                	add    %eax,(%eax)
  10c7eb:	00 00                	add    %al,(%eax)
  10c7ed:	00 00                	add    %al,(%eax)
  10c7ef:	00 44 00 2d          	add    %al,0x2d(%eax,%eax,1)
  10c7f3:	00 44 01 00          	add    %al,0x0(%ecx,%eax,1)
  10c7f7:	00 00                	add    %al,(%eax)
  10c7f9:	00 00                	add    %al,(%eax)
  10c7fb:	00 44 00 24          	add    %al,0x24(%eax,%eax,1)
  10c7ff:	00 5e 01             	add    %bl,0x1(%esi)
  10c802:	00 00                	add    %al,(%eax)
  10c804:	00 00                	add    %al,(%eax)
  10c806:	00 00                	add    %al,(%eax)
  10c808:	44                   	inc    %esp
  10c809:	00 24 00             	add    %ah,(%eax,%eax,1)
  10c80c:	62 01                	bound  %eax,(%ecx)
  10c80e:	00 00                	add    %al,(%eax)
  10c810:	00 00                	add    %al,(%eax)
  10c812:	00 00                	add    %al,(%eax)
  10c814:	44                   	inc    %esp
  10c815:	00 31                	add    %dh,(%ecx)
  10c817:	00 73 01             	add    %dh,0x1(%ebx)
  10c81a:	00 00                	add    %al,(%eax)
  10c81c:	00 00                	add    %al,(%eax)
  10c81e:	00 00                	add    %al,(%eax)
  10c820:	44                   	inc    %esp
  10c821:	00 32                	add    %dh,(%edx)
  10c823:	00 8d 01 00 00 81    	add    %cl,-0x7effffff(%ebp)
  10c829:	0b 00                	or     (%eax),%eax
  10c82b:	00 80 00 1a 00 f4    	add    %al,-0xbffe600(%eax)
  10c831:	ff                   	(bad)  
  10c832:	ff                   	(bad)  
  10c833:	ff 89 0b 00 00 80    	decl   -0x7ffffff5(%ecx)
  10c839:	00 1b                	add    %bl,(%ebx)
  10c83b:	00 d8                	add    %bl,%al
  10c83d:	ff                   	(bad)  
  10c83e:	ff                   	(bad)  
  10c83f:	ff 93 0b 00 00 80    	call   *-0x7ffffff5(%ebx)
  10c845:	00 1c 00             	add    %bl,(%eax,%eax,1)
  10c848:	f0 ff                	lock (bad) 
  10c84a:	ff                   	(bad)  
  10c84b:	ff a4 0b 00 00 80 00 	jmp    *0x800000(%ebx,%ecx,1)
  10c852:	23 00                	and    (%eax),%eax
  10c854:	ec                   	in     (%dx),%al
  10c855:	ff                   	(bad)  
  10c856:	ff                   	(bad)  
  10c857:	ff 00                	incl   (%eax)
  10c859:	00 00                	add    %al,(%eax)
  10c85b:	00 c0                	add    %al,%al
  10c85d:	00 00                	add    %al,(%eax)
  10c85f:	00 00                	add    %al,(%eax)
  10c861:	00 00                	add    %al,(%eax)
  10c863:	00 b3 0b 00 00 80    	add    %dh,-0x7ffffff5(%ebx)
  10c869:	00 25 00 e8 ff ff    	add    %ah,0xffffe800
  10c86f:	ff 00                	incl   (%eax)
  10c871:	00 00                	add    %al,(%eax)
  10c873:	00 c0                	add    %al,%al
  10c875:	00 00                	add    %al,(%eax)
  10c877:	00 aa 00 00 00 00    	add    %ch,0x0(%edx)
  10c87d:	00 00                	add    %al,(%eax)
  10c87f:	00 e0                	add    %ah,%al
  10c881:	00 00                	add    %al,(%eax)
  10c883:	00 5e 01             	add    %bl,0x1(%esi)
  10c886:	00 00                	add    %al,(%eax)
  10c888:	00 00                	add    %al,(%eax)
  10c88a:	00 00                	add    %al,(%eax)
  10c88c:	e0 00                	loopne 10c88e <cursor_y+0x106d>
  10c88e:	00 00                	add    %al,(%eax)
  10c890:	94                   	xchg   %eax,%esp
  10c891:	01 00                	add    %eax,(%eax)
  10c893:	00 00                	add    %al,(%eax)
  10c895:	00 00                	add    %al,(%eax)
  10c897:	00 24 00             	add    %ah,(%eax,%eax,1)
  10c89a:	00 00                	add    %al,(%eax)
  10c89c:	94                   	xchg   %eax,%esp
  10c89d:	01 00                	add    %eax,(%eax)
  10c89f:	00 00                	add    %al,(%eax)
  10c8a1:	00 00                	add    %al,(%eax)
  10c8a3:	00 4e 00             	add    %cl,0x0(%esi)
  10c8a6:	00 00                	add    %al,(%eax)
  10c8a8:	60                   	pusha  
  10c8a9:	02 10                	add    (%eax),%dl
  10c8ab:	00 be 0b 00 00 24    	add    %bh,0x2400000b(%esi)
  10c8b1:	00 35 00 60 02 10    	add    %dh,0x10026000
  10c8b7:	00 d7                	add    %dl,%bh
  10c8b9:	0b 00                	or     (%eax),%eax
  10c8bb:	00 a0 00 35 00 08    	add    %ah,0x8003500(%eax)
  10c8c1:	00 00                	add    %al,(%eax)
  10c8c3:	00 e3                	add    %ah,%bl
  10c8c5:	0b 00                	or     (%eax),%eax
  10c8c7:	00 a0 00 35 00 0c    	add    %ah,0xc003500(%eax)
  10c8cd:	00 00                	add    %al,(%eax)
  10c8cf:	00 00                	add    %al,(%eax)
  10c8d1:	00 00                	add    %al,(%eax)
  10c8d3:	00 2e                	add    %ch,(%esi)
  10c8d5:	00 00                	add    %al,(%eax)
  10c8d7:	00 60 02             	add    %ah,0x2(%eax)
  10c8da:	10 00                	adc    %al,(%eax)
  10c8dc:	00 00                	add    %al,(%eax)
  10c8de:	00 00                	add    %al,(%eax)
  10c8e0:	44                   	inc    %esp
  10c8e1:	00 36                	add    %dh,(%esi)
	...
  10c8eb:	00 44 00 39          	add    %al,0x39(%eax,%eax,1)
  10c8ef:	00 06                	add    %al,(%esi)
  10c8f1:	00 00                	add    %al,(%eax)
  10c8f3:	00 00                	add    %al,(%eax)
  10c8f5:	00 00                	add    %al,(%eax)
  10c8f7:	00 44 00 3a          	add    %al,0x3a(%eax,%eax,1)
  10c8fb:	00 0f                	add    %cl,(%edi)
  10c8fd:	00 00                	add    %al,(%eax)
  10c8ff:	00 00                	add    %al,(%eax)
  10c901:	00 00                	add    %al,(%eax)
  10c903:	00 44 00 3e          	add    %al,0x3e(%eax,%eax,1)
  10c907:	00 2b                	add    %ch,(%ebx)
  10c909:	00 00                	add    %al,(%eax)
  10c90b:	00 00                	add    %al,(%eax)
  10c90d:	00 00                	add    %al,(%eax)
  10c90f:	00 44 00 3e          	add    %al,0x3e(%eax,%eax,1)
  10c913:	00 40 00             	add    %al,0x0(%eax)
  10c916:	00 00                	add    %al,(%eax)
  10c918:	00 00                	add    %al,(%eax)
  10c91a:	00 00                	add    %al,(%eax)
  10c91c:	44                   	inc    %esp
  10c91d:	00 3f                	add    %bh,(%edi)
  10c91f:	00 67 00             	add    %ah,0x0(%edi)
  10c922:	00 00                	add    %al,(%eax)
  10c924:	00 00                	add    %al,(%eax)
  10c926:	00 00                	add    %al,(%eax)
  10c928:	44                   	inc    %esp
  10c929:	00 3b                	add    %bh,(%ebx)
  10c92b:	00 82 00 00 00 00    	add    %al,0x0(%edx)
  10c931:	00 00                	add    %al,(%eax)
  10c933:	00 44 00 39          	add    %al,0x39(%eax,%eax,1)
  10c937:	00 83 00 00 00 00    	add    %al,0x0(%ebx)
  10c93d:	00 00                	add    %al,(%eax)
  10c93f:	00 44 00 39          	add    %al,0x39(%eax,%eax,1)
  10c943:	00 87 00 00 00 00    	add    %al,0x0(%edi)
  10c949:	00 00                	add    %al,(%eax)
  10c94b:	00 44 00 43          	add    %al,0x43(%eax,%eax,1)
  10c94f:	00 9d 00 00 00 00    	add    %bl,0x0(%ebp)
  10c955:	00 00                	add    %al,(%eax)
  10c957:	00 44 00 44          	add    %al,0x44(%eax,%eax,1)
  10c95b:	00 a2 00 00 00 81    	add    %ah,-0x7f000000(%edx)
  10c961:	0b 00                	or     (%eax),%eax
  10c963:	00 80 00 37 00 fc    	add    %al,-0x3ffc900(%eax)
  10c969:	ff                   	(bad)  
  10c96a:	ff                   	(bad)  
  10c96b:	ff 00                	incl   (%eax)
  10c96d:	00 00                	add    %al,(%eax)
  10c96f:	00 c0                	add    %al,%al
	...
  10c979:	00 00                	add    %al,(%eax)
  10c97b:	00 e0                	add    %ah,%al
  10c97d:	00 00                	add    %al,(%eax)
  10c97f:	00 a4 00 00 00 00 00 	add    %ah,0x0(%eax,%eax,1)
  10c986:	00 00                	add    %al,(%eax)
  10c988:	24 00                	and    $0x0,%al
  10c98a:	00 00                	add    %al,(%eax)
  10c98c:	a4                   	movsb  %ds:(%esi),%es:(%edi)
  10c98d:	00 00                	add    %al,(%eax)
  10c98f:	00 00                	add    %al,(%eax)
  10c991:	00 00                	add    %al,(%eax)
  10c993:	00 4e 00             	add    %cl,0x0(%esi)
  10c996:	00 00                	add    %al,(%eax)
  10c998:	04 03                	add    $0x3,%al
  10c99a:	10 00                	adc    %al,(%eax)
  10c99c:	00 00                	add    %al,(%eax)
  10c99e:	00 00                	add    %al,(%eax)
  10c9a0:	64 00 00             	add    %al,%fs:(%eax)
  10c9a3:	00 04 03             	add    %al,(%ebx,%eax,1)
  10c9a6:	10 00                	adc    %al,(%eax)
  10c9a8:	0d 00 00 00 64       	or     $0x64000000,%eax
  10c9ad:	00 02                	add    %al,(%edx)
  10c9af:	00 04 03             	add    %al,(%ebx,%eax,1)
  10c9b2:	10 00                	adc    %al,(%eax)
  10c9b4:	f6                   	(bad)  
  10c9b5:	0b 00                	or     (%eax),%eax
  10c9b7:	00 64 00 02          	add    %ah,0x2(%eax,%eax,1)
  10c9bb:	00 04 03             	add    %al,(%ebx,%eax,1)
  10c9be:	10 00                	adc    %al,(%eax)
  10c9c0:	49                   	dec    %ecx
  10c9c1:	00 00                	add    %al,(%eax)
  10c9c3:	00 3c 00             	add    %bh,(%eax,%eax,1)
  10c9c6:	00 00                	add    %al,(%eax)
  10c9c8:	00 00                	add    %al,(%eax)
  10c9ca:	00 00                	add    %al,(%eax)
  10c9cc:	58                   	pop    %eax
  10c9cd:	00 00                	add    %al,(%eax)
  10c9cf:	00 80 00 00 00 00    	add    %al,0x0(%eax)
  10c9d5:	00 00                	add    %al,(%eax)
  10c9d7:	00 82 00 00 00 80    	add    %al,-0x80000000(%edx)
  10c9dd:	00 00                	add    %al,(%eax)
  10c9df:	00 00                	add    %al,(%eax)
  10c9e1:	00 00                	add    %al,(%eax)
  10c9e3:	00 9c 00 00 00 80 00 	add    %bl,0x800000(%eax,%eax,1)
  10c9ea:	00 00                	add    %al,(%eax)
  10c9ec:	00 00                	add    %al,(%eax)
  10c9ee:	00 00                	add    %al,(%eax)
  10c9f0:	cb                   	lret   
  10c9f1:	00 00                	add    %al,(%eax)
  10c9f3:	00 80 00 00 00 00    	add    %al,0x0(%eax)
  10c9f9:	00 00                	add    %al,(%eax)
  10c9fb:	00 f6                	add    %dh,%dh
  10c9fd:	00 00                	add    %al,(%eax)
  10c9ff:	00 80 00 00 00 00    	add    %al,0x0(%eax)
  10ca05:	00 00                	add    %al,(%eax)
  10ca07:	00 26                	add    %ah,(%esi)
  10ca09:	01 00                	add    %eax,(%eax)
  10ca0b:	00 80 00 00 00 00    	add    %al,0x0(%eax)
  10ca11:	00 00                	add    %al,(%eax)
  10ca13:	00 9e 01 00 00 80    	add    %bl,-0x7fffffff(%esi)
  10ca19:	00 00                	add    %al,(%eax)
  10ca1b:	00 00                	add    %al,(%eax)
  10ca1d:	00 00                	add    %al,(%eax)
  10ca1f:	00 f4                	add    %dh,%ah
  10ca21:	01 00                	add    %eax,(%eax)
  10ca23:	00 80 00 00 00 00    	add    %al,0x0(%eax)
  10ca29:	00 00                	add    %al,(%eax)
  10ca2b:	00 46 02             	add    %al,0x2(%esi)
  10ca2e:	00 00                	add    %al,(%eax)
  10ca30:	80 00 00             	addb   $0x0,(%eax)
  10ca33:	00 00                	add    %al,(%eax)
  10ca35:	00 00                	add    %al,(%eax)
  10ca37:	00 8b 02 00 00 80    	add    %cl,-0x7ffffffe(%ebx)
  10ca3d:	00 00                	add    %al,(%eax)
  10ca3f:	00 00                	add    %al,(%eax)
  10ca41:	00 00                	add    %al,(%eax)
  10ca43:	00 b8 02 00 00 80    	add    %bh,-0x7ffffffe(%eax)
  10ca49:	00 00                	add    %al,(%eax)
  10ca4b:	00 00                	add    %al,(%eax)
  10ca4d:	00 00                	add    %al,(%eax)
  10ca4f:	00 e9                	add    %ch,%cl
  10ca51:	02 00                	add    (%eax),%al
  10ca53:	00 80 00 00 00 00    	add    %al,0x0(%eax)
  10ca59:	00 00                	add    %al,(%eax)
  10ca5b:	00 13                	add    %dl,(%ebx)
  10ca5d:	03 00                	add    (%eax),%eax
  10ca5f:	00 80 00 00 00 00    	add    %al,0x0(%eax)
  10ca65:	00 00                	add    %al,(%eax)
  10ca67:	00 3c 03             	add    %bh,(%ebx,%eax,1)
  10ca6a:	00 00                	add    %al,(%eax)
  10ca6c:	80 00 00             	addb   $0x0,(%eax)
  10ca6f:	00 00                	add    %al,(%eax)
  10ca71:	00 00                	add    %al,(%eax)
  10ca73:	00 56 03             	add    %dl,0x3(%esi)
  10ca76:	00 00                	add    %al,(%eax)
  10ca78:	80 00 00             	addb   $0x0,(%eax)
  10ca7b:	00 00                	add    %al,(%eax)
  10ca7d:	00 00                	add    %al,(%eax)
  10ca7f:	00 71 03             	add    %dh,0x3(%ecx)
  10ca82:	00 00                	add    %al,(%eax)
  10ca84:	80 00 00             	addb   $0x0,(%eax)
  10ca87:	00 00                	add    %al,(%eax)
  10ca89:	00 00                	add    %al,(%eax)
  10ca8b:	00 92 03 00 00 80    	add    %dl,-0x7ffffffd(%edx)
  10ca91:	00 00                	add    %al,(%eax)
  10ca93:	00 00                	add    %al,(%eax)
  10ca95:	00 00                	add    %al,(%eax)
  10ca97:	00 af 03 00 00 80    	add    %ch,-0x7ffffffd(%edi)
  10ca9d:	00 00                	add    %al,(%eax)
  10ca9f:	00 00                	add    %al,(%eax)
  10caa1:	00 00                	add    %al,(%eax)
  10caa3:	00 cc                	add    %cl,%ah
  10caa5:	03 00                	add    (%eax),%eax
  10caa7:	00 80 00 00 00 00    	add    %al,0x0(%eax)
  10caad:	00 00                	add    %al,(%eax)
  10caaf:	00 eb                	add    %ch,%bl
  10cab1:	03 00                	add    (%eax),%eax
  10cab3:	00 80 00 00 00 00    	add    %al,0x0(%eax)
  10cab9:	00 00                	add    %al,(%eax)
  10cabb:	00 09                	add    %cl,(%ecx)
  10cabd:	04 00                	add    $0x0,%al
  10cabf:	00 80 00 00 00 00    	add    %al,0x0(%eax)
  10cac5:	00 00                	add    %al,(%eax)
  10cac7:	00 28                	add    %ch,(%eax)
  10cac9:	04 00                	add    $0x0,%al
  10cacb:	00 80 00 00 00 00    	add    %al,0x0(%eax)
  10cad1:	00 00                	add    %al,(%eax)
  10cad3:	00 47 04             	add    %al,0x4(%edi)
  10cad6:	00 00                	add    %al,(%eax)
  10cad8:	80 00 00             	addb   $0x0,(%eax)
  10cadb:	00 00                	add    %al,(%eax)
  10cadd:	00 00                	add    %al,(%eax)
  10cadf:	00 66 04             	add    %ah,0x4(%esi)
  10cae2:	00 00                	add    %al,(%eax)
  10cae4:	80 00 00             	addb   $0x0,(%eax)
  10cae7:	00 00                	add    %al,(%eax)
  10cae9:	00 00                	add    %al,(%eax)
  10caeb:	00 87 04 00 00 80    	add    %al,-0x7ffffffc(%edi)
  10caf1:	00 00                	add    %al,(%eax)
  10caf3:	00 00                	add    %al,(%eax)
  10caf5:	00 00                	add    %al,(%eax)
  10caf7:	00 0b                	add    %cl,(%ebx)
  10caf9:	0c 00                	or     $0x0,%al
  10cafb:	00 82 00 00 00 00    	add    %al,0x0(%edx)
  10cb01:	00 00                	add    %al,(%eax)
  10cb03:	00 1b                	add    %bl,(%ebx)
  10cb05:	0c 00                	or     $0x0,%al
  10cb07:	00 82 00 00 00 90    	add    %al,-0x70000000(%edx)
  10cb0d:	5d                   	pop    %ebp
  10cb0e:	00 00                	add    %al,(%eax)
  10cb10:	ac                   	lods   %ds:(%esi),%al
  10cb11:	04 00                	add    $0x0,%al
  10cb13:	00 c2                	add    %al,%dl
  10cb15:	00 00                	add    %al,(%eax)
  10cb17:	00 6c 1e 00          	add    %ch,0x0(%esi,%ebx,1)
  10cb1b:	00 2d 0c 00 00 80    	add    %ch,0x8000000c
  10cb21:	00 00                	add    %al,(%eax)
  10cb23:	00 00                	add    %al,(%eax)
  10cb25:	00 00                	add    %al,(%eax)
  10cb27:	00 21                	add    %ah,(%ecx)
  10cb29:	0d 00 00 80 00       	or     $0x800000,%eax
  10cb2e:	2a 00                	sub    (%eax),%al
	...
  10cb38:	a2 00 00 00 00       	mov    %al,0x0
  10cb3d:	00 00                	add    %al,(%eax)
  10cb3f:	00 3b                	add    %bh,(%ebx)
  10cb41:	0d 00 00 82 00       	or     $0x820000,%eax
  10cb46:	00 00                	add    %al,(%eax)
  10cb48:	50                   	push   %eax
  10cb49:	06                   	push   %es
  10cb4a:	00 00                	add    %al,(%eax)
  10cb4c:	4b                   	dec    %ebx
  10cb4d:	0d 00 00 80 00       	or     $0x800000,%eax
  10cb52:	16                   	push   %ss
	...
  10cb5b:	00 a2 00 00 00 00    	add    %ah,0x0(%edx)
  10cb61:	00 00                	add    %al,(%eax)
  10cb63:	00 b0 05 00 00 c2    	add    %dh,-0x3dfffffb(%eax)
  10cb69:	00 00                	add    %al,(%eax)
  10cb6b:	00 a7 8b 00 00 be    	add    %ah,-0x41ffff75(%edi)
  10cb71:	05 00 00 c2 00       	add    $0xc20000,%eax
  10cb76:	00 00                	add    %al,(%eax)
  10cb78:	9b                   	fwait
  10cb79:	e1 00                	loope  10cb7b <cursor_y+0x135a>
  10cb7b:	00 00                	add    %al,(%eax)
  10cb7d:	00 00                	add    %al,(%eax)
  10cb7f:	00 a2 00 00 00 00    	add    %ah,0x0(%edx)
  10cb85:	00 00                	add    %al,(%eax)
  10cb87:	00 67 0d             	add    %ah,0xd(%edi)
  10cb8a:	00 00                	add    %al,(%eax)
  10cb8c:	28 00                	sub    %al,(%eax)
  10cb8e:	17                   	pop    %ss
  10cb8f:	00 04 b0             	add    %al,(%eax,%esi,4)
  10cb92:	10 00                	adc    %al,(%eax)
  10cb94:	79 0d                	jns    10cba3 <cursor_y+0x1382>
  10cb96:	00 00                	add    %al,(%eax)
  10cb98:	24 00                	and    $0x0,%al
  10cb9a:	19 00                	sbb    %eax,(%eax)
  10cb9c:	04 03                	add    $0x3,%al
  10cb9e:	10 00                	adc    %al,(%eax)
  10cba0:	00 00                	add    %al,(%eax)
  10cba2:	00 00                	add    %al,(%eax)
  10cba4:	2e 00 00             	add    %al,%cs:(%eax)
  10cba7:	00 04 03             	add    %al,(%ebx,%eax,1)
  10cbaa:	10 00                	adc    %al,(%eax)
  10cbac:	00 00                	add    %al,(%eax)
  10cbae:	00 00                	add    %al,(%eax)
  10cbb0:	44                   	inc    %esp
  10cbb1:	00 1a                	add    %bl,(%edx)
	...
  10cbbb:	00 44 00 1c          	add    %al,0x1c(%eax,%eax,1)
  10cbbf:	00 06                	add    %al,(%esi)
  10cbc1:	00 00                	add    %al,(%eax)
  10cbc3:	00 00                	add    %al,(%eax)
  10cbc5:	00 00                	add    %al,(%eax)
  10cbc7:	00 44 00 1d          	add    %al,0x1d(%eax,%eax,1)
  10cbcb:	00 3c 00             	add    %bh,(%eax,%eax,1)
  10cbce:	00 00                	add    %al,(%eax)
  10cbd0:	00 00                	add    %al,(%eax)
  10cbd2:	00 00                	add    %al,(%eax)
  10cbd4:	24 00                	and    $0x0,%al
  10cbd6:	00 00                	add    %al,(%eax)
  10cbd8:	3f                   	aas    
  10cbd9:	00 00                	add    %al,(%eax)
  10cbdb:	00 00                	add    %al,(%eax)
  10cbdd:	00 00                	add    %al,(%eax)
  10cbdf:	00 4e 00             	add    %cl,0x0(%esi)
  10cbe2:	00 00                	add    %al,(%eax)
  10cbe4:	43                   	inc    %ebx
  10cbe5:	03 10                	add    (%eax),%edx
  10cbe7:	00 8c 0d 00 00 24 00 	add    %cl,0x240000(%ebp,%ecx,1)
  10cbee:	1f                   	pop    %ds
  10cbef:	00 43 03             	add    %al,0x3(%ebx)
  10cbf2:	10 00                	adc    %al,(%eax)
  10cbf4:	00 00                	add    %al,(%eax)
  10cbf6:	00 00                	add    %al,(%eax)
  10cbf8:	2e 00 00             	add    %al,%cs:(%eax)
  10cbfb:	00 43 03             	add    %al,0x3(%ebx)
  10cbfe:	10 00                	adc    %al,(%eax)
  10cc00:	00 00                	add    %al,(%eax)
  10cc02:	00 00                	add    %al,(%eax)
  10cc04:	44                   	inc    %esp
  10cc05:	00 20                	add    %ah,(%eax)
	...
  10cc0f:	00 44 00 24          	add    %al,0x24(%eax,%eax,1)
  10cc13:	00 06                	add    %al,(%esi)
  10cc15:	00 00                	add    %al,(%eax)
  10cc17:	00 00                	add    %al,(%eax)
  10cc19:	00 00                	add    %al,(%eax)
  10cc1b:	00 44 00 2b          	add    %al,0x2b(%eax,%eax,1)
  10cc1f:	00 12                	add    %dl,(%edx)
  10cc21:	00 00                	add    %al,(%eax)
  10cc23:	00 00                	add    %al,(%eax)
  10cc25:	00 00                	add    %al,(%eax)
  10cc27:	00 44 00 2c          	add    %al,0x2c(%eax,%eax,1)
  10cc2b:	00 35 00 00 00 00    	add    %dh,0x0
  10cc31:	00 00                	add    %al,(%eax)
  10cc33:	00 44 00 2d          	add    %al,0x2d(%eax,%eax,1)
  10cc37:	00 53 00             	add    %dl,0x0(%ebx)
  10cc3a:	00 00                	add    %al,(%eax)
  10cc3c:	00 00                	add    %al,(%eax)
  10cc3e:	00 00                	add    %al,(%eax)
  10cc40:	44                   	inc    %esp
  10cc41:	00 2e                	add    %ch,(%esi)
  10cc43:	00 71 00             	add    %dh,0x0(%ecx)
  10cc46:	00 00                	add    %al,(%eax)
  10cc48:	00 00                	add    %al,(%eax)
  10cc4a:	00 00                	add    %al,(%eax)
  10cc4c:	44                   	inc    %esp
  10cc4d:	00 2f                	add    %ch,(%edi)
  10cc4f:	00 8f 00 00 00 00    	add    %cl,0x0(%edi)
  10cc55:	00 00                	add    %al,(%eax)
  10cc57:	00 44 00 30          	add    %al,0x30(%eax,%eax,1)
  10cc5b:	00 ad 00 00 00 00    	add    %ch,0x0(%ebp)
  10cc61:	00 00                	add    %al,(%eax)
  10cc63:	00 44 00 31          	add    %al,0x31(%eax,%eax,1)
  10cc67:	00 ba 00 00 00 a5    	add    %bh,-0x5b000000(%edx)
  10cc6d:	0d 00 00 26 00       	or     $0x260000,%eax
  10cc72:	21 00                	and    %eax,(%eax)
  10cc74:	14 b0                	adc    $0xb0,%al
  10cc76:	10 00                	adc    %al,(%eax)
  10cc78:	b2 0d                	mov    $0xd,%dl
  10cc7a:	00 00                	add    %al,(%eax)
  10cc7c:	80 00 22             	addb   $0x22,(%eax)
  10cc7f:	00 f6                	add    %dh,%dh
  10cc81:	ff                   	(bad)  
  10cc82:	ff                   	(bad)  
  10cc83:	ff                   	(bad)  
  10cc84:	bd 0d 00 00 80       	mov    $0x8000000d,%ebp
  10cc89:	00 22                	add    %ah,(%edx)
  10cc8b:	00 f4                	add    %dh,%ah
  10cc8d:	ff                   	(bad)  
  10cc8e:	ff                   	(bad)  
  10cc8f:	ff c8                	dec    %eax
  10cc91:	0d 00 00 80 00       	or     $0x800000,%eax
  10cc96:	22 00                	and    (%eax),%al
  10cc98:	f2 ff                	repnz (bad) 
  10cc9a:	ff                   	(bad)  
  10cc9b:	ff d3                	call   *%ebx
  10cc9d:	0d 00 00 80 00       	or     $0x800000,%eax
  10cca2:	22 00                	and    (%eax),%al
  10cca4:	f0 ff                	lock (bad) 
  10cca6:	ff                   	(bad)  
  10cca7:	ff 00                	incl   (%eax)
  10cca9:	00 00                	add    %al,(%eax)
  10ccab:	00 c0                	add    %al,%al
	...
  10ccb5:	00 00                	add    %al,(%eax)
  10ccb7:	00 e0                	add    %ah,%al
  10ccb9:	00 00                	add    %al,(%eax)
  10ccbb:	00 bd 00 00 00 00    	add    %bh,0x0(%ebp)
  10ccc1:	00 00                	add    %al,(%eax)
  10ccc3:	00 24 00             	add    %ah,(%eax,%eax,1)
  10ccc6:	00 00                	add    %al,(%eax)
  10ccc8:	bd 00 00 00 00       	mov    $0x0,%ebp
  10cccd:	00 00                	add    %al,(%eax)
  10cccf:	00 4e 00             	add    %cl,0x0(%esi)
  10ccd2:	00 00                	add    %al,(%eax)
  10ccd4:	00 04 10             	add    %al,(%eax,%edx,1)
  10ccd7:	00 de                	add    %bl,%dh
  10ccd9:	0d 00 00 24 00       	or     $0x240000,%eax
  10ccde:	33 00                	xor    (%eax),%eax
  10cce0:	00 04 10             	add    %al,(%eax,%edx,1)
  10cce3:	00 ec                	add    %ch,%ah
  10cce5:	0d 00 00 a0 00       	or     $0xa00000,%eax
  10ccea:	33 00                	xor    (%eax),%eax
  10ccec:	08 00                	or     %al,(%eax)
  10ccee:	00 00                	add    %al,(%eax)
  10ccf0:	00 00                	add    %al,(%eax)
  10ccf2:	00 00                	add    %al,(%eax)
  10ccf4:	2e 00 00             	add    %al,%cs:(%eax)
  10ccf7:	00 00                	add    %al,(%eax)
  10ccf9:	04 10                	add    $0x10,%al
  10ccfb:	00 00                	add    %al,(%eax)
  10ccfd:	00 00                	add    %al,(%eax)
  10ccff:	00 44 00 34          	add    %al,0x34(%eax,%eax,1)
	...
  10cd0b:	00 44 00 35          	add    %al,0x35(%eax,%eax,1)
  10cd0f:	00 06                	add    %al,(%esi)
  10cd11:	00 00                	add    %al,(%eax)
  10cd13:	00 00                	add    %al,(%eax)
  10cd15:	00 00                	add    %al,(%eax)
  10cd17:	00 44 00 36          	add    %al,0x36(%eax,%eax,1)
  10cd1b:	00 19                	add    %bl,(%ecx)
  10cd1d:	00 00                	add    %al,(%eax)
  10cd1f:	00 00                	add    %al,(%eax)
  10cd21:	00 00                	add    %al,(%eax)
  10cd23:	00 44 00 37          	add    %al,0x37(%eax,%eax,1)
  10cd27:	00 1e                	add    %bl,(%esi)
  10cd29:	00 00                	add    %al,(%eax)
  10cd2b:	00 00                	add    %al,(%eax)
  10cd2d:	00 00                	add    %al,(%eax)
  10cd2f:	00 44 00 3a          	add    %al,0x3a(%eax,%eax,1)
  10cd33:	00 2e                	add    %ch,(%esi)
  10cd35:	00 00                	add    %al,(%eax)
  10cd37:	00 00                	add    %al,(%eax)
  10cd39:	00 00                	add    %al,(%eax)
  10cd3b:	00 24 00             	add    %ah,(%eax,%eax,1)
  10cd3e:	00 00                	add    %al,(%eax)
  10cd40:	30 00                	xor    %al,(%eax)
  10cd42:	00 00                	add    %al,(%eax)
  10cd44:	00 00                	add    %al,(%eax)
  10cd46:	00 00                	add    %al,(%eax)
  10cd48:	4e                   	dec    %esi
  10cd49:	00 00                	add    %al,(%eax)
  10cd4b:	00 30                	add    %dh,(%eax)
  10cd4d:	04 10                	add    $0x10,%al
  10cd4f:	00 f7                	add    %dh,%bh
  10cd51:	0d 00 00 24 00       	or     $0x240000,%eax
  10cd56:	3d 00 30 04 10       	cmp    $0x10043000,%eax
  10cd5b:	00 00                	add    %al,(%eax)
  10cd5d:	00 00                	add    %al,(%eax)
  10cd5f:	00 2e                	add    %ch,(%esi)
  10cd61:	00 00                	add    %al,(%eax)
  10cd63:	00 30                	add    %dh,(%eax)
  10cd65:	04 10                	add    $0x10,%al
  10cd67:	00 00                	add    %al,(%eax)
  10cd69:	00 00                	add    %al,(%eax)
  10cd6b:	00 44 00 3e          	add    %al,0x3e(%eax,%eax,1)
	...
  10cd77:	00 44 00 41          	add    %al,0x41(%eax,%eax,1)
  10cd7b:	00 06                	add    %al,(%esi)
  10cd7d:	00 00                	add    %al,(%eax)
  10cd7f:	00 00                	add    %al,(%eax)
  10cd81:	00 00                	add    %al,(%eax)
  10cd83:	00 44 00 42          	add    %al,0x42(%eax,%eax,1)
  10cd87:	00 0b                	add    %cl,(%ebx)
  10cd89:	00 00                	add    %al,(%eax)
  10cd8b:	00 00                	add    %al,(%eax)
  10cd8d:	00 00                	add    %al,(%eax)
  10cd8f:	00 44 00 43          	add    %al,0x43(%eax,%eax,1)
  10cd93:	00 0d 00 00 00 00    	add    %cl,0x0
  10cd99:	00 00                	add    %al,(%eax)
  10cd9b:	00 44 00 44          	add    %al,0x44(%eax,%eax,1)
  10cd9f:	00 16                	add    %dl,(%esi)
  10cda1:	00 00                	add    %al,(%eax)
  10cda3:	00 00                	add    %al,(%eax)
  10cda5:	00 00                	add    %al,(%eax)
  10cda7:	00 44 00 45          	add    %al,0x45(%eax,%eax,1)
  10cdab:	00 45 00             	add    %al,0x0(%ebp)
  10cdae:	00 00                	add    %al,(%eax)
  10cdb0:	00 00                	add    %al,(%eax)
  10cdb2:	00 00                	add    %al,(%eax)
  10cdb4:	44                   	inc    %esp
  10cdb5:	00 42 00             	add    %al,0x0(%edx)
  10cdb8:	4d                   	dec    %ebp
  10cdb9:	00 00                	add    %al,(%eax)
  10cdbb:	00 00                	add    %al,(%eax)
  10cdbd:	00 00                	add    %al,(%eax)
  10cdbf:	00 44 00 47          	add    %al,0x47(%eax,%eax,1)
  10cdc3:	00 53 00             	add    %dl,0x0(%ebx)
  10cdc6:	00 00                	add    %al,(%eax)
  10cdc8:	11 0e                	adc    %ecx,(%esi)
  10cdca:	00 00                	add    %al,(%eax)
  10cdcc:	80 00 3f             	addb   $0x3f,(%eax)
  10cdcf:	00 f4                	add    %dh,%ah
  10cdd1:	ff                   	(bad)  
  10cdd2:	ff                   	(bad)  
  10cdd3:	ff 23                	jmp    *(%ebx)
  10cdd5:	0e                   	push   %cs
  10cdd6:	00 00                	add    %al,(%eax)
  10cdd8:	80 00 3f             	addb   $0x3f,(%eax)
  10cddb:	00 f0                	add    %dh,%al
  10cddd:	ff                   	(bad)  
  10cdde:	ff                   	(bad)  
  10cddf:	ff 00                	incl   (%eax)
  10cde1:	00 00                	add    %al,(%eax)
  10cde3:	00 c0                	add    %al,%al
	...
  10cded:	00 00                	add    %al,(%eax)
  10cdef:	00 e0                	add    %ah,%al
  10cdf1:	00 00                	add    %al,(%eax)
  10cdf3:	00 56 00             	add    %dl,0x0(%esi)
  10cdf6:	00 00                	add    %al,(%eax)
  10cdf8:	00 00                	add    %al,(%eax)
  10cdfa:	00 00                	add    %al,(%eax)
  10cdfc:	24 00                	and    $0x0,%al
  10cdfe:	00 00                	add    %al,(%eax)
  10ce00:	56                   	push   %esi
  10ce01:	00 00                	add    %al,(%eax)
  10ce03:	00 00                	add    %al,(%eax)
  10ce05:	00 00                	add    %al,(%eax)
  10ce07:	00 4e 00             	add    %cl,0x0(%esi)
  10ce0a:	00 00                	add    %al,(%eax)
  10ce0c:	86 04 10             	xchg   %al,(%eax,%edx,1)
  10ce0f:	00 a5 0d 00 00 26    	add    %ah,0x2600000d(%ebp)
  10ce15:	00 21                	add    %ah,(%ecx)
  10ce17:	00 14 b0             	add    %dl,(%eax,%esi,4)
  10ce1a:	10 00                	adc    %al,(%eax)
  10ce1c:	00 00                	add    %al,(%eax)
  10ce1e:	00 00                	add    %al,(%eax)
  10ce20:	64 00 00             	add    %al,%fs:(%eax)
  10ce23:	00 86 04 10 00 0d    	add    %al,0xd001004(%esi)
  10ce29:	00 00                	add    %al,(%eax)
  10ce2b:	00 64 00 02          	add    %ah,0x2(%eax,%eax,1)
  10ce2f:	00 86 04 10 00 2e    	add    %al,0x2e001004(%esi)
  10ce35:	0e                   	push   %cs
  10ce36:	00 00                	add    %al,(%eax)
  10ce38:	64 00 02             	add    %al,%fs:(%edx)
  10ce3b:	00 86 04 10 00 49    	add    %al,0x49001004(%esi)
  10ce41:	00 00                	add    %al,(%eax)
  10ce43:	00 3c 00             	add    %bh,(%eax,%eax,1)
  10ce46:	00 00                	add    %al,(%eax)
  10ce48:	00 00                	add    %al,(%eax)
  10ce4a:	00 00                	add    %al,(%eax)
  10ce4c:	58                   	pop    %eax
  10ce4d:	00 00                	add    %al,(%eax)
  10ce4f:	00 80 00 00 00 00    	add    %al,0x0(%eax)
  10ce55:	00 00                	add    %al,(%eax)
  10ce57:	00 82 00 00 00 80    	add    %al,-0x80000000(%edx)
  10ce5d:	00 00                	add    %al,(%eax)
  10ce5f:	00 00                	add    %al,(%eax)
  10ce61:	00 00                	add    %al,(%eax)
  10ce63:	00 9c 00 00 00 80 00 	add    %bl,0x800000(%eax,%eax,1)
  10ce6a:	00 00                	add    %al,(%eax)
  10ce6c:	00 00                	add    %al,(%eax)
  10ce6e:	00 00                	add    %al,(%eax)
  10ce70:	cb                   	lret   
  10ce71:	00 00                	add    %al,(%eax)
  10ce73:	00 80 00 00 00 00    	add    %al,0x0(%eax)
  10ce79:	00 00                	add    %al,(%eax)
  10ce7b:	00 f6                	add    %dh,%dh
  10ce7d:	00 00                	add    %al,(%eax)
  10ce7f:	00 80 00 00 00 00    	add    %al,0x0(%eax)
  10ce85:	00 00                	add    %al,(%eax)
  10ce87:	00 26                	add    %ah,(%esi)
  10ce89:	01 00                	add    %eax,(%eax)
  10ce8b:	00 80 00 00 00 00    	add    %al,0x0(%eax)
  10ce91:	00 00                	add    %al,(%eax)
  10ce93:	00 9e 01 00 00 80    	add    %bl,-0x7fffffff(%esi)
  10ce99:	00 00                	add    %al,(%eax)
  10ce9b:	00 00                	add    %al,(%eax)
  10ce9d:	00 00                	add    %al,(%eax)
  10ce9f:	00 f4                	add    %dh,%ah
  10cea1:	01 00                	add    %eax,(%eax)
  10cea3:	00 80 00 00 00 00    	add    %al,0x0(%eax)
  10cea9:	00 00                	add    %al,(%eax)
  10ceab:	00 46 02             	add    %al,0x2(%esi)
  10ceae:	00 00                	add    %al,(%eax)
  10ceb0:	80 00 00             	addb   $0x0,(%eax)
  10ceb3:	00 00                	add    %al,(%eax)
  10ceb5:	00 00                	add    %al,(%eax)
  10ceb7:	00 8b 02 00 00 80    	add    %cl,-0x7ffffffe(%ebx)
  10cebd:	00 00                	add    %al,(%eax)
  10cebf:	00 00                	add    %al,(%eax)
  10cec1:	00 00                	add    %al,(%eax)
  10cec3:	00 b8 02 00 00 80    	add    %bh,-0x7ffffffe(%eax)
  10cec9:	00 00                	add    %al,(%eax)
  10cecb:	00 00                	add    %al,(%eax)
  10cecd:	00 00                	add    %al,(%eax)
  10cecf:	00 e9                	add    %ch,%cl
  10ced1:	02 00                	add    (%eax),%al
  10ced3:	00 80 00 00 00 00    	add    %al,0x0(%eax)
  10ced9:	00 00                	add    %al,(%eax)
  10cedb:	00 13                	add    %dl,(%ebx)
  10cedd:	03 00                	add    (%eax),%eax
  10cedf:	00 80 00 00 00 00    	add    %al,0x0(%eax)
  10cee5:	00 00                	add    %al,(%eax)
  10cee7:	00 3c 03             	add    %bh,(%ebx,%eax,1)
  10ceea:	00 00                	add    %al,(%eax)
  10ceec:	80 00 00             	addb   $0x0,(%eax)
  10ceef:	00 00                	add    %al,(%eax)
  10cef1:	00 00                	add    %al,(%eax)
  10cef3:	00 56 03             	add    %dl,0x3(%esi)
  10cef6:	00 00                	add    %al,(%eax)
  10cef8:	80 00 00             	addb   $0x0,(%eax)
  10cefb:	00 00                	add    %al,(%eax)
  10cefd:	00 00                	add    %al,(%eax)
  10ceff:	00 71 03             	add    %dh,0x3(%ecx)
  10cf02:	00 00                	add    %al,(%eax)
  10cf04:	80 00 00             	addb   $0x0,(%eax)
  10cf07:	00 00                	add    %al,(%eax)
  10cf09:	00 00                	add    %al,(%eax)
  10cf0b:	00 92 03 00 00 80    	add    %dl,-0x7ffffffd(%edx)
  10cf11:	00 00                	add    %al,(%eax)
  10cf13:	00 00                	add    %al,(%eax)
  10cf15:	00 00                	add    %al,(%eax)
  10cf17:	00 af 03 00 00 80    	add    %ch,-0x7ffffffd(%edi)
  10cf1d:	00 00                	add    %al,(%eax)
  10cf1f:	00 00                	add    %al,(%eax)
  10cf21:	00 00                	add    %al,(%eax)
  10cf23:	00 cc                	add    %cl,%ah
  10cf25:	03 00                	add    (%eax),%eax
  10cf27:	00 80 00 00 00 00    	add    %al,0x0(%eax)
  10cf2d:	00 00                	add    %al,(%eax)
  10cf2f:	00 eb                	add    %ch,%bl
  10cf31:	03 00                	add    (%eax),%eax
  10cf33:	00 80 00 00 00 00    	add    %al,0x0(%eax)
  10cf39:	00 00                	add    %al,(%eax)
  10cf3b:	00 09                	add    %cl,(%ecx)
  10cf3d:	04 00                	add    $0x0,%al
  10cf3f:	00 80 00 00 00 00    	add    %al,0x0(%eax)
  10cf45:	00 00                	add    %al,(%eax)
  10cf47:	00 28                	add    %ch,(%eax)
  10cf49:	04 00                	add    $0x0,%al
  10cf4b:	00 80 00 00 00 00    	add    %al,0x0(%eax)
  10cf51:	00 00                	add    %al,(%eax)
  10cf53:	00 47 04             	add    %al,0x4(%edi)
  10cf56:	00 00                	add    %al,(%eax)
  10cf58:	80 00 00             	addb   $0x0,(%eax)
  10cf5b:	00 00                	add    %al,(%eax)
  10cf5d:	00 00                	add    %al,(%eax)
  10cf5f:	00 66 04             	add    %ah,0x4(%esi)
  10cf62:	00 00                	add    %al,(%eax)
  10cf64:	80 00 00             	addb   $0x0,(%eax)
  10cf67:	00 00                	add    %al,(%eax)
  10cf69:	00 00                	add    %al,(%eax)
  10cf6b:	00 87 04 00 00 80    	add    %al,-0x7ffffffc(%edi)
  10cf71:	00 00                	add    %al,(%eax)
  10cf73:	00 00                	add    %al,(%eax)
  10cf75:	00 00                	add    %al,(%eax)
  10cf77:	00 1b                	add    %bl,(%ebx)
  10cf79:	0c 00                	or     $0x0,%al
  10cf7b:	00 c2                	add    %al,%dl
  10cf7d:	00 00                	add    %al,(%eax)
  10cf7f:	00 90 5d 00 00 ac    	add    %dl,-0x53ffffa3(%eax)
  10cf85:	04 00                	add    $0x0,%al
  10cf87:	00 c2                	add    %al,%dl
  10cf89:	00 00                	add    %al,(%eax)
  10cf8b:	00 6c 1e 00          	add    %ch,0x0(%esi,%ebx,1)
  10cf8f:	00 3b                	add    %bh,(%ebx)
  10cf91:	0d 00 00 c2 00       	or     $0xc20000,%eax
  10cf96:	00 00                	add    %al,(%eax)
  10cf98:	50                   	push   %eax
  10cf99:	06                   	push   %es
  10cf9a:	00 00                	add    %al,(%eax)
  10cf9c:	0b 0c 00             	or     (%eax,%eax,1),%ecx
  10cf9f:	00 c2                	add    %al,%dl
  10cfa1:	00 00                	add    %al,(%eax)
  10cfa3:	00 00                	add    %al,(%eax)
  10cfa5:	00 00                	add    %al,(%eax)
  10cfa7:	00 b0 05 00 00 c2    	add    %dh,-0x3dfffffb(%eax)
  10cfad:	00 00                	add    %al,(%eax)
  10cfaf:	00 a7 8b 00 00 be    	add    %ah,-0x41ffff75(%edi)
  10cfb5:	05 00 00 c2 00       	add    $0xc20000,%eax
  10cfba:	00 00                	add    %al,(%eax)
  10cfbc:	9b                   	fwait
  10cfbd:	e1 00                	loope  10cfbf <cursor_y+0x179e>
  10cfbf:	00 44 0e 00          	add    %al,0x0(%esi,%ecx,1)
  10cfc3:	00 24 00             	add    %ah,(%eax,%eax,1)
  10cfc6:	52                   	push   %edx
  10cfc7:	00 86 04 10 00 52    	add    %al,0x52001004(%esi)
  10cfcd:	0e                   	push   %cs
  10cfce:	00 00                	add    %al,(%eax)
  10cfd0:	a0 00 52 00 08       	mov    0x8005200,%al
  10cfd5:	00 00                	add    %al,(%eax)
  10cfd7:	00 00                	add    %al,(%eax)
  10cfd9:	00 00                	add    %al,(%eax)
  10cfdb:	00 2e                	add    %ch,(%esi)
  10cfdd:	00 00                	add    %al,(%eax)
  10cfdf:	00 86 04 10 00 44    	add    %al,0x44001004(%esi)
  10cfe5:	0b 00                	or     (%eax),%eax
  10cfe7:	00 84 00 00 00 86 04 	add    %al,0x4860000(%eax,%eax,1)
  10cfee:	10 00                	adc    %al,(%eax)
  10cff0:	00 00                	add    %al,(%eax)
  10cff2:	00 00                	add    %al,(%eax)
  10cff4:	44                   	inc    %esp
  10cff5:	00 53 00             	add    %dl,0x0(%ebx)
	...
  10d000:	44                   	inc    %esp
  10d001:	00 54 00 06          	add    %dl,0x6(%eax,%eax,1)
  10d005:	00 00                	add    %al,(%eax)
  10d007:	00 00                	add    %al,(%eax)
  10d009:	00 00                	add    %al,(%eax)
  10d00b:	00 44 00 56          	add    %al,0x56(%eax,%eax,1)
  10d00f:	00 0c 00             	add    %cl,(%eax,%eax,1)
  10d012:	00 00                	add    %al,(%eax)
  10d014:	00 00                	add    %al,(%eax)
  10d016:	00 00                	add    %al,(%eax)
  10d018:	44                   	inc    %esp
  10d019:	00 56 00             	add    %dl,0x0(%esi)
  10d01c:	0d 00 00 00 00       	or     $0x0,%eax
  10d021:	00 00                	add    %al,(%eax)
  10d023:	00 44 00 59          	add    %al,0x59(%eax,%eax,1)
  10d027:	00 1d 00 00 00 00    	add    %bl,0x0
  10d02d:	00 00                	add    %al,(%eax)
  10d02f:	00 44 00 5a          	add    %al,0x5a(%eax,%eax,1)
  10d033:	00 2a                	add    %ch,(%edx)
  10d035:	00 00                	add    %al,(%eax)
  10d037:	00 5d 0e             	add    %bl,0xe(%ebp)
  10d03a:	00 00                	add    %al,(%eax)
  10d03c:	80 00 54             	addb   $0x54,(%eax)
  10d03f:	00 fc                	add    %bh,%ah
  10d041:	ff                   	(bad)  
  10d042:	ff                   	(bad)  
  10d043:	ff 00                	incl   (%eax)
  10d045:	00 00                	add    %al,(%eax)
  10d047:	00 c0                	add    %al,%al
	...
  10d051:	00 00                	add    %al,(%eax)
  10d053:	00 e0                	add    %ah,%al
  10d055:	00 00                	add    %al,(%eax)
  10d057:	00 2c 00             	add    %ch,(%eax,%eax,1)
  10d05a:	00 00                	add    %al,(%eax)
  10d05c:	00 00                	add    %al,(%eax)
  10d05e:	00 00                	add    %al,(%eax)
  10d060:	24 00                	and    $0x0,%al
  10d062:	00 00                	add    %al,(%eax)
  10d064:	2c 00                	sub    $0x0,%al
  10d066:	00 00                	add    %al,(%eax)
  10d068:	00 00                	add    %al,(%eax)
  10d06a:	00 00                	add    %al,(%eax)
  10d06c:	4e                   	dec    %esi
  10d06d:	00 00                	add    %al,(%eax)
  10d06f:	00 b2 04 10 00 67    	add    %dh,0x67001004(%edx)
  10d075:	0e                   	push   %cs
  10d076:	00 00                	add    %al,(%eax)
  10d078:	24 00                	and    $0x0,%al
  10d07a:	1a 00                	sbb    (%eax),%al
  10d07c:	b2 04                	mov    $0x4,%dl
  10d07e:	10 00                	adc    %al,(%eax)
  10d080:	76 0e                	jbe    10d090 <cursor_y+0x186f>
  10d082:	00 00                	add    %al,(%eax)
  10d084:	a0 00 1a 00 08       	mov    0x8001a00,%al
  10d089:	00 00                	add    %al,(%eax)
  10d08b:	00 00                	add    %al,(%eax)
  10d08d:	00 00                	add    %al,(%eax)
  10d08f:	00 2e                	add    %ch,(%esi)
  10d091:	00 00                	add    %al,(%eax)
  10d093:	00 b2 04 10 00 2e    	add    %dh,0x2e001004(%edx)
  10d099:	0e                   	push   %cs
  10d09a:	00 00                	add    %al,(%eax)
  10d09c:	84 00                	test   %al,(%eax)
  10d09e:	00 00                	add    %al,(%eax)
  10d0a0:	b2 04                	mov    $0x4,%dl
  10d0a2:	10 00                	adc    %al,(%eax)
  10d0a4:	00 00                	add    %al,(%eax)
  10d0a6:	00 00                	add    %al,(%eax)
  10d0a8:	44                   	inc    %esp
  10d0a9:	00 1b                	add    %bl,(%ebx)
	...
  10d0b3:	00 44 00 21          	add    %al,0x21(%eax,%eax,1)
  10d0b7:	00 06                	add    %al,(%esi)
  10d0b9:	00 00                	add    %al,(%eax)
  10d0bb:	00 00                	add    %al,(%eax)
  10d0bd:	00 00                	add    %al,(%eax)
  10d0bf:	00 44 00 22          	add    %al,0x22(%eax,%eax,1)
  10d0c3:	00 0c 00             	add    %cl,(%eax,%eax,1)
  10d0c6:	00 00                	add    %al,(%eax)
  10d0c8:	00 00                	add    %al,(%eax)
  10d0ca:	00 00                	add    %al,(%eax)
  10d0cc:	44                   	inc    %esp
  10d0cd:	00 25 00 26 00 00    	add    %ah,0x2600
  10d0d3:	00 00                	add    %al,(%eax)
  10d0d5:	00 00                	add    %al,(%eax)
  10d0d7:	00 44 00 27          	add    %al,0x27(%eax,%eax,1)
  10d0db:	00 31                	add    %dh,(%ecx)
  10d0dd:	00 00                	add    %al,(%eax)
  10d0df:	00 00                	add    %al,(%eax)
  10d0e1:	00 00                	add    %al,(%eax)
  10d0e3:	00 44 00 28          	add    %al,0x28(%eax,%eax,1)
  10d0e7:	00 41 00             	add    %al,0x0(%ecx)
  10d0ea:	00 00                	add    %al,(%eax)
  10d0ec:	84 0e                	test   %cl,(%esi)
  10d0ee:	00 00                	add    %al,(%eax)
  10d0f0:	28 00                	sub    %al,(%eax)
  10d0f2:	1d 00 20 b0 10       	sbb    $0x10b02000,%eax
  10d0f7:	00 bf 0e 00 00 80    	add    %bh,-0x7ffffff2(%edi)
  10d0fd:	00 1e                	add    %bl,(%esi)
  10d0ff:	00 f0                	add    %dh,%al
  10d101:	ff                   	(bad)  
  10d102:	ff                   	(bad)  
  10d103:	ff 81 0b 00 00 80    	incl   -0x7ffffff5(%ecx)
  10d109:	00 1f                	add    %bl,(%edi)
  10d10b:	00 f4                	add    %dh,%ah
  10d10d:	ff                   	(bad)  
  10d10e:	ff                   	(bad)  
  10d10f:	ff 00                	incl   (%eax)
  10d111:	00 00                	add    %al,(%eax)
  10d113:	00 c0                	add    %al,%al
	...
  10d11d:	00 00                	add    %al,(%eax)
  10d11f:	00 e0                	add    %ah,%al
  10d121:	00 00                	add    %al,(%eax)
  10d123:	00 44 00 00          	add    %al,0x0(%eax,%eax,1)
  10d127:	00 00                	add    %al,(%eax)
  10d129:	00 00                	add    %al,(%eax)
  10d12b:	00 24 00             	add    %ah,(%eax,%eax,1)
  10d12e:	00 00                	add    %al,(%eax)
  10d130:	44                   	inc    %esp
  10d131:	00 00                	add    %al,(%eax)
  10d133:	00 00                	add    %al,(%eax)
  10d135:	00 00                	add    %al,(%eax)
  10d137:	00 4e 00             	add    %cl,0x0(%esi)
  10d13a:	00 00                	add    %al,(%eax)
  10d13c:	f6 04 10 00          	testb  $0x0,(%eax,%edx,1)
  10d140:	ca 0e 00             	lret   $0xe
  10d143:	00 24 00             	add    %ah,(%eax,%eax,1)
  10d146:	2a 00                	sub    (%eax),%al
  10d148:	f6 04 10 00          	testb  $0x0,(%eax,%edx,1)
  10d14c:	df 0e                	fisttp (%esi)
  10d14e:	00 00                	add    %al,(%eax)
  10d150:	a0 00 2a 00 08       	mov    0x8002a00,%al
  10d155:	00 00                	add    %al,(%eax)
  10d157:	00 eb                	add    %ch,%bl
  10d159:	0e                   	push   %cs
  10d15a:	00 00                	add    %al,(%eax)
  10d15c:	a0 00 2a 00 0c       	mov    0xc002a00,%al
  10d161:	00 00                	add    %al,(%eax)
  10d163:	00 76 0e             	add    %dh,0xe(%esi)
  10d166:	00 00                	add    %al,(%eax)
  10d168:	a0 00 2a 00 10       	mov    0x10002a00,%al
  10d16d:	00 00                	add    %al,(%eax)
  10d16f:	00 00                	add    %al,(%eax)
  10d171:	00 00                	add    %al,(%eax)
  10d173:	00 2e                	add    %ch,(%esi)
  10d175:	00 00                	add    %al,(%eax)
  10d177:	00 f6                	add    %dh,%dh
  10d179:	04 10                	add    $0x10,%al
  10d17b:	00 00                	add    %al,(%eax)
  10d17d:	00 00                	add    %al,(%eax)
  10d17f:	00 44 00 2b          	add    %al,0x2b(%eax,%eax,1)
	...
  10d18b:	00 44 00 31          	add    %al,0x31(%eax,%eax,1)
  10d18f:	00 06                	add    %al,(%esi)
  10d191:	00 00                	add    %al,(%eax)
  10d193:	00 00                	add    %al,(%eax)
  10d195:	00 00                	add    %al,(%eax)
  10d197:	00 44 00 32          	add    %al,0x32(%eax,%eax,1)
  10d19b:	00 0c 00             	add    %cl,(%eax,%eax,1)
  10d19e:	00 00                	add    %al,(%eax)
  10d1a0:	00 00                	add    %al,(%eax)
  10d1a2:	00 00                	add    %al,(%eax)
  10d1a4:	44                   	inc    %esp
  10d1a5:	00 35 00 26 00 00    	add    %dh,0x2600
  10d1ab:	00 00                	add    %al,(%eax)
  10d1ad:	00 00                	add    %al,(%eax)
  10d1af:	00 44 00 37          	add    %al,0x37(%eax,%eax,1)
  10d1b3:	00 31                	add    %dh,(%ecx)
  10d1b5:	00 00                	add    %al,(%eax)
  10d1b7:	00 00                	add    %al,(%eax)
  10d1b9:	00 00                	add    %al,(%eax)
  10d1bb:	00 44 00 38          	add    %al,0x38(%eax,%eax,1)
  10d1bf:	00 47 00             	add    %al,0x0(%edi)
  10d1c2:	00 00                	add    %al,(%eax)
  10d1c4:	f7                   	(bad)  
  10d1c5:	0e                   	push   %cs
  10d1c6:	00 00                	add    %al,(%eax)
  10d1c8:	28 00                	sub    %al,(%eax)
  10d1ca:	2d 00 20 b4 10       	sub    $0x10b42000,%eax
  10d1cf:	00 bf 0e 00 00 80    	add    %bh,-0x7ffffff2(%edi)
  10d1d5:	00 2e                	add    %ch,(%esi)
  10d1d7:	00 f0                	add    %dh,%al
  10d1d9:	ff                   	(bad)  
  10d1da:	ff                   	(bad)  
  10d1db:	ff 81 0b 00 00 80    	incl   -0x7ffffff5(%ecx)
  10d1e1:	00 2f                	add    %ch,(%edi)
  10d1e3:	00 f4                	add    %dh,%ah
  10d1e5:	ff                   	(bad)  
  10d1e6:	ff                   	(bad)  
  10d1e7:	ff 00                	incl   (%eax)
  10d1e9:	00 00                	add    %al,(%eax)
  10d1eb:	00 c0                	add    %al,%al
	...
  10d1f5:	00 00                	add    %al,(%eax)
  10d1f7:	00 e0                	add    %ah,%al
  10d1f9:	00 00                	add    %al,(%eax)
  10d1fb:	00 4a 00             	add    %cl,0x0(%edx)
  10d1fe:	00 00                	add    %al,(%eax)
  10d200:	00 00                	add    %al,(%eax)
  10d202:	00 00                	add    %al,(%eax)
  10d204:	24 00                	and    $0x0,%al
  10d206:	00 00                	add    %al,(%eax)
  10d208:	4a                   	dec    %edx
  10d209:	00 00                	add    %al,(%eax)
  10d20b:	00 00                	add    %al,(%eax)
  10d20d:	00 00                	add    %al,(%eax)
  10d20f:	00 4e 00             	add    %cl,0x0(%esi)
  10d212:	00 00                	add    %al,(%eax)
  10d214:	40                   	inc    %eax
  10d215:	05 10 00 04 0f       	add    $0xf040010,%eax
  10d21a:	00 00                	add    %al,(%eax)
  10d21c:	24 00                	and    $0x0,%al
  10d21e:	3c 00                	cmp    $0x0,%al
  10d220:	40                   	inc    %eax
  10d221:	05 10 00 15 0f       	add    $0xf150010,%eax
  10d226:	00 00                	add    %al,(%eax)
  10d228:	a0 00 3c 00 08       	mov    0x8003c00,%al
  10d22d:	00 00                	add    %al,(%eax)
  10d22f:	00 00                	add    %al,(%eax)
  10d231:	00 00                	add    %al,(%eax)
  10d233:	00 2e                	add    %ch,(%esi)
  10d235:	00 00                	add    %al,(%eax)
  10d237:	00 40 05             	add    %al,0x5(%eax)
  10d23a:	10 00                	adc    %al,(%eax)
  10d23c:	00 00                	add    %al,(%eax)
  10d23e:	00 00                	add    %al,(%eax)
  10d240:	44                   	inc    %esp
  10d241:	00 3d 00 00 00 00    	add    %bh,0x0
  10d247:	00 00                	add    %al,(%eax)
  10d249:	00 00                	add    %al,(%eax)
  10d24b:	00 44 00 3e          	add    %al,0x3e(%eax,%eax,1)
  10d24f:	00 07                	add    %al,(%edi)
  10d251:	00 00                	add    %al,(%eax)
  10d253:	00 00                	add    %al,(%eax)
  10d255:	00 00                	add    %al,(%eax)
  10d257:	00 44 00 40          	add    %al,0x40(%eax,%eax,1)
  10d25b:	00 0e                	add    %cl,(%esi)
  10d25d:	00 00                	add    %al,(%eax)
  10d25f:	00 00                	add    %al,(%eax)
  10d261:	00 00                	add    %al,(%eax)
  10d263:	00 44 00 41          	add    %al,0x41(%eax,%eax,1)
  10d267:	00 10                	add    %dl,(%eax)
  10d269:	00 00                	add    %al,(%eax)
  10d26b:	00 00                	add    %al,(%eax)
  10d26d:	00 00                	add    %al,(%eax)
  10d26f:	00 44 00 40          	add    %al,0x40(%eax,%eax,1)
  10d273:	00 39                	add    %bh,(%ecx)
  10d275:	00 00                	add    %al,(%eax)
  10d277:	00 00                	add    %al,(%eax)
  10d279:	00 00                	add    %al,(%eax)
  10d27b:	00 44 00 40          	add    %al,0x40(%eax,%eax,1)
  10d27f:	00 45 00             	add    %al,0x0(%ebp)
  10d282:	00 00                	add    %al,(%eax)
  10d284:	00 00                	add    %al,(%eax)
  10d286:	00 00                	add    %al,(%eax)
  10d288:	44                   	inc    %esp
  10d289:	00 44 00 51          	add    %al,0x51(%eax,%eax,1)
  10d28d:	00 00                	add    %al,(%eax)
  10d28f:	00 00                	add    %al,(%eax)
  10d291:	00 00                	add    %al,(%eax)
  10d293:	00 44 00 45          	add    %al,0x45(%eax,%eax,1)
  10d297:	00 54 00 00          	add    %dl,0x0(%eax,%eax,1)
  10d29b:	00 81 0b 00 00 80    	add    %al,-0x7ffffff5(%ecx)
  10d2a1:	00 3e                	add    %bh,(%esi)
  10d2a3:	00 fc                	add    %bh,%ah
  10d2a5:	ff                   	(bad)  
  10d2a6:	ff                   	(bad)  
  10d2a7:	ff 00                	incl   (%eax)
  10d2a9:	00 00                	add    %al,(%eax)
  10d2ab:	00 c0                	add    %al,%al
	...
  10d2b5:	00 00                	add    %al,(%eax)
  10d2b7:	00 e0                	add    %ah,%al
  10d2b9:	00 00                	add    %al,(%eax)
  10d2bb:	00 5a 00             	add    %bl,0x0(%edx)
  10d2be:	00 00                	add    %al,(%eax)
  10d2c0:	00 00                	add    %al,(%eax)
  10d2c2:	00 00                	add    %al,(%eax)
  10d2c4:	24 00                	and    $0x0,%al
  10d2c6:	00 00                	add    %al,(%eax)
  10d2c8:	5a                   	pop    %edx
  10d2c9:	00 00                	add    %al,(%eax)
  10d2cb:	00 00                	add    %al,(%eax)
  10d2cd:	00 00                	add    %al,(%eax)
  10d2cf:	00 4e 00             	add    %cl,0x0(%esi)
  10d2d2:	00 00                	add    %al,(%eax)
  10d2d4:	9a 05 10 00 26 0f 00 	lcall  $0xf,$0x26001005
  10d2db:	00 24 00             	add    %ah,(%eax,%eax,1)
  10d2de:	54                   	push   %esp
  10d2df:	00 9a 05 10 00 3c    	add    %bl,0x3c001005(%edx)
  10d2e5:	0f 00 00             	sldt   (%eax)
  10d2e8:	a0 00 54 00 08       	mov    0x8005400,%al
  10d2ed:	00 00                	add    %al,(%eax)
  10d2ef:	00 48 0f             	add    %cl,0xf(%eax)
  10d2f2:	00 00                	add    %al,(%eax)
  10d2f4:	a0 00 54 00 0c       	mov    0xc005400,%al
  10d2f9:	00 00                	add    %al,(%eax)
  10d2fb:	00 53 0f             	add    %dl,0xf(%ebx)
  10d2fe:	00 00                	add    %al,(%eax)
  10d300:	a0 00 54 00 10       	mov    0x10005400,%al
  10d305:	00 00                	add    %al,(%eax)
  10d307:	00 5f 0f             	add    %bl,0xf(%edi)
  10d30a:	00 00                	add    %al,(%eax)
  10d30c:	a0 00 54 00 14       	mov    0x14005400,%al
  10d311:	00 00                	add    %al,(%eax)
  10d313:	00 6b 0f             	add    %ch,0xf(%ebx)
  10d316:	00 00                	add    %al,(%eax)
  10d318:	a0 00 54 00 18       	mov    0x18005400,%al
  10d31d:	00 00                	add    %al,(%eax)
  10d31f:	00 7c 0f 00          	add    %bh,0x0(%edi,%ecx,1)
  10d323:	00 a0 00 54 00 1c    	add    %ah,0x1c005400(%eax)
  10d329:	00 00                	add    %al,(%eax)
  10d32b:	00 00                	add    %al,(%eax)
  10d32d:	00 00                	add    %al,(%eax)
  10d32f:	00 2e                	add    %ch,(%esi)
  10d331:	00 00                	add    %al,(%eax)
  10d333:	00 9a 05 10 00 00    	add    %bl,0x1005(%edx)
  10d339:	00 00                	add    %al,(%eax)
  10d33b:	00 44 00 55          	add    %al,0x55(%eax,%eax,1)
	...
  10d347:	00 44 00 57          	add    %al,0x57(%eax,%eax,1)
  10d34b:	00 06                	add    %al,(%esi)
  10d34d:	00 00                	add    %al,(%eax)
  10d34f:	00 00                	add    %al,(%eax)
  10d351:	00 00                	add    %al,(%eax)
  10d353:	00 44 00 5a          	add    %al,0x5a(%eax,%eax,1)
  10d357:	00 0d 00 00 00 00    	add    %cl,0x0
  10d35d:	00 00                	add    %al,(%eax)
  10d35f:	00 44 00 5b          	add    %al,0x5b(%eax,%eax,1)
  10d363:	00 17                	add    %dl,(%edi)
  10d365:	00 00                	add    %al,(%eax)
  10d367:	00 00                	add    %al,(%eax)
  10d369:	00 00                	add    %al,(%eax)
  10d36b:	00 44 00 5d          	add    %al,0x5d(%eax,%eax,1)
  10d36f:	00 1e                	add    %bl,(%esi)
  10d371:	00 00                	add    %al,(%eax)
  10d373:	00 00                	add    %al,(%eax)
  10d375:	00 00                	add    %al,(%eax)
  10d377:	00 44 00 5e          	add    %al,0x5e(%eax,%eax,1)
  10d37b:	00 28                	add    %ch,(%eax)
  10d37d:	00 00                	add    %al,(%eax)
  10d37f:	00 00                	add    %al,(%eax)
  10d381:	00 00                	add    %al,(%eax)
  10d383:	00 44 00 60          	add    %al,0x60(%eax,%eax,1)
  10d387:	00 2c 00             	add    %ch,(%eax,%eax,1)
  10d38a:	00 00                	add    %al,(%eax)
  10d38c:	00 00                	add    %al,(%eax)
  10d38e:	00 00                	add    %al,(%eax)
  10d390:	44                   	inc    %esp
  10d391:	00 60 00             	add    %ah,0x0(%eax)
  10d394:	32 00                	xor    (%eax),%al
  10d396:	00 00                	add    %al,(%eax)
  10d398:	00 00                	add    %al,(%eax)
  10d39a:	00 00                	add    %al,(%eax)
  10d39c:	44                   	inc    %esp
  10d39d:	00 61 00             	add    %ah,0x0(%ecx)
  10d3a0:	38 00                	cmp    %al,(%eax)
  10d3a2:	00 00                	add    %al,(%eax)
  10d3a4:	00 00                	add    %al,(%eax)
  10d3a6:	00 00                	add    %al,(%eax)
  10d3a8:	44                   	inc    %esp
  10d3a9:	00 64 00 42          	add    %ah,0x42(%eax,%eax,1)
  10d3ad:	00 00                	add    %al,(%eax)
  10d3af:	00 00                	add    %al,(%eax)
  10d3b1:	00 00                	add    %al,(%eax)
  10d3b3:	00 44 00 64          	add    %al,0x64(%eax,%eax,1)
  10d3b7:	00 4c 00 00          	add    %cl,0x0(%eax,%eax,1)
  10d3bb:	00 00                	add    %al,(%eax)
  10d3bd:	00 00                	add    %al,(%eax)
  10d3bf:	00 44 00 64          	add    %al,0x64(%eax,%eax,1)
  10d3c3:	00 53 00             	add    %dl,0x0(%ebx)
  10d3c6:	00 00                	add    %al,(%eax)
  10d3c8:	00 00                	add    %al,(%eax)
  10d3ca:	00 00                	add    %al,(%eax)
  10d3cc:	44                   	inc    %esp
  10d3cd:	00 64 00 58          	add    %ah,0x58(%eax,%eax,1)
  10d3d1:	00 00                	add    %al,(%eax)
  10d3d3:	00 00                	add    %al,(%eax)
  10d3d5:	00 00                	add    %al,(%eax)
  10d3d7:	00 44 00 66          	add    %al,0x66(%eax,%eax,1)
  10d3db:	00 5b 00             	add    %bl,0x0(%ebx)
  10d3de:	00 00                	add    %al,(%eax)
  10d3e0:	00 00                	add    %al,(%eax)
  10d3e2:	00 00                	add    %al,(%eax)
  10d3e4:	44                   	inc    %esp
  10d3e5:	00 66 00             	add    %ah,0x0(%esi)
  10d3e8:	65 00 00             	add    %al,%gs:(%eax)
  10d3eb:	00 00                	add    %al,(%eax)
  10d3ed:	00 00                	add    %al,(%eax)
  10d3ef:	00 44 00 67          	add    %al,0x67(%eax,%eax,1)
  10d3f3:	00 6b 00             	add    %ch,0x0(%ebx)
  10d3f6:	00 00                	add    %al,(%eax)
  10d3f8:	00 00                	add    %al,(%eax)
  10d3fa:	00 00                	add    %al,(%eax)
  10d3fc:	44                   	inc    %esp
  10d3fd:	00 68 00             	add    %ch,0x0(%eax)
  10d400:	6f                   	outsl  %ds:(%esi),(%dx)
  10d401:	00 00                	add    %al,(%eax)
  10d403:	00 00                	add    %al,(%eax)
  10d405:	00 00                	add    %al,(%eax)
  10d407:	00 44 00 6a          	add    %al,0x6a(%eax,%eax,1)
  10d40b:	00 74 00 00          	add    %dh,0x0(%eax,%eax,1)
  10d40f:	00 00                	add    %al,(%eax)
  10d411:	00 00                	add    %al,(%eax)
  10d413:	00 44 00 6a          	add    %al,0x6a(%eax,%eax,1)
  10d417:	00 7e 00             	add    %bh,0x0(%esi)
  10d41a:	00 00                	add    %al,(%eax)
  10d41c:	00 00                	add    %al,(%eax)
  10d41e:	00 00                	add    %al,(%eax)
  10d420:	44                   	inc    %esp
  10d421:	00 6a 00             	add    %ch,0x0(%edx)
  10d424:	89 00                	mov    %eax,(%eax)
  10d426:	00 00                	add    %al,(%eax)
  10d428:	00 00                	add    %al,(%eax)
  10d42a:	00 00                	add    %al,(%eax)
  10d42c:	44                   	inc    %esp
  10d42d:	00 6a 00             	add    %ch,0x0(%edx)
  10d430:	8e 00                	mov    (%eax),%es
  10d432:	00 00                	add    %al,(%eax)
  10d434:	00 00                	add    %al,(%eax)
  10d436:	00 00                	add    %al,(%eax)
  10d438:	44                   	inc    %esp
  10d439:	00 6d 00             	add    %ch,0x0(%ebp)
  10d43c:	91                   	xchg   %eax,%ecx
  10d43d:	00 00                	add    %al,(%eax)
  10d43f:	00 00                	add    %al,(%eax)
  10d441:	00 00                	add    %al,(%eax)
  10d443:	00 44 00 6e          	add    %al,0x6e(%eax,%eax,1)
  10d447:	00 97 00 00 00 00    	add    %dl,0x0(%edi)
  10d44d:	00 00                	add    %al,(%eax)
  10d44f:	00 44 00 70          	add    %al,0x70(%eax,%eax,1)
  10d453:	00 9b 00 00 00 00    	add    %bl,0x0(%ebx)
  10d459:	00 00                	add    %al,(%eax)
  10d45b:	00 44 00 71          	add    %al,0x71(%eax,%eax,1)
  10d45f:	00 a5 00 00 00 00    	add    %ah,0x0(%ebp)
  10d465:	00 00                	add    %al,(%eax)
  10d467:	00 44 00 72          	add    %al,0x72(%eax,%eax,1)
  10d46b:	00 ab 00 00 00 00    	add    %ch,0x0(%ebx)
  10d471:	00 00                	add    %al,(%eax)
  10d473:	00 44 00 73          	add    %al,0x73(%eax,%eax,1)
  10d477:	00 b1 00 00 00 00    	add    %dh,0x0(%ecx)
  10d47d:	00 00                	add    %al,(%eax)
  10d47f:	00 44 00 74          	add    %al,0x74(%eax,%eax,1)
  10d483:	00 b7 00 00 00 00    	add    %dh,0x0(%edi)
  10d489:	00 00                	add    %al,(%eax)
  10d48b:	00 44 00 77          	add    %al,0x77(%eax,%eax,1)
  10d48f:	00 bb 00 00 00 00    	add    %bh,0x0(%ebx)
  10d495:	00 00                	add    %al,(%eax)
  10d497:	00 44 00 78          	add    %al,0x78(%eax,%eax,1)
  10d49b:	00 c2                	add    %al,%dl
  10d49d:	00 00                	add    %al,(%eax)
  10d49f:	00 00                	add    %al,(%eax)
  10d4a1:	00 00                	add    %al,(%eax)
  10d4a3:	00 44 00 79          	add    %al,0x79(%eax,%eax,1)
  10d4a7:	00 c8                	add    %cl,%al
  10d4a9:	00 00                	add    %al,(%eax)
  10d4ab:	00 00                	add    %al,(%eax)
  10d4ad:	00 00                	add    %al,(%eax)
  10d4af:	00 44 00 7c          	add    %al,0x7c(%eax,%eax,1)
  10d4b3:	00 d8                	add    %bl,%al
  10d4b5:	00 00                	add    %al,(%eax)
  10d4b7:	00 00                	add    %al,(%eax)
  10d4b9:	00 00                	add    %al,(%eax)
  10d4bb:	00 44 00 7b          	add    %al,0x7b(%eax,%eax,1)
  10d4bf:	00 06                	add    %al,(%esi)
  10d4c1:	01 00                	add    %eax,(%eax)
  10d4c3:	00 00                	add    %al,(%eax)
  10d4c5:	00 00                	add    %al,(%eax)
  10d4c7:	00 44 00 80          	add    %al,-0x80(%eax,%eax,1)
  10d4cb:	00 0c 01             	add    %cl,(%ecx,%eax,1)
  10d4ce:	00 00                	add    %al,(%eax)
  10d4d0:	00 00                	add    %al,(%eax)
  10d4d2:	00 00                	add    %al,(%eax)
  10d4d4:	44                   	inc    %esp
  10d4d5:	00 81 00 14 01 00    	add    %al,0x11400(%ecx)
  10d4db:	00 00                	add    %al,(%eax)
  10d4dd:	00 00                	add    %al,(%eax)
  10d4df:	00 44 00 83          	add    %al,-0x7d(%eax,%eax,1)
  10d4e3:	00 1a                	add    %bl,(%edx)
  10d4e5:	01 00                	add    %eax,(%eax)
  10d4e7:	00 00                	add    %al,(%eax)
  10d4e9:	00 00                	add    %al,(%eax)
  10d4eb:	00 44 00 85          	add    %al,-0x7b(%eax,%eax,1)
  10d4ef:	00 20                	add    %ah,(%eax)
  10d4f1:	01 00                	add    %eax,(%eax)
  10d4f3:	00 00                	add    %al,(%eax)
  10d4f5:	00 00                	add    %al,(%eax)
  10d4f7:	00 44 00 86          	add    %al,-0x7a(%eax,%eax,1)
  10d4fb:	00 2a                	add    %ch,(%edx)
  10d4fd:	01 00                	add    %eax,(%eax)
  10d4ff:	00 00                	add    %al,(%eax)
  10d501:	00 00                	add    %al,(%eax)
  10d503:	00 44 00 87          	add    %al,-0x79(%eax,%eax,1)
  10d507:	00 2c 01             	add    %ch,(%ecx,%eax,1)
  10d50a:	00 00                	add    %al,(%eax)
  10d50c:	00 00                	add    %al,(%eax)
  10d50e:	00 00                	add    %al,(%eax)
  10d510:	44                   	inc    %esp
  10d511:	00 86 00 38 01 00    	add    %al,0x13800(%esi)
  10d517:	00 00                	add    %al,(%eax)
  10d519:	00 00                	add    %al,(%eax)
  10d51b:	00 44 00 8a          	add    %al,-0x76(%eax,%eax,1)
  10d51f:	00 45 01             	add    %al,0x1(%ebp)
  10d522:	00 00                	add    %al,(%eax)
  10d524:	00 00                	add    %al,(%eax)
  10d526:	00 00                	add    %al,(%eax)
  10d528:	44                   	inc    %esp
  10d529:	00 8b 00 4b 01 00    	add    %cl,0x14b00(%ebx)
  10d52f:	00 00                	add    %al,(%eax)
  10d531:	00 00                	add    %al,(%eax)
  10d533:	00 44 00 8d          	add    %al,-0x73(%eax,%eax,1)
  10d537:	00 5a 01             	add    %bl,0x1(%edx)
  10d53a:	00 00                	add    %al,(%eax)
  10d53c:	00 00                	add    %al,(%eax)
  10d53e:	00 00                	add    %al,(%eax)
  10d540:	44                   	inc    %esp
  10d541:	00 8e 00 64 01 00    	add    %cl,0x16400(%esi)
  10d547:	00 00                	add    %al,(%eax)
  10d549:	00 00                	add    %al,(%eax)
  10d54b:	00 44 00 8f          	add    %al,-0x71(%eax,%eax,1)
  10d54f:	00 6a 01             	add    %ch,0x1(%edx)
  10d552:	00 00                	add    %al,(%eax)
  10d554:	00 00                	add    %al,(%eax)
  10d556:	00 00                	add    %al,(%eax)
  10d558:	44                   	inc    %esp
  10d559:	00 90 00 78 01 00    	add    %dl,0x17800(%eax)
  10d55f:	00 00                	add    %al,(%eax)
  10d561:	00 00                	add    %al,(%eax)
  10d563:	00 44 00 91          	add    %al,-0x6f(%eax,%eax,1)
  10d567:	00 7e 01             	add    %bh,0x1(%esi)
  10d56a:	00 00                	add    %al,(%eax)
  10d56c:	00 00                	add    %al,(%eax)
  10d56e:	00 00                	add    %al,(%eax)
  10d570:	44                   	inc    %esp
  10d571:	00 92 00 8a 01 00    	add    %dl,0x18a00(%edx)
  10d577:	00 00                	add    %al,(%eax)
  10d579:	00 00                	add    %al,(%eax)
  10d57b:	00 44 00 95          	add    %al,-0x6b(%eax,%eax,1)
  10d57f:	00 9c 01 00 00 00 00 	add    %bl,0x0(%ecx,%eax,1)
  10d586:	00 00                	add    %al,(%eax)
  10d588:	44                   	inc    %esp
  10d589:	00 96 00 a6 01 00    	add    %dl,0x1a600(%esi)
  10d58f:	00 00                	add    %al,(%eax)
  10d591:	00 00                	add    %al,(%eax)
  10d593:	00 44 00 97          	add    %al,-0x69(%eax,%eax,1)
  10d597:	00 a8 01 00 00 00    	add    %ch,0x1(%eax)
  10d59d:	00 00                	add    %al,(%eax)
  10d59f:	00 44 00 96          	add    %al,-0x6a(%eax,%eax,1)
  10d5a3:	00 b7 01 00 00 00    	add    %dh,0x1(%edi)
  10d5a9:	00 00                	add    %al,(%eax)
  10d5ab:	00 44 00 9a          	add    %al,-0x66(%eax,%eax,1)
  10d5af:	00 c4                	add    %al,%ah
  10d5b1:	01 00                	add    %eax,(%eax)
  10d5b3:	00 00                	add    %al,(%eax)
  10d5b5:	00 00                	add    %al,(%eax)
  10d5b7:	00 44 00 9b          	add    %al,-0x65(%eax,%eax,1)
  10d5bb:	00 c6                	add    %al,%dh
  10d5bd:	01 00                	add    %eax,(%eax)
  10d5bf:	00 00                	add    %al,(%eax)
  10d5c1:	00 00                	add    %al,(%eax)
  10d5c3:	00 44 00 9a          	add    %al,-0x66(%eax,%eax,1)
  10d5c7:	00 d2                	add    %dl,%dl
  10d5c9:	01 00                	add    %eax,(%eax)
  10d5cb:	00 00                	add    %al,(%eax)
  10d5cd:	00 00                	add    %al,(%eax)
  10d5cf:	00 44 00 9d          	add    %al,-0x63(%eax,%eax,1)
  10d5d3:	00 e0                	add    %ah,%al
  10d5d5:	01 00                	add    %eax,(%eax)
  10d5d7:	00 00                	add    %al,(%eax)
  10d5d9:	00 00                	add    %al,(%eax)
  10d5db:	00 44 00 9e          	add    %al,-0x62(%eax,%eax,1)
  10d5df:	00 e2                	add    %ah,%dl
  10d5e1:	01 00                	add    %eax,(%eax)
  10d5e3:	00 00                	add    %al,(%eax)
  10d5e5:	00 00                	add    %al,(%eax)
  10d5e7:	00 44 00 9d          	add    %al,-0x63(%eax,%eax,1)
  10d5eb:	00 f8                	add    %bh,%al
  10d5ed:	01 00                	add    %eax,(%eax)
  10d5ef:	00 00                	add    %al,(%eax)
  10d5f1:	00 00                	add    %al,(%eax)
  10d5f3:	00 44 00 a0          	add    %al,-0x60(%eax,%eax,1)
  10d5f7:	00 05 02 00 00 00    	add    %al,0x2
  10d5fd:	00 00                	add    %al,(%eax)
  10d5ff:	00 44 00 a1          	add    %al,-0x5f(%eax,%eax,1)
  10d603:	00 07                	add    %al,(%edi)
  10d605:	02 00                	add    (%eax),%al
  10d607:	00 00                	add    %al,(%eax)
  10d609:	00 00                	add    %al,(%eax)
  10d60b:	00 44 00 a0          	add    %al,-0x60(%eax,%eax,1)
  10d60f:	00 13                	add    %dl,(%ebx)
  10d611:	02 00                	add    (%eax),%al
  10d613:	00 00                	add    %al,(%eax)
  10d615:	00 00                	add    %al,(%eax)
  10d617:	00 44 00 a4          	add    %al,-0x5c(%eax,%eax,1)
  10d61b:	00 20                	add    %ah,(%eax)
  10d61d:	02 00                	add    (%eax),%al
  10d61f:	00 00                	add    %al,(%eax)
  10d621:	00 00                	add    %al,(%eax)
  10d623:	00 44 00 a5          	add    %al,-0x5b(%eax,%eax,1)
  10d627:	00 23                	add    %ah,(%ebx)
  10d629:	02 00                	add    (%eax),%al
  10d62b:	00 88 0f 00 00 80    	add    %cl,-0x7ffffff1(%eax)
  10d631:	00 56 00             	add    %dl,0x0(%esi)
  10d634:	f3 ff                	repz (bad) 
  10d636:	ff                   	(bad)  
  10d637:	ff 90 0f 00 00 80    	call   *-0x7ffffff1(%eax)
  10d63d:	00 56 00             	add    %dl,0x0(%esi)
  10d640:	ff                   	(bad)  
  10d641:	ff                   	(bad)  
  10d642:	ff                   	(bad)  
  10d643:	ff 9b 0f 00 00 80    	lcall  *-0x7ffffff1(%ebx)
  10d649:	00 56 00             	add    %dl,0x0(%esi)
  10d64c:	c8 ff ff ff          	enter  $0xffff,$0xff
  10d650:	ba 0f 00 00 80       	mov    $0x8000000f,%edx
  10d655:	00 57 00             	add    %dl,0x0(%edi)
  10d658:	f8                   	clc    
  10d659:	ff                   	(bad)  
  10d65a:	ff                   	(bad)  
  10d65b:	ff 81 0b 00 00 80    	incl   -0x7ffffff5(%ecx)
  10d661:	00 58 00             	add    %bl,0x0(%eax)
  10d664:	f4                   	hlt    
  10d665:	ff                   	(bad)  
  10d666:	ff                   	(bad)  
  10d667:	ff 00                	incl   (%eax)
  10d669:	00 00                	add    %al,(%eax)
  10d66b:	00 c0                	add    %al,%al
  10d66d:	00 00                	add    %al,(%eax)
  10d66f:	00 00                	add    %al,(%eax)
  10d671:	00 00                	add    %al,(%eax)
  10d673:	00 c7                	add    %al,%bh
  10d675:	0f 00 00             	sldt   (%eax)
  10d678:	80 00 7c             	addb   $0x7c,(%eax)
  10d67b:	00 ec                	add    %ch,%ah
  10d67d:	ff                   	(bad)  
  10d67e:	ff                   	(bad)  
  10d67f:	ff 00                	incl   (%eax)
  10d681:	00 00                	add    %al,(%eax)
  10d683:	00 c0                	add    %al,%al
  10d685:	00 00                	add    %al,(%eax)
  10d687:	00 d8                	add    %bl,%al
  10d689:	00 00                	add    %al,(%eax)
  10d68b:	00 00                	add    %al,(%eax)
  10d68d:	00 00                	add    %al,(%eax)
  10d68f:	00 e0                	add    %ah,%al
  10d691:	00 00                	add    %al,(%eax)
  10d693:	00 ee                	add    %ch,%dh
  10d695:	00 00                	add    %al,(%eax)
  10d697:	00 00                	add    %al,(%eax)
  10d699:	00 00                	add    %al,(%eax)
  10d69b:	00 e0                	add    %ah,%al
  10d69d:	00 00                	add    %al,(%eax)
  10d69f:	00 25 02 00 00 00    	add    %ah,0x2
  10d6a5:	00 00                	add    %al,(%eax)
  10d6a7:	00 24 00             	add    %ah,(%eax,%eax,1)
  10d6aa:	00 00                	add    %al,(%eax)
  10d6ac:	25 02 00 00 00       	and    $0x2,%eax
  10d6b1:	00 00                	add    %al,(%eax)
  10d6b3:	00 4e 00             	add    %cl,0x0(%esi)
  10d6b6:	00 00                	add    %al,(%eax)
  10d6b8:	bf 07 10 00 d3       	mov    $0xd3001007,%edi
  10d6bd:	0f 00 00             	sldt   (%eax)
  10d6c0:	24 00                	and    $0x0,%al
  10d6c2:	a7                   	cmpsl  %es:(%edi),%ds:(%esi)
  10d6c3:	00 bf 07 10 00 e3    	add    %bh,-0x1cffeff9(%edi)
  10d6c9:	0f 00 00             	sldt   (%eax)
  10d6cc:	a0 00 a7 00 08       	mov    0x800a700,%al
  10d6d1:	00 00                	add    %al,(%eax)
  10d6d3:	00 76 0e             	add    %dh,0xe(%esi)
  10d6d6:	00 00                	add    %al,(%eax)
  10d6d8:	a0 00 a7 00 0c       	mov    0xc00a700,%al
  10d6dd:	00 00                	add    %al,(%eax)
  10d6df:	00 f0                	add    %dh,%al
  10d6e1:	0f 00 00             	sldt   (%eax)
  10d6e4:	a0 00 a7 00 10       	mov    0x1000a700,%al
  10d6e9:	00 00                	add    %al,(%eax)
  10d6eb:	00 00                	add    %al,(%eax)
  10d6ed:	00 00                	add    %al,(%eax)
  10d6ef:	00 2e                	add    %ch,(%esi)
  10d6f1:	00 00                	add    %al,(%eax)
  10d6f3:	00 bf 07 10 00 00    	add    %bh,0x1007(%edi)
  10d6f9:	00 00                	add    %al,(%eax)
  10d6fb:	00 44 00 a8          	add    %al,-0x58(%eax,%eax,1)
	...
  10d707:	00 44 00 b4          	add    %al,-0x4c(%eax,%eax,1)
  10d70b:	00 06                	add    %al,(%esi)
  10d70d:	00 00                	add    %al,(%eax)
  10d70f:	00 00                	add    %al,(%eax)
  10d711:	00 00                	add    %al,(%eax)
  10d713:	00 44 00 b5          	add    %al,-0x4b(%eax,%eax,1)
  10d717:	00 11                	add    %dl,(%ecx)
  10d719:	00 00                	add    %al,(%eax)
  10d71b:	00 00                	add    %al,(%eax)
  10d71d:	00 00                	add    %al,(%eax)
  10d71f:	00 44 00 b6          	add    %al,-0x4a(%eax,%eax,1)
  10d723:	00 1b                	add    %bl,(%ebx)
  10d725:	00 00                	add    %al,(%eax)
  10d727:	00 00                	add    %al,(%eax)
  10d729:	00 00                	add    %al,(%eax)
  10d72b:	00 44 00 b7          	add    %al,-0x49(%eax,%eax,1)
  10d72f:	00 2c 00             	add    %ch,(%eax,%eax,1)
  10d732:	00 00                	add    %al,(%eax)
  10d734:	00 00                	add    %al,(%eax)
  10d736:	00 00                	add    %al,(%eax)
  10d738:	44                   	inc    %esp
  10d739:	00 ba 00 31 00 00    	add    %bh,0x3100(%edx)
  10d73f:	00 00                	add    %al,(%eax)
  10d741:	00 00                	add    %al,(%eax)
  10d743:	00 44 00 bc          	add    %al,-0x44(%eax,%eax,1)
  10d747:	00 38                	add    %bh,(%eax)
  10d749:	00 00                	add    %al,(%eax)
  10d74b:	00 00                	add    %al,(%eax)
  10d74d:	00 00                	add    %al,(%eax)
  10d74f:	00 44 00 bd          	add    %al,-0x43(%eax,%eax,1)
  10d753:	00 41 00             	add    %al,0x0(%ecx)
  10d756:	00 00                	add    %al,(%eax)
  10d758:	00 00                	add    %al,(%eax)
  10d75a:	00 00                	add    %al,(%eax)
  10d75c:	44                   	inc    %esp
  10d75d:	00 be 00 5b 00 00    	add    %bh,0x5b00(%esi)
  10d763:	00 00                	add    %al,(%eax)
  10d765:	00 00                	add    %al,(%eax)
  10d767:	00 44 00 bf          	add    %al,-0x41(%eax,%eax,1)
  10d76b:	00 5f 00             	add    %bl,0x0(%edi)
  10d76e:	00 00                	add    %al,(%eax)
  10d770:	00 00                	add    %al,(%eax)
  10d772:	00 00                	add    %al,(%eax)
  10d774:	44                   	inc    %esp
  10d775:	00 c0                	add    %al,%al
  10d777:	00 61 00             	add    %ah,0x0(%ecx)
  10d77a:	00 00                	add    %al,(%eax)
  10d77c:	00 00                	add    %al,(%eax)
  10d77e:	00 00                	add    %al,(%eax)
  10d780:	44                   	inc    %esp
  10d781:	00 c1                	add    %al,%cl
  10d783:	00 65 00             	add    %ah,0x0(%ebp)
  10d786:	00 00                	add    %al,(%eax)
  10d788:	00 00                	add    %al,(%eax)
  10d78a:	00 00                	add    %al,(%eax)
  10d78c:	44                   	inc    %esp
  10d78d:	00 c2                	add    %al,%dl
  10d78f:	00 67 00             	add    %ah,0x0(%edi)
  10d792:	00 00                	add    %al,(%eax)
  10d794:	00 00                	add    %al,(%eax)
  10d796:	00 00                	add    %al,(%eax)
  10d798:	44                   	inc    %esp
  10d799:	00 c3                	add    %al,%bl
  10d79b:	00 6b 00             	add    %ch,0x0(%ebx)
  10d79e:	00 00                	add    %al,(%eax)
  10d7a0:	00 00                	add    %al,(%eax)
  10d7a2:	00 00                	add    %al,(%eax)
  10d7a4:	44                   	inc    %esp
  10d7a5:	00 c4                	add    %al,%ah
  10d7a7:	00 6d 00             	add    %ch,0x0(%ebp)
  10d7aa:	00 00                	add    %al,(%eax)
  10d7ac:	00 00                	add    %al,(%eax)
  10d7ae:	00 00                	add    %al,(%eax)
  10d7b0:	44                   	inc    %esp
  10d7b1:	00 c5                	add    %al,%ch
  10d7b3:	00 71 00             	add    %dh,0x0(%ecx)
  10d7b6:	00 00                	add    %al,(%eax)
  10d7b8:	00 00                	add    %al,(%eax)
  10d7ba:	00 00                	add    %al,(%eax)
  10d7bc:	44                   	inc    %esp
  10d7bd:	00 c6                	add    %al,%dh
  10d7bf:	00 73 00             	add    %dh,0x0(%ebx)
  10d7c2:	00 00                	add    %al,(%eax)
  10d7c4:	00 00                	add    %al,(%eax)
  10d7c6:	00 00                	add    %al,(%eax)
  10d7c8:	44                   	inc    %esp
  10d7c9:	00 c7                	add    %al,%bh
  10d7cb:	00 77 00             	add    %dh,0x0(%edi)
  10d7ce:	00 00                	add    %al,(%eax)
  10d7d0:	00 00                	add    %al,(%eax)
  10d7d2:	00 00                	add    %al,(%eax)
  10d7d4:	44                   	inc    %esp
  10d7d5:	00 cb                	add    %cl,%bl
  10d7d7:	00 79 00             	add    %bh,0x0(%ecx)
  10d7da:	00 00                	add    %al,(%eax)
  10d7dc:	00 00                	add    %al,(%eax)
  10d7de:	00 00                	add    %al,(%eax)
  10d7e0:	44                   	inc    %esp
  10d7e1:	00 cc                	add    %cl,%ah
  10d7e3:	00 80 00 00 00 00    	add    %al,0x0(%eax)
  10d7e9:	00 00                	add    %al,(%eax)
  10d7eb:	00 44 00 cc          	add    %al,-0x34(%eax,%eax,1)
  10d7ef:	00 8a 00 00 00 00    	add    %cl,0x0(%edx)
  10d7f5:	00 00                	add    %al,(%eax)
  10d7f7:	00 44 00 cd          	add    %al,-0x33(%eax,%eax,1)
  10d7fb:	00 94 00 00 00 00 00 	add    %dl,0x0(%eax,%eax,1)
  10d802:	00 00                	add    %al,(%eax)
  10d804:	44                   	inc    %esp
  10d805:	00 ce                	add    %cl,%dh
  10d807:	00 a5 00 00 00 00    	add    %ah,0x0(%ebp)
  10d80d:	00 00                	add    %al,(%eax)
  10d80f:	00 44 00 d0          	add    %al,-0x30(%eax,%eax,1)
  10d813:	00 af 00 00 00 00    	add    %ch,0x0(%edi)
  10d819:	00 00                	add    %al,(%eax)
  10d81b:	00 44 00 d1          	add    %al,-0x2f(%eax,%eax,1)
  10d81f:	00 bd 00 00 00 00    	add    %bh,0x0(%ebp)
  10d825:	00 00                	add    %al,(%eax)
  10d827:	00 44 00 d2          	add    %al,-0x2e(%eax,%eax,1)
  10d82b:	00 c3                	add    %al,%bl
  10d82d:	00 00                	add    %al,(%eax)
  10d82f:	00 00                	add    %al,(%eax)
  10d831:	00 00                	add    %al,(%eax)
  10d833:	00 44 00 d3          	add    %al,-0x2d(%eax,%eax,1)
  10d837:	00 c6                	add    %al,%dh
  10d839:	00 00                	add    %al,(%eax)
  10d83b:	00 00                	add    %al,(%eax)
  10d83d:	00 00                	add    %al,(%eax)
  10d83f:	00 44 00 d8          	add    %al,-0x28(%eax,%eax,1)
  10d843:	00 ca                	add    %cl,%dl
  10d845:	00 00                	add    %al,(%eax)
  10d847:	00 00                	add    %al,(%eax)
  10d849:	00 00                	add    %al,(%eax)
  10d84b:	00 44 00 d9          	add    %al,-0x27(%eax,%eax,1)
  10d84f:	00 d1                	add    %dl,%cl
  10d851:	00 00                	add    %al,(%eax)
  10d853:	00 00                	add    %al,(%eax)
  10d855:	00 00                	add    %al,(%eax)
  10d857:	00 44 00 da          	add    %al,-0x26(%eax,%eax,1)
  10d85b:	00 db                	add    %bl,%bl
  10d85d:	00 00                	add    %al,(%eax)
  10d85f:	00 00                	add    %al,(%eax)
  10d861:	00 00                	add    %al,(%eax)
  10d863:	00 44 00 db          	add    %al,-0x25(%eax,%eax,1)
  10d867:	00 e4                	add    %ah,%ah
  10d869:	00 00                	add    %al,(%eax)
  10d86b:	00 00                	add    %al,(%eax)
  10d86d:	00 00                	add    %al,(%eax)
  10d86f:	00 44 00 db          	add    %al,-0x25(%eax,%eax,1)
  10d873:	00 ee                	add    %ch,%dh
  10d875:	00 00                	add    %al,(%eax)
  10d877:	00 00                	add    %al,(%eax)
  10d879:	00 00                	add    %al,(%eax)
  10d87b:	00 44 00 dc          	add    %al,-0x24(%eax,%eax,1)
  10d87f:	00 f8                	add    %bh,%al
  10d881:	00 00                	add    %al,(%eax)
  10d883:	00 00                	add    %al,(%eax)
  10d885:	00 00                	add    %al,(%eax)
  10d887:	00 44 00 dd          	add    %al,-0x23(%eax,%eax,1)
  10d88b:	00 09                	add    %cl,(%ecx)
  10d88d:	01 00                	add    %eax,(%eax)
  10d88f:	00 00                	add    %al,(%eax)
  10d891:	00 00                	add    %al,(%eax)
  10d893:	00 44 00 df          	add    %al,-0x21(%eax,%eax,1)
  10d897:	00 13                	add    %dl,(%ebx)
  10d899:	01 00                	add    %eax,(%eax)
  10d89b:	00 00                	add    %al,(%eax)
  10d89d:	00 00                	add    %al,(%eax)
  10d89f:	00 44 00 e1          	add    %al,-0x1f(%eax,%eax,1)
  10d8a3:	00 21                	add    %ah,(%ecx)
  10d8a5:	01 00                	add    %eax,(%eax)
  10d8a7:	00 00                	add    %al,(%eax)
  10d8a9:	00 00                	add    %al,(%eax)
  10d8ab:	00 44 00 e2          	add    %al,-0x1e(%eax,%eax,1)
  10d8af:	00 27                	add    %ah,(%edi)
  10d8b1:	01 00                	add    %eax,(%eax)
  10d8b3:	00 00                	add    %al,(%eax)
  10d8b5:	00 00                	add    %al,(%eax)
  10d8b7:	00 44 00 e8          	add    %al,-0x18(%eax,%eax,1)
  10d8bb:	00 2e                	add    %ch,(%esi)
  10d8bd:	01 00                	add    %eax,(%eax)
  10d8bf:	00 00                	add    %al,(%eax)
  10d8c1:	00 00                	add    %al,(%eax)
  10d8c3:	00 44 00 e8          	add    %al,-0x18(%eax,%eax,1)
  10d8c7:	00 38                	add    %bh,(%eax)
  10d8c9:	01 00                	add    %eax,(%eax)
  10d8cb:	00 00                	add    %al,(%eax)
  10d8cd:	00 00                	add    %al,(%eax)
  10d8cf:	00 44 00 e8          	add    %al,-0x18(%eax,%eax,1)
  10d8d3:	00 42 01             	add    %al,0x1(%edx)
  10d8d6:	00 00                	add    %al,(%eax)
  10d8d8:	00 00                	add    %al,(%eax)
  10d8da:	00 00                	add    %al,(%eax)
  10d8dc:	44                   	inc    %esp
  10d8dd:	00 ea                	add    %ch,%dl
  10d8df:	00 4c 01 00          	add    %cl,0x0(%ecx,%eax,1)
  10d8e3:	00 00                	add    %al,(%eax)
  10d8e5:	00 00                	add    %al,(%eax)
  10d8e7:	00 44 00 ed          	add    %al,-0x13(%eax,%eax,1)
  10d8eb:	00 55 01             	add    %dl,0x1(%ebp)
  10d8ee:	00 00                	add    %al,(%eax)
  10d8f0:	00 00                	add    %al,(%eax)
  10d8f2:	00 00                	add    %al,(%eax)
  10d8f4:	44                   	inc    %esp
  10d8f5:	00 ef                	add    %ch,%bh
  10d8f7:	00 73 01             	add    %dh,0x1(%ebx)
  10d8fa:	00 00                	add    %al,(%eax)
  10d8fc:	00 00                	add    %al,(%eax)
  10d8fe:	00 00                	add    %al,(%eax)
  10d900:	44                   	inc    %esp
  10d901:	00 f0                	add    %dh,%al
  10d903:	00 7d 01             	add    %bh,0x1(%ebp)
  10d906:	00 00                	add    %al,(%eax)
  10d908:	00 00                	add    %al,(%eax)
  10d90a:	00 00                	add    %al,(%eax)
  10d90c:	44                   	inc    %esp
  10d90d:	00 f1                	add    %dh,%cl
  10d90f:	00 7f 01             	add    %bh,0x1(%edi)
  10d912:	00 00                	add    %al,(%eax)
  10d914:	00 00                	add    %al,(%eax)
  10d916:	00 00                	add    %al,(%eax)
  10d918:	44                   	inc    %esp
  10d919:	00 f0                	add    %dh,%al
  10d91b:	00 8b 01 00 00 00    	add    %cl,0x1(%ebx)
  10d921:	00 00                	add    %al,(%eax)
  10d923:	00 44 00 f4          	add    %al,-0xc(%eax,%eax,1)
  10d927:	00 95 01 00 00 00    	add    %dl,0x1(%ebp)
  10d92d:	00 00                	add    %al,(%eax)
  10d92f:	00 44 00 f5          	add    %al,-0xb(%eax,%eax,1)
  10d933:	00 ad 01 00 00 00    	add    %ch,0x1(%ebp)
  10d939:	00 00                	add    %al,(%eax)
  10d93b:	00 44 00 f6          	add    %al,-0xa(%eax,%eax,1)
  10d93f:	00 af 01 00 00 00    	add    %ch,0x1(%edi)
  10d945:	00 00                	add    %al,(%eax)
  10d947:	00 44 00 f5          	add    %al,-0xb(%eax,%eax,1)
  10d94b:	00 bb 01 00 00 00    	add    %bh,0x1(%ebx)
  10d951:	00 00                	add    %al,(%eax)
  10d953:	00 44 00 f8          	add    %al,-0x8(%eax,%eax,1)
  10d957:	00 c5                	add    %al,%ch
  10d959:	01 00                	add    %eax,(%eax)
  10d95b:	00 00                	add    %al,(%eax)
  10d95d:	00 00                	add    %al,(%eax)
  10d95f:	00 44 00 fb          	add    %al,-0x5(%eax,%eax,1)
  10d963:	00 ca                	add    %cl,%dl
  10d965:	01 00                	add    %eax,(%eax)
  10d967:	00 00                	add    %al,(%eax)
  10d969:	00 00                	add    %al,(%eax)
  10d96b:	00 44 00 fc          	add    %al,-0x4(%eax,%eax,1)
  10d96f:	00 d8                	add    %bl,%al
  10d971:	01 00                	add    %eax,(%eax)
  10d973:	00 00                	add    %al,(%eax)
  10d975:	00 00                	add    %al,(%eax)
  10d977:	00 44 00 fd          	add    %al,-0x3(%eax,%eax,1)
  10d97b:	00 e6                	add    %ah,%dh
  10d97d:	01 00                	add    %eax,(%eax)
  10d97f:	00 00                	add    %al,(%eax)
  10d981:	00 00                	add    %al,(%eax)
  10d983:	00 44 00 fe          	add    %al,-0x2(%eax,%eax,1)
  10d987:	00 ec                	add    %ch,%ah
  10d989:	01 00                	add    %eax,(%eax)
  10d98b:	00 00                	add    %al,(%eax)
  10d98d:	00 00                	add    %al,(%eax)
  10d98f:	00 44 00 ff          	add    %al,-0x1(%eax,%eax,1)
  10d993:	00 f4                	add    %dh,%ah
  10d995:	01 00                	add    %eax,(%eax)
  10d997:	00 00                	add    %al,(%eax)
  10d999:	00 00                	add    %al,(%eax)
  10d99b:	00 44 00 00          	add    %al,0x0(%eax,%eax,1)
  10d99f:	01 fc                	add    %edi,%esp
  10d9a1:	01 00                	add    %eax,(%eax)
  10d9a3:	00 00                	add    %al,(%eax)
  10d9a5:	00 00                	add    %al,(%eax)
  10d9a7:	00 44 00 03          	add    %al,0x3(%eax,%eax,1)
  10d9ab:	01 02                	add    %eax,(%edx)
  10d9ad:	02 00                	add    (%eax),%al
  10d9af:	00 00                	add    %al,(%eax)
  10d9b1:	00 00                	add    %al,(%eax)
  10d9b3:	00 44 00 04          	add    %al,0x4(%eax,%eax,1)
  10d9b7:	01 0c 02             	add    %ecx,(%edx,%eax,1)
  10d9ba:	00 00                	add    %al,(%eax)
  10d9bc:	00 00                	add    %al,(%eax)
  10d9be:	00 00                	add    %al,(%eax)
  10d9c0:	44                   	inc    %esp
  10d9c1:	00 05 01 0e 02 00    	add    %al,0x20e01
  10d9c7:	00 00                	add    %al,(%eax)
  10d9c9:	00 00                	add    %al,(%eax)
  10d9cb:	00 44 00 04          	add    %al,0x4(%eax,%eax,1)
  10d9cf:	01 1a                	add    %ebx,(%edx)
  10d9d1:	02 00                	add    (%eax),%al
  10d9d3:	00 00                	add    %al,(%eax)
  10d9d5:	00 00                	add    %al,(%eax)
  10d9d7:	00 44 00 08          	add    %al,0x8(%eax,%eax,1)
  10d9db:	01 28                	add    %ebp,(%eax)
  10d9dd:	02 00                	add    (%eax),%al
  10d9df:	00 00                	add    %al,(%eax)
  10d9e1:	00 00                	add    %al,(%eax)
  10d9e3:	00 44 00 09          	add    %al,0x9(%eax,%eax,1)
  10d9e7:	01 31                	add    %esi,(%ecx)
  10d9e9:	02 00                	add    (%eax),%al
  10d9eb:	00 00                	add    %al,(%eax)
  10d9ed:	00 00                	add    %al,(%eax)
  10d9ef:	00 44 00 08          	add    %al,0x8(%eax,%eax,1)
  10d9f3:	01 48 02             	add    %ecx,0x2(%eax)
  10d9f6:	00 00                	add    %al,(%eax)
  10d9f8:	00 00                	add    %al,(%eax)
  10d9fa:	00 00                	add    %al,(%eax)
  10d9fc:	44                   	inc    %esp
  10d9fd:	00 08                	add    %cl,(%eax)
  10d9ff:	01 4c 02 00          	add    %ecx,0x0(%edx,%eax,1)
  10da03:	00 00                	add    %al,(%eax)
  10da05:	00 00                	add    %al,(%eax)
  10da07:	00 44 00 0b          	add    %al,0xb(%eax,%eax,1)
  10da0b:	01 54 02 00          	add    %edx,0x0(%edx,%eax,1)
  10da0f:	00 00                	add    %al,(%eax)
  10da11:	00 00                	add    %al,(%eax)
  10da13:	00 44 00 0c          	add    %al,0xc(%eax,%eax,1)
  10da17:	01 56 02             	add    %edx,0x2(%esi)
  10da1a:	00 00                	add    %al,(%eax)
  10da1c:	00 00                	add    %al,(%eax)
  10da1e:	00 00                	add    %al,(%eax)
  10da20:	44                   	inc    %esp
  10da21:	00 0b                	add    %cl,(%ebx)
  10da23:	01 62 02             	add    %esp,0x2(%edx)
  10da26:	00 00                	add    %al,(%eax)
  10da28:	00 00                	add    %al,(%eax)
  10da2a:	00 00                	add    %al,(%eax)
  10da2c:	44                   	inc    %esp
  10da2d:	00 0e                	add    %cl,(%esi)
  10da2f:	01 70 02             	add    %esi,0x2(%eax)
  10da32:	00 00                	add    %al,(%eax)
  10da34:	00 00                	add    %al,(%eax)
  10da36:	00 00                	add    %al,(%eax)
  10da38:	44                   	inc    %esp
  10da39:	00 11                	add    %dl,(%ecx)
  10da3b:	01 75 02             	add    %esi,0x2(%ebp)
  10da3e:	00 00                	add    %al,(%eax)
  10da40:	00 00                	add    %al,(%eax)
  10da42:	00 00                	add    %al,(%eax)
  10da44:	44                   	inc    %esp
  10da45:	00 13                	add    %dl,(%ebx)
  10da47:	01 9a 02 00 00 00    	add    %ebx,0x2(%edx)
  10da4d:	00 00                	add    %al,(%eax)
  10da4f:	00 44 00 16          	add    %al,0x16(%eax,%eax,1)
  10da53:	01 9f 02 00 00 00    	add    %ebx,0x2(%edi)
  10da59:	00 00                	add    %al,(%eax)
  10da5b:	00 44 00 17          	add    %al,0x17(%eax,%eax,1)
  10da5f:	01 a5 02 00 00 00    	add    %esp,0x2(%ebp)
  10da65:	00 00                	add    %al,(%eax)
  10da67:	00 44 00 18          	add    %al,0x18(%eax,%eax,1)
  10da6b:	01 ac 02 00 00 00 00 	add    %ebp,0x0(%edx,%eax,1)
  10da72:	00 00                	add    %al,(%eax)
  10da74:	44                   	inc    %esp
  10da75:	00 1a                	add    %bl,(%edx)
  10da77:	01 b0 02 00 00 00    	add    %esi,0x2(%eax)
  10da7d:	00 00                	add    %al,(%eax)
  10da7f:	00 44 00 1c          	add    %al,0x1c(%eax,%eax,1)
  10da83:	01 d5                	add    %edx,%ebp
  10da85:	02 00                	add    (%eax),%al
  10da87:	00 00                	add    %al,(%eax)
  10da89:	00 00                	add    %al,(%eax)
  10da8b:	00 44 00 1f          	add    %al,0x1f(%eax,%eax,1)
  10da8f:	01 da                	add    %ebx,%edx
  10da91:	02 00                	add    (%eax),%al
  10da93:	00 00                	add    %al,(%eax)
  10da95:	00 00                	add    %al,(%eax)
  10da97:	00 44 00 21          	add    %al,0x21(%eax,%eax,1)
  10da9b:	01 de                	add    %ebx,%esi
  10da9d:	02 00                	add    (%eax),%al
  10da9f:	00 00                	add    %al,(%eax)
  10daa1:	00 00                	add    %al,(%eax)
  10daa3:	00 44 00 23          	add    %al,0x23(%eax,%eax,1)
  10daa7:	01 03                	add    %eax,(%ebx)
  10daa9:	03 00                	add    (%eax),%eax
  10daab:	00 00                	add    %al,(%eax)
  10daad:	00 00                	add    %al,(%eax)
  10daaf:	00 44 00 27          	add    %al,0x27(%eax,%eax,1)
  10dab3:	01 08                	add    %ecx,(%eax)
  10dab5:	03 00                	add    (%eax),%eax
  10dab7:	00 00                	add    %al,(%eax)
  10dab9:	00 00                	add    %al,(%eax)
  10dabb:	00 44 00 29          	add    %al,0x29(%eax,%eax,1)
  10dabf:	01 0c 03             	add    %ecx,(%ebx,%eax,1)
  10dac2:	00 00                	add    %al,(%eax)
  10dac4:	00 00                	add    %al,(%eax)
  10dac6:	00 00                	add    %al,(%eax)
  10dac8:	44                   	inc    %esp
  10dac9:	00 2b                	add    %ch,(%ebx)
  10dacb:	01 31                	add    %esi,(%ecx)
  10dacd:	03 00                	add    (%eax),%eax
  10dacf:	00 00                	add    %al,(%eax)
  10dad1:	00 00                	add    %al,(%eax)
  10dad3:	00 44 00 2d          	add    %al,0x2d(%eax,%eax,1)
  10dad7:	01 36                	add    %esi,(%esi)
  10dad9:	03 00                	add    (%eax),%eax
  10dadb:	00 00                	add    %al,(%eax)
  10dadd:	00 00                	add    %al,(%eax)
  10dadf:	00 44 00 2f          	add    %al,0x2f(%eax,%eax,1)
  10dae3:	01 5b 03             	add    %ebx,0x3(%ebx)
  10dae6:	00 00                	add    %al,(%eax)
  10dae8:	00 00                	add    %al,(%eax)
  10daea:	00 00                	add    %al,(%eax)
  10daec:	44                   	inc    %esp
  10daed:	00 32                	add    %dh,(%edx)
  10daef:	01 5d 03             	add    %ebx,0x3(%ebp)
  10daf2:	00 00                	add    %al,(%eax)
  10daf4:	00 00                	add    %al,(%eax)
  10daf6:	00 00                	add    %al,(%eax)
  10daf8:	44                   	inc    %esp
  10daf9:	00 33                	add    %dh,(%ebx)
  10dafb:	01 6b 03             	add    %ebp,0x3(%ebx)
  10dafe:	00 00                	add    %al,(%eax)
  10db00:	00 00                	add    %al,(%eax)
  10db02:	00 00                	add    %al,(%eax)
  10db04:	44                   	inc    %esp
  10db05:	00 34 01             	add    %dh,(%ecx,%eax,1)
  10db08:	78 03                	js     10db0d <cursor_y+0x22ec>
  10db0a:	00 00                	add    %al,(%eax)
  10db0c:	00 00                	add    %al,(%eax)
  10db0e:	00 00                	add    %al,(%eax)
  10db10:	44                   	inc    %esp
  10db11:	00 37                	add    %dh,(%edi)
  10db13:	01 7a 03             	add    %edi,0x3(%edx)
  10db16:	00 00                	add    %al,(%eax)
  10db18:	00 00                	add    %al,(%eax)
  10db1a:	00 00                	add    %al,(%eax)
  10db1c:	44                   	inc    %esp
  10db1d:	00 38                	add    %bh,(%eax)
  10db1f:	01 84 03 00 00 00 00 	add    %eax,0x0(%ebx,%eax,1)
  10db26:	00 00                	add    %al,(%eax)
  10db28:	44                   	inc    %esp
  10db29:	00 39                	add    %bh,(%ecx)
  10db2b:	01 90 03 00 00 00    	add    %edx,0x3(%eax)
  10db31:	00 00                	add    %al,(%eax)
  10db33:	00 44 00 3a          	add    %al,0x3a(%eax,%eax,1)
  10db37:	01 9a 03 00 00 00    	add    %ebx,0x3(%edx)
  10db3d:	00 00                	add    %al,(%eax)
  10db3f:	00 44 00 3e          	add    %al,0x3e(%eax,%eax,1)
  10db43:	01 ab 03 00 00 00    	add    %ebp,0x3(%ebx)
  10db49:	00 00                	add    %al,(%eax)
  10db4b:	00 44 00 3c          	add    %al,0x3c(%eax,%eax,1)
  10db4f:	01 ad 03 00 00 00    	add    %ebp,0x3(%ebp)
  10db55:	00 00                	add    %al,(%eax)
  10db57:	00 44 00 3e          	add    %al,0x3e(%eax,%eax,1)
  10db5b:	01 b6 03 00 00 00    	add    %esi,0x3(%esi)
  10db61:	00 00                	add    %al,(%eax)
  10db63:	00 44 00 b4          	add    %al,-0x4c(%eax,%eax,1)
  10db67:	00 b7 03 00 00 00    	add    %dh,0x3(%edi)
  10db6d:	00 00                	add    %al,(%eax)
  10db6f:	00 44 00 b4          	add    %al,-0x4c(%eax,%eax,1)
  10db73:	00 c0                	add    %al,%al
  10db75:	03 00                	add    (%eax),%eax
  10db77:	00 00                	add    %al,(%eax)
  10db79:	00 00                	add    %al,(%eax)
  10db7b:	00 44 00 41          	add    %al,0x41(%eax,%eax,1)
  10db7f:	01 ce                	add    %ecx,%esi
  10db81:	03 00                	add    (%eax),%eax
  10db83:	00 00                	add    %al,(%eax)
  10db85:	00 00                	add    %al,(%eax)
  10db87:	00 44 00 43          	add    %al,0x43(%eax,%eax,1)
  10db8b:	01 d4                	add    %edx,%esp
  10db8d:	03 00                	add    (%eax),%eax
  10db8f:	00 00                	add    %al,(%eax)
  10db91:	00 00                	add    %al,(%eax)
  10db93:	00 44 00 44          	add    %al,0x44(%eax,%eax,1)
  10db97:	01 de                	add    %ebx,%esi
  10db99:	03 00                	add    (%eax),%eax
  10db9b:	00 fc                	add    %bh,%ah
  10db9d:	0f 00 00             	sldt   (%eax)
  10dba0:	80 00 a9             	addb   $0xa9,(%eax)
  10dba3:	00 fc                	add    %bh,%ah
  10dba5:	ff                   	(bad)  
  10dba6:	ff                   	(bad)  
  10dba7:	ff 81 0b 00 00 80    	incl   -0x7ffffff5(%ecx)
  10dbad:	00 aa 00 f8 ff ff    	add    %ch,-0x800(%edx)
  10dbb3:	ff 06                	incl   (%esi)
  10dbb5:	10 00                	adc    %al,(%eax)
  10dbb7:	00 80 00 ab 00 f4    	add    %al,-0xbff5500(%eax)
  10dbbd:	ff                   	(bad)  
  10dbbe:	ff                   	(bad)  
  10dbbf:	ff 11                	call   *(%ecx)
  10dbc1:	10 00                	adc    %al,(%eax)
  10dbc3:	00 80 00 ac 00 f0    	add    %al,-0xfff5400(%eax)
  10dbc9:	ff                   	(bad)  
  10dbca:	ff                   	(bad)  
  10dbcb:	ff 1a                	lcall  *(%edx)
  10dbcd:	10 00                	adc    %al,(%eax)
  10dbcf:	00 80 00 ad 00 e0    	add    %al,-0x1fff5300(%eax)
  10dbd5:	ff                   	(bad)  
  10dbd6:	ff                   	(bad)  
  10dbd7:	ff 2b                	ljmp   *(%ebx)
  10dbd9:	10 00                	adc    %al,(%eax)
  10dbdb:	00 80 00 af 00 ec    	add    %al,-0x13ff5100(%eax)
  10dbe1:	ff                   	(bad)  
  10dbe2:	ff                   	(bad)  
  10dbe3:	ff 37                	pushl  (%edi)
  10dbe5:	10 00                	adc    %al,(%eax)
  10dbe7:	00 80 00 b1 00 e8    	add    %al,-0x17ff4f00(%eax)
  10dbed:	ff                   	(bad)  
  10dbee:	ff                   	(bad)  
  10dbef:	ff 49 10             	decl   0x10(%ecx)
  10dbf2:	00 00                	add    %al,(%eax)
  10dbf4:	80 00 b2             	addb   $0xb2,(%eax)
  10dbf7:	00 e4                	add    %ah,%ah
  10dbf9:	ff                   	(bad)  
  10dbfa:	ff                   	(bad)  
  10dbfb:	ff 00                	incl   (%eax)
  10dbfd:	00 00                	add    %al,(%eax)
  10dbff:	00 c0                	add    %al,%al
	...
  10dc09:	00 00                	add    %al,(%eax)
  10dc0b:	00 e0                	add    %ah,%al
  10dc0d:	00 00                	add    %al,(%eax)
  10dc0f:	00 e0                	add    %ah,%al
  10dc11:	03 00                	add    (%eax),%eax
  10dc13:	00 00                	add    %al,(%eax)
  10dc15:	00 00                	add    %al,(%eax)
  10dc17:	00 24 00             	add    %ah,(%eax,%eax,1)
  10dc1a:	00 00                	add    %al,(%eax)
  10dc1c:	e0 03                	loopne 10dc21 <cursor_y+0x2400>
  10dc1e:	00 00                	add    %al,(%eax)
  10dc20:	00 00                	add    %al,(%eax)
  10dc22:	00 00                	add    %al,(%eax)
  10dc24:	4e                   	dec    %esi
  10dc25:	00 00                	add    %al,(%eax)
  10dc27:	00 9f 0b 10 00 f7    	add    %bl,-0x8ffeff5(%edi)
  10dc2d:	0e                   	push   %cs
  10dc2e:	00 00                	add    %al,(%eax)
  10dc30:	28 00                	sub    %al,(%eax)
  10dc32:	1d 00 20 b0 10       	sbb    $0x10b02000,%eax
  10dc37:	00 f7                	add    %dh,%bh
  10dc39:	0e                   	push   %cs
  10dc3a:	00 00                	add    %al,(%eax)
  10dc3c:	28 00                	sub    %al,(%eax)
  10dc3e:	2d 00 20 b4 10       	sub    $0x10b42000,%eax
  10dc43:	00 00                	add    %al,(%eax)
  10dc45:	00 00                	add    %al,(%eax)
  10dc47:	00 64 00 00          	add    %ah,0x0(%eax,%eax,1)
  10dc4b:	00 9f 0b 10 00 0d    	add    %bl,0xd00100b(%edi)
  10dc51:	00 00                	add    %al,(%eax)
  10dc53:	00 64 00 02          	add    %ah,0x2(%eax,%eax,1)
  10dc57:	00 9f 0b 10 00 59    	add    %bl,0x5900100b(%edi)
  10dc5d:	10 00                	adc    %al,(%eax)
  10dc5f:	00 64 00 02          	add    %ah,0x2(%eax,%eax,1)
  10dc63:	00 9f 0b 10 00 49    	add    %bl,0x4900100b(%edi)
  10dc69:	00 00                	add    %al,(%eax)
  10dc6b:	00 3c 00             	add    %bh,(%eax,%eax,1)
  10dc6e:	00 00                	add    %al,(%eax)
  10dc70:	00 00                	add    %al,(%eax)
  10dc72:	00 00                	add    %al,(%eax)
  10dc74:	58                   	pop    %eax
  10dc75:	00 00                	add    %al,(%eax)
  10dc77:	00 80 00 00 00 00    	add    %al,0x0(%eax)
  10dc7d:	00 00                	add    %al,(%eax)
  10dc7f:	00 82 00 00 00 80    	add    %al,-0x80000000(%edx)
  10dc85:	00 00                	add    %al,(%eax)
  10dc87:	00 00                	add    %al,(%eax)
  10dc89:	00 00                	add    %al,(%eax)
  10dc8b:	00 9c 00 00 00 80 00 	add    %bl,0x800000(%eax,%eax,1)
  10dc92:	00 00                	add    %al,(%eax)
  10dc94:	00 00                	add    %al,(%eax)
  10dc96:	00 00                	add    %al,(%eax)
  10dc98:	cb                   	lret   
  10dc99:	00 00                	add    %al,(%eax)
  10dc9b:	00 80 00 00 00 00    	add    %al,0x0(%eax)
  10dca1:	00 00                	add    %al,(%eax)
  10dca3:	00 f6                	add    %dh,%dh
  10dca5:	00 00                	add    %al,(%eax)
  10dca7:	00 80 00 00 00 00    	add    %al,0x0(%eax)
  10dcad:	00 00                	add    %al,(%eax)
  10dcaf:	00 26                	add    %ah,(%esi)
  10dcb1:	01 00                	add    %eax,(%eax)
  10dcb3:	00 80 00 00 00 00    	add    %al,0x0(%eax)
  10dcb9:	00 00                	add    %al,(%eax)
  10dcbb:	00 9e 01 00 00 80    	add    %bl,-0x7fffffff(%esi)
  10dcc1:	00 00                	add    %al,(%eax)
  10dcc3:	00 00                	add    %al,(%eax)
  10dcc5:	00 00                	add    %al,(%eax)
  10dcc7:	00 f4                	add    %dh,%ah
  10dcc9:	01 00                	add    %eax,(%eax)
  10dccb:	00 80 00 00 00 00    	add    %al,0x0(%eax)
  10dcd1:	00 00                	add    %al,(%eax)
  10dcd3:	00 46 02             	add    %al,0x2(%esi)
  10dcd6:	00 00                	add    %al,(%eax)
  10dcd8:	80 00 00             	addb   $0x0,(%eax)
  10dcdb:	00 00                	add    %al,(%eax)
  10dcdd:	00 00                	add    %al,(%eax)
  10dcdf:	00 8b 02 00 00 80    	add    %cl,-0x7ffffffe(%ebx)
  10dce5:	00 00                	add    %al,(%eax)
  10dce7:	00 00                	add    %al,(%eax)
  10dce9:	00 00                	add    %al,(%eax)
  10dceb:	00 b8 02 00 00 80    	add    %bh,-0x7ffffffe(%eax)
  10dcf1:	00 00                	add    %al,(%eax)
  10dcf3:	00 00                	add    %al,(%eax)
  10dcf5:	00 00                	add    %al,(%eax)
  10dcf7:	00 e9                	add    %ch,%cl
  10dcf9:	02 00                	add    (%eax),%al
  10dcfb:	00 80 00 00 00 00    	add    %al,0x0(%eax)
  10dd01:	00 00                	add    %al,(%eax)
  10dd03:	00 13                	add    %dl,(%ebx)
  10dd05:	03 00                	add    (%eax),%eax
  10dd07:	00 80 00 00 00 00    	add    %al,0x0(%eax)
  10dd0d:	00 00                	add    %al,(%eax)
  10dd0f:	00 3c 03             	add    %bh,(%ebx,%eax,1)
  10dd12:	00 00                	add    %al,(%eax)
  10dd14:	80 00 00             	addb   $0x0,(%eax)
  10dd17:	00 00                	add    %al,(%eax)
  10dd19:	00 00                	add    %al,(%eax)
  10dd1b:	00 56 03             	add    %dl,0x3(%esi)
  10dd1e:	00 00                	add    %al,(%eax)
  10dd20:	80 00 00             	addb   $0x0,(%eax)
  10dd23:	00 00                	add    %al,(%eax)
  10dd25:	00 00                	add    %al,(%eax)
  10dd27:	00 71 03             	add    %dh,0x3(%ecx)
  10dd2a:	00 00                	add    %al,(%eax)
  10dd2c:	80 00 00             	addb   $0x0,(%eax)
  10dd2f:	00 00                	add    %al,(%eax)
  10dd31:	00 00                	add    %al,(%eax)
  10dd33:	00 92 03 00 00 80    	add    %dl,-0x7ffffffd(%edx)
  10dd39:	00 00                	add    %al,(%eax)
  10dd3b:	00 00                	add    %al,(%eax)
  10dd3d:	00 00                	add    %al,(%eax)
  10dd3f:	00 af 03 00 00 80    	add    %ch,-0x7ffffffd(%edi)
  10dd45:	00 00                	add    %al,(%eax)
  10dd47:	00 00                	add    %al,(%eax)
  10dd49:	00 00                	add    %al,(%eax)
  10dd4b:	00 cc                	add    %cl,%ah
  10dd4d:	03 00                	add    (%eax),%eax
  10dd4f:	00 80 00 00 00 00    	add    %al,0x0(%eax)
  10dd55:	00 00                	add    %al,(%eax)
  10dd57:	00 eb                	add    %ch,%bl
  10dd59:	03 00                	add    (%eax),%eax
  10dd5b:	00 80 00 00 00 00    	add    %al,0x0(%eax)
  10dd61:	00 00                	add    %al,(%eax)
  10dd63:	00 09                	add    %cl,(%ecx)
  10dd65:	04 00                	add    $0x0,%al
  10dd67:	00 80 00 00 00 00    	add    %al,0x0(%eax)
  10dd6d:	00 00                	add    %al,(%eax)
  10dd6f:	00 28                	add    %ch,(%eax)
  10dd71:	04 00                	add    $0x0,%al
  10dd73:	00 80 00 00 00 00    	add    %al,0x0(%eax)
  10dd79:	00 00                	add    %al,(%eax)
  10dd7b:	00 47 04             	add    %al,0x4(%edi)
  10dd7e:	00 00                	add    %al,(%eax)
  10dd80:	80 00 00             	addb   $0x0,(%eax)
  10dd83:	00 00                	add    %al,(%eax)
  10dd85:	00 00                	add    %al,(%eax)
  10dd87:	00 66 04             	add    %ah,0x4(%esi)
  10dd8a:	00 00                	add    %al,(%eax)
  10dd8c:	80 00 00             	addb   $0x0,(%eax)
  10dd8f:	00 00                	add    %al,(%eax)
  10dd91:	00 00                	add    %al,(%eax)
  10dd93:	00 87 04 00 00 80    	add    %al,-0x7ffffffc(%edi)
  10dd99:	00 00                	add    %al,(%eax)
  10dd9b:	00 00                	add    %al,(%eax)
  10dd9d:	00 00                	add    %al,(%eax)
  10dd9f:	00 1b                	add    %bl,(%ebx)
  10dda1:	0c 00                	or     $0x0,%al
  10dda3:	00 c2                	add    %al,%dl
  10dda5:	00 00                	add    %al,(%eax)
  10dda7:	00 90 5d 00 00 ac    	add    %dl,-0x53ffffa3(%eax)
  10ddad:	04 00                	add    $0x0,%al
  10ddaf:	00 c2                	add    %al,%dl
  10ddb1:	00 00                	add    %al,(%eax)
  10ddb3:	00 6c 1e 00          	add    %ch,0x0(%esi,%ebx,1)
  10ddb7:	00 0b                	add    %cl,(%ebx)
  10ddb9:	0c 00                	or     $0x0,%al
  10ddbb:	00 c2                	add    %al,%dl
  10ddbd:	00 00                	add    %al,(%eax)
  10ddbf:	00 00                	add    %al,(%eax)
  10ddc1:	00 00                	add    %al,(%eax)
  10ddc3:	00 3b                	add    %bh,(%ebx)
  10ddc5:	0d 00 00 c2 00       	or     $0xc20000,%eax
  10ddca:	00 00                	add    %al,(%eax)
  10ddcc:	50                   	push   %eax
  10ddcd:	06                   	push   %es
  10ddce:	00 00                	add    %al,(%eax)
  10ddd0:	b0 05                	mov    $0x5,%al
  10ddd2:	00 00                	add    %al,(%eax)
  10ddd4:	c2 00 00             	ret    $0x0
  10ddd7:	00 a7 8b 00 00 be    	add    %ah,-0x41ffff75(%edi)
  10dddd:	05 00 00 c2 00       	add    $0xc20000,%eax
  10dde2:	00 00                	add    %al,(%eax)
  10dde4:	9b                   	fwait
  10dde5:	e1 00                	loope  10dde7 <cursor_y+0x25c6>
  10dde7:	00 66 10             	add    %ah,0x10(%esi)
  10ddea:	00 00                	add    %al,(%eax)
  10ddec:	24 00                	and    $0x0,%al
  10ddee:	16                   	push   %ss
  10ddef:	00 9f 0b 10 00 71    	add    %bl,0x7100100b(%edi)
  10ddf5:	10 00                	adc    %al,(%eax)
  10ddf7:	00 a0 00 16 00 08    	add    %ah,0x8001600(%eax)
  10ddfd:	00 00                	add    %al,(%eax)
  10ddff:	00 7a 10             	add    %bh,0x10(%edx)
  10de02:	00 00                	add    %al,(%eax)
  10de04:	a0 00 16 00 0c       	mov    0xc001600,%al
  10de09:	00 00                	add    %al,(%eax)
  10de0b:	00 00                	add    %al,(%eax)
  10de0d:	00 00                	add    %al,(%eax)
  10de0f:	00 2e                	add    %ch,(%esi)
  10de11:	00 00                	add    %al,(%eax)
  10de13:	00 9f 0b 10 00 00    	add    %bl,0x100b(%edi)
  10de19:	00 00                	add    %al,(%eax)
  10de1b:	00 44 00 17          	add    %al,0x17(%eax,%eax,1)
	...
  10de27:	00 44 00 18          	add    %al,0x18(%eax,%eax,1)
  10de2b:	00 06                	add    %al,(%esi)
  10de2d:	00 00                	add    %al,(%eax)
  10de2f:	00 00                	add    %al,(%eax)
  10de31:	00 00                	add    %al,(%eax)
  10de33:	00 44 00 1a          	add    %al,0x1a(%eax,%eax,1)
  10de37:	00 0d 00 00 00 00    	add    %cl,0x0
  10de3d:	00 00                	add    %al,(%eax)
  10de3f:	00 44 00 1b          	add    %al,0x1b(%eax,%eax,1)
  10de43:	00 1a                	add    %bl,(%edx)
  10de45:	00 00                	add    %al,(%eax)
  10de47:	00 83 10 00 00 80    	add    %al,-0x7ffffff0(%ebx)
  10de4d:	00 18                	add    %bl,(%eax)
  10de4f:	00 fc                	add    %bh,%ah
  10de51:	ff                   	(bad)  
  10de52:	ff                   	(bad)  
  10de53:	ff 00                	incl   (%eax)
  10de55:	00 00                	add    %al,(%eax)
  10de57:	00 c0                	add    %al,%al
	...
  10de61:	00 00                	add    %al,(%eax)
  10de63:	00 e0                	add    %ah,%al
  10de65:	00 00                	add    %al,(%eax)
  10de67:	00 1c 00             	add    %bl,(%eax,%eax,1)
  10de6a:	00 00                	add    %al,(%eax)
  10de6c:	00 00                	add    %al,(%eax)
  10de6e:	00 00                	add    %al,(%eax)
  10de70:	24 00                	and    $0x0,%al
  10de72:	00 00                	add    %al,(%eax)
  10de74:	1c 00                	sbb    $0x0,%al
  10de76:	00 00                	add    %al,(%eax)
  10de78:	00 00                	add    %al,(%eax)
  10de7a:	00 00                	add    %al,(%eax)
  10de7c:	4e                   	dec    %esi
  10de7d:	00 00                	add    %al,(%eax)
  10de7f:	00 bb 0b 10 00 8b    	add    %bh,-0x74ffeff5(%ebx)
  10de85:	10 00                	adc    %al,(%eax)
  10de87:	00 24 00             	add    %ah,(%eax,%eax,1)
  10de8a:	1d 00 bb 0b 10       	sbb    $0x100bbb00,%eax
  10de8f:	00 00                	add    %al,(%eax)
  10de91:	00 00                	add    %al,(%eax)
  10de93:	00 2e                	add    %ch,(%esi)
  10de95:	00 00                	add    %al,(%eax)
  10de97:	00 bb 0b 10 00 00    	add    %bh,0x100b(%ebx)
  10de9d:	00 00                	add    %al,(%eax)
  10de9f:	00 44 00 1e          	add    %al,0x1e(%eax,%eax,1)
	...
  10deab:	00 44 00 1f          	add    %al,0x1f(%eax,%eax,1)
  10deaf:	00 06                	add    %al,(%esi)
  10deb1:	00 00                	add    %al,(%eax)
  10deb3:	00 00                	add    %al,(%eax)
  10deb5:	00 00                	add    %al,(%eax)
  10deb7:	00 44 00 22          	add    %al,0x22(%eax,%eax,1)
  10debb:	00 0b                	add    %cl,(%ebx)
  10debd:	00 00                	add    %al,(%eax)
  10debf:	00 00                	add    %al,(%eax)
  10dec1:	00 00                	add    %al,(%eax)
  10dec3:	00 44 00 23          	add    %al,0x23(%eax,%eax,1)
  10dec7:	00 19                	add    %bl,(%ecx)
  10dec9:	00 00                	add    %al,(%eax)
  10decb:	00 00                	add    %al,(%eax)
  10decd:	00 00                	add    %al,(%eax)
  10decf:	00 44 00 25          	add    %al,0x25(%eax,%eax,1)
  10ded3:	00 2d 00 00 00 00    	add    %ch,0x0
  10ded9:	00 00                	add    %al,(%eax)
  10dedb:	00 44 00 27          	add    %al,0x27(%eax,%eax,1)
  10dedf:	00 41 00             	add    %al,0x0(%ecx)
  10dee2:	00 00                	add    %al,(%eax)
  10dee4:	00 00                	add    %al,(%eax)
  10dee6:	00 00                	add    %al,(%eax)
  10dee8:	44                   	inc    %esp
  10dee9:	00 2b                	add    %ch,(%ebx)
  10deeb:	00 55 00             	add    %dl,0x0(%ebp)
  10deee:	00 00                	add    %al,(%eax)
  10def0:	00 00                	add    %al,(%eax)
  10def2:	00 00                	add    %al,(%eax)
  10def4:	44                   	inc    %esp
  10def5:	00 2c 00             	add    %ch,(%eax,%eax,1)
  10def8:	5a                   	pop    %edx
  10def9:	00 00                	add    %al,(%eax)
  10defb:	00 9d 10 00 00 80    	add    %bl,-0x7ffffff0(%ebp)
  10df01:	00 22                	add    %ah,(%edx)
  10df03:	00 f4                	add    %dh,%ah
  10df05:	ff                   	(bad)  
  10df06:	ff                   	(bad)  
  10df07:	ff a6 10 00 00 80    	jmp    *-0x7ffffff0(%esi)
  10df0d:	00 22                	add    %ah,(%edx)
  10df0f:	00 f0                	add    %dh,%al
  10df11:	ff                   	(bad)  
  10df12:	ff                   	(bad)  
  10df13:	ff af 10 00 00 80    	ljmp   *-0x7ffffff0(%edi)
  10df19:	00 22                	add    %ah,(%edx)
  10df1b:	00 ec                	add    %ch,%ah
  10df1d:	ff                   	(bad)  
  10df1e:	ff                   	(bad)  
  10df1f:	ff 00                	incl   (%eax)
  10df21:	00 00                	add    %al,(%eax)
  10df23:	00 c0                	add    %al,%al
	...
  10df2d:	00 00                	add    %al,(%eax)
  10df2f:	00 e0                	add    %ah,%al
  10df31:	00 00                	add    %al,(%eax)
  10df33:	00 5c 00 00          	add    %bl,0x0(%eax,%eax,1)
  10df37:	00 00                	add    %al,(%eax)
  10df39:	00 00                	add    %al,(%eax)
  10df3b:	00 24 00             	add    %ah,(%eax,%eax,1)
  10df3e:	00 00                	add    %al,(%eax)
  10df40:	5c                   	pop    %esp
  10df41:	00 00                	add    %al,(%eax)
  10df43:	00 00                	add    %al,(%eax)
  10df45:	00 00                	add    %al,(%eax)
  10df47:	00 4e 00             	add    %cl,0x0(%esi)
  10df4a:	00 00                	add    %al,(%eax)
  10df4c:	17                   	pop    %ss
  10df4d:	0c 10                	or     $0x10,%al
  10df4f:	00 00                	add    %al,(%eax)
  10df51:	00 00                	add    %al,(%eax)
  10df53:	00 64 00 00          	add    %ah,0x0(%eax,%eax,1)
  10df57:	00 17                	add    %dl,(%edi)
  10df59:	0c 10                	or     $0x10,%al
  10df5b:	00 0d 00 00 00 64    	add    %cl,0x64000000
  10df61:	00 02                	add    %al,(%edx)
  10df63:	00 17                	add    %dl,(%edi)
  10df65:	0c 10                	or     $0x10,%al
  10df67:	00 b7 10 00 00 64    	add    %dh,0x64000010(%edi)
  10df6d:	00 02                	add    %al,(%edx)
  10df6f:	00 17                	add    %dl,(%edi)
  10df71:	0c 10                	or     $0x10,%al
  10df73:	00 49 00             	add    %cl,0x0(%ecx)
  10df76:	00 00                	add    %al,(%eax)
  10df78:	3c 00                	cmp    $0x0,%al
  10df7a:	00 00                	add    %al,(%eax)
  10df7c:	00 00                	add    %al,(%eax)
  10df7e:	00 00                	add    %al,(%eax)
  10df80:	58                   	pop    %eax
  10df81:	00 00                	add    %al,(%eax)
  10df83:	00 80 00 00 00 00    	add    %al,0x0(%eax)
  10df89:	00 00                	add    %al,(%eax)
  10df8b:	00 82 00 00 00 80    	add    %al,-0x80000000(%edx)
  10df91:	00 00                	add    %al,(%eax)
  10df93:	00 00                	add    %al,(%eax)
  10df95:	00 00                	add    %al,(%eax)
  10df97:	00 9c 00 00 00 80 00 	add    %bl,0x800000(%eax,%eax,1)
  10df9e:	00 00                	add    %al,(%eax)
  10dfa0:	00 00                	add    %al,(%eax)
  10dfa2:	00 00                	add    %al,(%eax)
  10dfa4:	cb                   	lret   
  10dfa5:	00 00                	add    %al,(%eax)
  10dfa7:	00 80 00 00 00 00    	add    %al,0x0(%eax)
  10dfad:	00 00                	add    %al,(%eax)
  10dfaf:	00 f6                	add    %dh,%dh
  10dfb1:	00 00                	add    %al,(%eax)
  10dfb3:	00 80 00 00 00 00    	add    %al,0x0(%eax)
  10dfb9:	00 00                	add    %al,(%eax)
  10dfbb:	00 26                	add    %ah,(%esi)
  10dfbd:	01 00                	add    %eax,(%eax)
  10dfbf:	00 80 00 00 00 00    	add    %al,0x0(%eax)
  10dfc5:	00 00                	add    %al,(%eax)
  10dfc7:	00 9e 01 00 00 80    	add    %bl,-0x7fffffff(%esi)
  10dfcd:	00 00                	add    %al,(%eax)
  10dfcf:	00 00                	add    %al,(%eax)
  10dfd1:	00 00                	add    %al,(%eax)
  10dfd3:	00 f4                	add    %dh,%ah
  10dfd5:	01 00                	add    %eax,(%eax)
  10dfd7:	00 80 00 00 00 00    	add    %al,0x0(%eax)
  10dfdd:	00 00                	add    %al,(%eax)
  10dfdf:	00 46 02             	add    %al,0x2(%esi)
  10dfe2:	00 00                	add    %al,(%eax)
  10dfe4:	80 00 00             	addb   $0x0,(%eax)
  10dfe7:	00 00                	add    %al,(%eax)
  10dfe9:	00 00                	add    %al,(%eax)
  10dfeb:	00 8b 02 00 00 80    	add    %cl,-0x7ffffffe(%ebx)
  10dff1:	00 00                	add    %al,(%eax)
  10dff3:	00 00                	add    %al,(%eax)
  10dff5:	00 00                	add    %al,(%eax)
  10dff7:	00 b8 02 00 00 80    	add    %bh,-0x7ffffffe(%eax)
  10dffd:	00 00                	add    %al,(%eax)
  10dfff:	00 00                	add    %al,(%eax)
  10e001:	00 00                	add    %al,(%eax)
  10e003:	00 e9                	add    %ch,%cl
  10e005:	02 00                	add    (%eax),%al
  10e007:	00 80 00 00 00 00    	add    %al,0x0(%eax)
  10e00d:	00 00                	add    %al,(%eax)
  10e00f:	00 13                	add    %dl,(%ebx)
  10e011:	03 00                	add    (%eax),%eax
  10e013:	00 80 00 00 00 00    	add    %al,0x0(%eax)
  10e019:	00 00                	add    %al,(%eax)
  10e01b:	00 3c 03             	add    %bh,(%ebx,%eax,1)
  10e01e:	00 00                	add    %al,(%eax)
  10e020:	80 00 00             	addb   $0x0,(%eax)
  10e023:	00 00                	add    %al,(%eax)
  10e025:	00 00                	add    %al,(%eax)
  10e027:	00 56 03             	add    %dl,0x3(%esi)
  10e02a:	00 00                	add    %al,(%eax)
  10e02c:	80 00 00             	addb   $0x0,(%eax)
  10e02f:	00 00                	add    %al,(%eax)
  10e031:	00 00                	add    %al,(%eax)
  10e033:	00 71 03             	add    %dh,0x3(%ecx)
  10e036:	00 00                	add    %al,(%eax)
  10e038:	80 00 00             	addb   $0x0,(%eax)
  10e03b:	00 00                	add    %al,(%eax)
  10e03d:	00 00                	add    %al,(%eax)
  10e03f:	00 92 03 00 00 80    	add    %dl,-0x7ffffffd(%edx)
  10e045:	00 00                	add    %al,(%eax)
  10e047:	00 00                	add    %al,(%eax)
  10e049:	00 00                	add    %al,(%eax)
  10e04b:	00 af 03 00 00 80    	add    %ch,-0x7ffffffd(%edi)
  10e051:	00 00                	add    %al,(%eax)
  10e053:	00 00                	add    %al,(%eax)
  10e055:	00 00                	add    %al,(%eax)
  10e057:	00 cc                	add    %cl,%ah
  10e059:	03 00                	add    (%eax),%eax
  10e05b:	00 80 00 00 00 00    	add    %al,0x0(%eax)
  10e061:	00 00                	add    %al,(%eax)
  10e063:	00 eb                	add    %ch,%bl
  10e065:	03 00                	add    (%eax),%eax
  10e067:	00 80 00 00 00 00    	add    %al,0x0(%eax)
  10e06d:	00 00                	add    %al,(%eax)
  10e06f:	00 09                	add    %cl,(%ecx)
  10e071:	04 00                	add    $0x0,%al
  10e073:	00 80 00 00 00 00    	add    %al,0x0(%eax)
  10e079:	00 00                	add    %al,(%eax)
  10e07b:	00 28                	add    %ch,(%eax)
  10e07d:	04 00                	add    $0x0,%al
  10e07f:	00 80 00 00 00 00    	add    %al,0x0(%eax)
  10e085:	00 00                	add    %al,(%eax)
  10e087:	00 47 04             	add    %al,0x4(%edi)
  10e08a:	00 00                	add    %al,(%eax)
  10e08c:	80 00 00             	addb   $0x0,(%eax)
  10e08f:	00 00                	add    %al,(%eax)
  10e091:	00 00                	add    %al,(%eax)
  10e093:	00 66 04             	add    %ah,0x4(%esi)
  10e096:	00 00                	add    %al,(%eax)
  10e098:	80 00 00             	addb   $0x0,(%eax)
  10e09b:	00 00                	add    %al,(%eax)
  10e09d:	00 00                	add    %al,(%eax)
  10e09f:	00 87 04 00 00 80    	add    %al,-0x7ffffffc(%edi)
  10e0a5:	00 00                	add    %al,(%eax)
  10e0a7:	00 00                	add    %al,(%eax)
  10e0a9:	00 00                	add    %al,(%eax)
  10e0ab:	00 1b                	add    %bl,(%ebx)
  10e0ad:	0c 00                	or     $0x0,%al
  10e0af:	00 c2                	add    %al,%dl
  10e0b1:	00 00                	add    %al,(%eax)
  10e0b3:	00 90 5d 00 00 ac    	add    %dl,-0x53ffffa3(%eax)
  10e0b9:	04 00                	add    $0x0,%al
  10e0bb:	00 c2                	add    %al,%dl
  10e0bd:	00 00                	add    %al,(%eax)
  10e0bf:	00 6c 1e 00          	add    %ch,0x0(%esi,%ebx,1)
  10e0c3:	00 c9                	add    %cl,%cl
  10e0c5:	10 00                	adc    %al,(%eax)
  10e0c7:	00 26                	add    %ah,(%esi)
  10e0c9:	00 1e                	add    %bl,(%esi)
  10e0cb:	00 00                	add    %al,(%eax)
  10e0cd:	20 10                	and    %dl,(%eax)
  10e0cf:	00 e5                	add    %ah,%ch
  10e0d1:	10 00                	adc    %al,(%eax)
  10e0d3:	00 26                	add    %ah,(%esi)
  10e0d5:	00 21                	add    %ah,(%ecx)
  10e0d7:	00 20                	add    %ah,(%eax)
  10e0d9:	b8 10 00 f5 10       	mov    $0x10f50010,%eax
  10e0de:	00 00                	add    %al,(%eax)
  10e0e0:	26 00 22             	add    %ah,%es:(%edx)
  10e0e3:	00 21                	add    %ah,(%ecx)
  10e0e5:	b8 10 00 05 11       	mov    $0x11050010,%eax
  10e0ea:	00 00                	add    %al,(%eax)
  10e0ec:	24 00                	and    $0x0,%al
  10e0ee:	25 00 17 0c 10       	and    $0x100c1700,%eax
  10e0f3:	00 00                	add    %al,(%eax)
  10e0f5:	00 00                	add    %al,(%eax)
  10e0f7:	00 2e                	add    %ch,(%esi)
  10e0f9:	00 00                	add    %al,(%eax)
  10e0fb:	00 17                	add    %dl,(%edi)
  10e0fd:	0c 10                	or     $0x10,%al
  10e0ff:	00 00                	add    %al,(%eax)
  10e101:	00 00                	add    %al,(%eax)
  10e103:	00 44 00 26          	add    %al,0x26(%eax,%eax,1)
	...
  10e10f:	00 44 00 28          	add    %al,0x28(%eax,%eax,1)
  10e113:	00 06                	add    %al,(%esi)
  10e115:	00 00                	add    %al,(%eax)
  10e117:	00 00                	add    %al,(%eax)
  10e119:	00 00                	add    %al,(%eax)
  10e11b:	00 44 00 2f          	add    %al,0x2f(%eax,%eax,1)
  10e11f:	00 2c 00             	add    %ch,(%eax,%eax,1)
  10e122:	00 00                	add    %al,(%eax)
  10e124:	00 00                	add    %al,(%eax)
  10e126:	00 00                	add    %al,(%eax)
  10e128:	44                   	inc    %esp
  10e129:	00 30                	add    %dh,(%eax)
  10e12b:	00 3e                	add    %bh,(%esi)
  10e12d:	00 00                	add    %al,(%eax)
  10e12f:	00 00                	add    %al,(%eax)
  10e131:	00 00                	add    %al,(%eax)
  10e133:	00 44 00 31          	add    %al,0x31(%eax,%eax,1)
  10e137:	00 5a 00             	add    %bl,0x0(%edx)
  10e13a:	00 00                	add    %al,(%eax)
  10e13c:	00 00                	add    %al,(%eax)
  10e13e:	00 00                	add    %al,(%eax)
  10e140:	44                   	inc    %esp
  10e141:	00 32                	add    %dh,(%edx)
  10e143:	00 6c 00 00          	add    %ch,0x0(%eax,%eax,1)
  10e147:	00 00                	add    %al,(%eax)
  10e149:	00 00                	add    %al,(%eax)
  10e14b:	00 44 00 33          	add    %al,0x33(%eax,%eax,1)
  10e14f:	00 84 00 00 00 19 11 	add    %al,0x11190000(%eax,%eax,1)
  10e156:	00 00                	add    %al,(%eax)
  10e158:	80 00 28             	addb   $0x28,(%eax)
  10e15b:	00 f6                	add    %dh,%dh
  10e15d:	ff                   	(bad)  
  10e15e:	ff                   	(bad)  
  10e15f:	ff 00                	incl   (%eax)
  10e161:	00 00                	add    %al,(%eax)
  10e163:	00 c0                	add    %al,%al
	...
  10e16d:	00 00                	add    %al,(%eax)
  10e16f:	00 e0                	add    %ah,%al
  10e171:	00 00                	add    %al,(%eax)
  10e173:	00 87 00 00 00 00    	add    %al,0x0(%edi)
  10e179:	00 00                	add    %al,(%eax)
  10e17b:	00 24 00             	add    %ah,(%eax,%eax,1)
  10e17e:	00 00                	add    %al,(%eax)
  10e180:	87 00                	xchg   %eax,(%eax)
  10e182:	00 00                	add    %al,(%eax)
  10e184:	00 00                	add    %al,(%eax)
  10e186:	00 00                	add    %al,(%eax)
  10e188:	4e                   	dec    %esi
  10e189:	00 00                	add    %al,(%eax)
  10e18b:	00 9e 0c 10 00 2e    	add    %bl,0x2e00100c(%esi)
  10e191:	11 00                	adc    %eax,(%eax)
  10e193:	00 24 00             	add    %ah,(%eax,%eax,1)
  10e196:	36 00 9e 0c 10 00 00 	add    %bl,%ss:0x100c(%esi)
  10e19d:	00 00                	add    %al,(%eax)
  10e19f:	00 2e                	add    %ch,(%esi)
  10e1a1:	00 00                	add    %al,(%eax)
  10e1a3:	00 9e 0c 10 00 00    	add    %bl,0x100c(%esi)
  10e1a9:	00 00                	add    %al,(%eax)
  10e1ab:	00 44 00 37          	add    %al,0x37(%eax,%eax,1)
	...
  10e1b7:	00 44 00 39          	add    %al,0x39(%eax,%eax,1)
  10e1bb:	00 06                	add    %al,(%esi)
  10e1bd:	00 00                	add    %al,(%eax)
  10e1bf:	00 00                	add    %al,(%eax)
  10e1c1:	00 00                	add    %al,(%eax)
  10e1c3:	00 44 00 3a          	add    %al,0x3a(%eax,%eax,1)
  10e1c7:	00 0a                	add    %cl,(%edx)
  10e1c9:	00 00                	add    %al,(%eax)
  10e1cb:	00 00                	add    %al,(%eax)
  10e1cd:	00 00                	add    %al,(%eax)
  10e1cf:	00 44 00 3d          	add    %al,0x3d(%eax,%eax,1)
  10e1d3:	00 18                	add    %bl,(%eax)
  10e1d5:	00 00                	add    %al,(%eax)
  10e1d7:	00 00                	add    %al,(%eax)
  10e1d9:	00 00                	add    %al,(%eax)
  10e1db:	00 44 00 40          	add    %al,0x40(%eax,%eax,1)
  10e1df:	00 23                	add    %ah,(%ebx)
  10e1e1:	00 00                	add    %al,(%eax)
  10e1e3:	00 00                	add    %al,(%eax)
  10e1e5:	00 00                	add    %al,(%eax)
  10e1e7:	00 44 00 41          	add    %al,0x41(%eax,%eax,1)
  10e1eb:	00 2c 00             	add    %ch,(%eax,%eax,1)
  10e1ee:	00 00                	add    %al,(%eax)
  10e1f0:	00 00                	add    %al,(%eax)
  10e1f2:	00 00                	add    %al,(%eax)
  10e1f4:	44                   	inc    %esp
  10e1f5:	00 40 00             	add    %al,0x0(%eax)
  10e1f8:	4e                   	dec    %esi
  10e1f9:	00 00                	add    %al,(%eax)
  10e1fb:	00 00                	add    %al,(%eax)
  10e1fd:	00 00                	add    %al,(%eax)
  10e1ff:	00 44 00 40          	add    %al,0x40(%eax,%eax,1)
  10e203:	00 52 00             	add    %dl,0x0(%edx)
  10e206:	00 00                	add    %al,(%eax)
  10e208:	00 00                	add    %al,(%eax)
  10e20a:	00 00                	add    %al,(%eax)
  10e20c:	44                   	inc    %esp
  10e20d:	00 45 00             	add    %al,0x0(%ebp)
  10e210:	5b                   	pop    %ebx
  10e211:	00 00                	add    %al,(%eax)
  10e213:	00 00                	add    %al,(%eax)
  10e215:	00 00                	add    %al,(%eax)
  10e217:	00 44 00 46          	add    %al,0x46(%eax,%eax,1)
  10e21b:	00 64 00 00          	add    %ah,0x0(%eax,%eax,1)
  10e21f:	00 00                	add    %al,(%eax)
  10e221:	00 00                	add    %al,(%eax)
  10e223:	00 44 00 45          	add    %al,0x45(%eax,%eax,1)
  10e227:	00 77 00             	add    %dh,0x0(%edi)
  10e22a:	00 00                	add    %al,(%eax)
  10e22c:	00 00                	add    %al,(%eax)
  10e22e:	00 00                	add    %al,(%eax)
  10e230:	44                   	inc    %esp
  10e231:	00 45 00             	add    %al,0x0(%ebp)
  10e234:	7b 00                	jnp    10e236 <cursor_y+0x2a15>
  10e236:	00 00                	add    %al,(%eax)
  10e238:	00 00                	add    %al,(%eax)
  10e23a:	00 00                	add    %al,(%eax)
  10e23c:	44                   	inc    %esp
  10e23d:	00 4a 00             	add    %cl,0x0(%edx)
  10e240:	84 00                	test   %al,(%eax)
  10e242:	00 00                	add    %al,(%eax)
  10e244:	00 00                	add    %al,(%eax)
  10e246:	00 00                	add    %al,(%eax)
  10e248:	44                   	inc    %esp
  10e249:	00 4c 00 8b          	add    %cl,-0x75(%eax,%eax,1)
  10e24d:	00 00                	add    %al,(%eax)
  10e24f:	00 3d 11 00 00 80    	add    %bh,0x80000011
  10e255:	00 39                	add    %bh,(%ecx)
  10e257:	00 fb                	add    %bh,%bl
  10e259:	ff                   	(bad)  
  10e25a:	ff                   	(bad)  
  10e25b:	ff 52 11             	call   *0x11(%edx)
  10e25e:	00 00                	add    %al,(%eax)
  10e260:	80 00 3a             	addb   $0x3a,(%eax)
  10e263:	00 f8                	add    %bh,%al
  10e265:	ff                   	(bad)  
  10e266:	ff                   	(bad)  
  10e267:	ff 00                	incl   (%eax)
  10e269:	00 00                	add    %al,(%eax)
  10e26b:	00 c0                	add    %al,%al
  10e26d:	00 00                	add    %al,(%eax)
  10e26f:	00 00                	add    %al,(%eax)
  10e271:	00 00                	add    %al,(%eax)
  10e273:	00 81 0b 00 00 80    	add    %al,-0x7ffffff5(%ecx)
  10e279:	00 3f                	add    %bh,(%edi)
  10e27b:	00 fc                	add    %bh,%ah
  10e27d:	ff                   	(bad)  
  10e27e:	ff                   	(bad)  
  10e27f:	ff 00                	incl   (%eax)
  10e281:	00 00                	add    %al,(%eax)
  10e283:	00 c0                	add    %al,%al
  10e285:	00 00                	add    %al,(%eax)
  10e287:	00 23                	add    %ah,(%ebx)
  10e289:	00 00                	add    %al,(%eax)
  10e28b:	00 00                	add    %al,(%eax)
  10e28d:	00 00                	add    %al,(%eax)
  10e28f:	00 e0                	add    %ah,%al
  10e291:	00 00                	add    %al,(%eax)
  10e293:	00 8b 00 00 00 00    	add    %cl,0x0(%ebx)
  10e299:	00 00                	add    %al,(%eax)
  10e29b:	00 e0                	add    %ah,%al
  10e29d:	00 00                	add    %al,(%eax)
  10e29f:	00 8e 00 00 00 00    	add    %cl,0x0(%esi)
  10e2a5:	00 00                	add    %al,(%eax)
  10e2a7:	00 24 00             	add    %ah,(%eax,%eax,1)
  10e2aa:	00 00                	add    %al,(%eax)
  10e2ac:	8e 00                	mov    (%eax),%es
  10e2ae:	00 00                	add    %al,(%eax)
  10e2b0:	00 00                	add    %al,(%eax)
  10e2b2:	00 00                	add    %al,(%eax)
  10e2b4:	4e                   	dec    %esi
  10e2b5:	00 00                	add    %al,(%eax)
  10e2b7:	00 2c 0d 10 00 5e 11 	add    %ch,0x115e0010(,%ecx,1)
  10e2be:	00 00                	add    %al,(%eax)
  10e2c0:	24 00                	and    $0x0,%al
  10e2c2:	4f                   	dec    %edi
  10e2c3:	00 2c 0d 10 00 00 00 	add    %ch,0x10(,%ecx,1)
  10e2ca:	00 00                	add    %al,(%eax)
  10e2cc:	2e 00 00             	add    %al,%cs:(%eax)
  10e2cf:	00 2c 0d 10 00 00 00 	add    %ch,0x10(,%ecx,1)
  10e2d6:	00 00                	add    %al,(%eax)
  10e2d8:	44                   	inc    %esp
  10e2d9:	00 50 00             	add    %dl,0x0(%eax)
	...
  10e2e4:	44                   	inc    %esp
  10e2e5:	00 51 00             	add    %dl,0x0(%ecx)
  10e2e8:	06                   	push   %es
  10e2e9:	00 00                	add    %al,(%eax)
  10e2eb:	00 00                	add    %al,(%eax)
  10e2ed:	00 00                	add    %al,(%eax)
  10e2ef:	00 44 00 52          	add    %al,0x52(%eax,%eax,1)
  10e2f3:	00 0a                	add    %cl,(%edx)
  10e2f5:	00 00                	add    %al,(%eax)
  10e2f7:	00 00                	add    %al,(%eax)
  10e2f9:	00 00                	add    %al,(%eax)
  10e2fb:	00 44 00 55          	add    %al,0x55(%eax,%eax,1)
  10e2ff:	00 18                	add    %bl,(%eax)
  10e301:	00 00                	add    %al,(%eax)
  10e303:	00 00                	add    %al,(%eax)
  10e305:	00 00                	add    %al,(%eax)
  10e307:	00 44 00 56          	add    %al,0x56(%eax,%eax,1)
  10e30b:	00 21                	add    %ah,(%ecx)
  10e30d:	00 00                	add    %al,(%eax)
  10e30f:	00 00                	add    %al,(%eax)
  10e311:	00 00                	add    %al,(%eax)
  10e313:	00 44 00 55          	add    %al,0x55(%eax,%eax,1)
  10e317:	00 34 00             	add    %dh,(%eax,%eax,1)
  10e31a:	00 00                	add    %al,(%eax)
  10e31c:	00 00                	add    %al,(%eax)
  10e31e:	00 00                	add    %al,(%eax)
  10e320:	44                   	inc    %esp
  10e321:	00 55 00             	add    %dl,0x0(%ebp)
  10e324:	38 00                	cmp    %al,(%eax)
  10e326:	00 00                	add    %al,(%eax)
  10e328:	00 00                	add    %al,(%eax)
  10e32a:	00 00                	add    %al,(%eax)
  10e32c:	44                   	inc    %esp
  10e32d:	00 59 00             	add    %bl,0x0(%ecx)
  10e330:	41                   	inc    %ecx
  10e331:	00 00                	add    %al,(%eax)
  10e333:	00 00                	add    %al,(%eax)
  10e335:	00 00                	add    %al,(%eax)
  10e337:	00 44 00 5a          	add    %al,0x5a(%eax,%eax,1)
  10e33b:	00 48 00             	add    %cl,0x0(%eax)
  10e33e:	00 00                	add    %al,(%eax)
  10e340:	00 00                	add    %al,(%eax)
  10e342:	00 00                	add    %al,(%eax)
  10e344:	44                   	inc    %esp
  10e345:	00 5b 00             	add    %bl,0x0(%ebx)
  10e348:	4f                   	dec    %edi
  10e349:	00 00                	add    %al,(%eax)
  10e34b:	00 00                	add    %al,(%eax)
  10e34d:	00 00                	add    %al,(%eax)
  10e34f:	00 44 00 5c          	add    %al,0x5c(%eax,%eax,1)
  10e353:	00 54 00 00          	add    %dl,0x0(%eax,%eax,1)
  10e357:	00 3d 11 00 00 80    	add    %bh,0x80000011
  10e35d:	00 51 00             	add    %dl,0x0(%ecx)
  10e360:	f3 ff                	repz (bad) 
  10e362:	ff                   	(bad)  
  10e363:	ff 52 11             	call   *0x11(%edx)
  10e366:	00 00                	add    %al,(%eax)
  10e368:	80 00 52             	addb   $0x52,(%eax)
  10e36b:	00 f0                	add    %dh,%al
  10e36d:	ff                   	(bad)  
  10e36e:	ff                   	(bad)  
  10e36f:	ff 81 0b 00 00 80    	incl   -0x7ffffff5(%ecx)
  10e375:	00 54 00 f4          	add    %dl,-0xc(%eax,%eax,1)
  10e379:	ff                   	(bad)  
  10e37a:	ff                   	(bad)  
  10e37b:	ff 00                	incl   (%eax)
  10e37d:	00 00                	add    %al,(%eax)
  10e37f:	00 c0                	add    %al,%al
	...
  10e389:	00 00                	add    %al,(%eax)
  10e38b:	00 e0                	add    %ah,%al
  10e38d:	00 00                	add    %al,(%eax)
  10e38f:	00 57 00             	add    %dl,0x0(%edi)
  10e392:	00 00                	add    %al,(%eax)
  10e394:	00 00                	add    %al,(%eax)
  10e396:	00 00                	add    %al,(%eax)
  10e398:	24 00                	and    $0x0,%al
  10e39a:	00 00                	add    %al,(%eax)
  10e39c:	57                   	push   %edi
  10e39d:	00 00                	add    %al,(%eax)
  10e39f:	00 00                	add    %al,(%eax)
  10e3a1:	00 00                	add    %al,(%eax)
  10e3a3:	00 4e 00             	add    %cl,0x0(%esi)
  10e3a6:	00 00                	add    %al,(%eax)
  10e3a8:	83 0d 10 00 74 11 00 	orl    $0x0,0x11740010
  10e3af:	00 24 00             	add    %ah,(%eax,%eax,1)
  10e3b2:	5f                   	pop    %edi
  10e3b3:	00 83 0d 10 00 8f    	add    %al,-0x70ffeff3(%ebx)
  10e3b9:	11 00                	adc    %eax,(%eax)
  10e3bb:	00 a0 00 5f 00 08    	add    %ah,0x8005f00(%eax)
  10e3c1:	00 00                	add    %al,(%eax)
  10e3c3:	00 df                	add    %bl,%bh
  10e3c5:	0e                   	push   %cs
  10e3c6:	00 00                	add    %al,(%eax)
  10e3c8:	a0 00 5f 00 0c       	mov    0xc005f00,%al
  10e3cd:	00 00                	add    %al,(%eax)
  10e3cf:	00 eb                	add    %ch,%bl
  10e3d1:	0e                   	push   %cs
  10e3d2:	00 00                	add    %al,(%eax)
  10e3d4:	a0 00 5f 00 10       	mov    0x10005f00,%al
  10e3d9:	00 00                	add    %al,(%eax)
  10e3db:	00 00                	add    %al,(%eax)
  10e3dd:	00 00                	add    %al,(%eax)
  10e3df:	00 2e                	add    %ch,(%esi)
  10e3e1:	00 00                	add    %al,(%eax)
  10e3e3:	00 83 0d 10 00 00    	add    %al,0x100d(%ebx)
  10e3e9:	00 00                	add    %al,(%eax)
  10e3eb:	00 44 00 60          	add    %al,0x60(%eax,%eax,1)
	...
  10e3f7:	00 44 00 61          	add    %al,0x61(%eax,%eax,1)
  10e3fb:	00 0d 00 00 00 00    	add    %cl,0x0
  10e401:	00 00                	add    %al,(%eax)
  10e403:	00 44 00 62          	add    %al,0x62(%eax,%eax,1)
  10e407:	00 13                	add    %dl,(%ebx)
  10e409:	00 00                	add    %al,(%eax)
  10e40b:	00 00                	add    %al,(%eax)
  10e40d:	00 00                	add    %al,(%eax)
  10e40f:	00 44 00 64          	add    %al,0x64(%eax,%eax,1)
  10e413:	00 19                	add    %bl,(%ecx)
  10e415:	00 00                	add    %al,(%eax)
  10e417:	00 00                	add    %al,(%eax)
  10e419:	00 00                	add    %al,(%eax)
  10e41b:	00 44 00 65          	add    %al,0x65(%eax,%eax,1)
  10e41f:	00 2e                	add    %ch,(%esi)
  10e421:	00 00                	add    %al,(%eax)
  10e423:	00 00                	add    %al,(%eax)
  10e425:	00 00                	add    %al,(%eax)
  10e427:	00 44 00 69          	add    %al,0x69(%eax,%eax,1)
  10e42b:	00 39                	add    %bh,(%ecx)
  10e42d:	00 00                	add    %al,(%eax)
  10e42f:	00 00                	add    %al,(%eax)
  10e431:	00 00                	add    %al,(%eax)
  10e433:	00 44 00 69          	add    %al,0x69(%eax,%eax,1)
  10e437:	00 3f                	add    %bh,(%edi)
  10e439:	00 00                	add    %al,(%eax)
  10e43b:	00 00                	add    %al,(%eax)
  10e43d:	00 00                	add    %al,(%eax)
  10e43f:	00 44 00 6a          	add    %al,0x6a(%eax,%eax,1)
  10e443:	00 4a 00             	add    %cl,0x0(%edx)
  10e446:	00 00                	add    %al,(%eax)
  10e448:	00 00                	add    %al,(%eax)
  10e44a:	00 00                	add    %al,(%eax)
  10e44c:	44                   	inc    %esp
  10e44d:	00 6b 00             	add    %ch,0x0(%ebx)
  10e450:	5e                   	pop    %esi
  10e451:	00 00                	add    %al,(%eax)
  10e453:	00 00                	add    %al,(%eax)
  10e455:	00 00                	add    %al,(%eax)
  10e457:	00 44 00 6c          	add    %al,0x6c(%eax,%eax,1)
  10e45b:	00 64 00 00          	add    %ah,0x0(%eax,%eax,1)
  10e45f:	00 00                	add    %al,(%eax)
  10e461:	00 00                	add    %al,(%eax)
  10e463:	00 44 00 6d          	add    %al,0x6d(%eax,%eax,1)
  10e467:	00 7b 00             	add    %bh,0x0(%ebx)
  10e46a:	00 00                	add    %al,(%eax)
  10e46c:	00 00                	add    %al,(%eax)
  10e46e:	00 00                	add    %al,(%eax)
  10e470:	44                   	inc    %esp
  10e471:	00 6e 00             	add    %ch,0x0(%esi)
  10e474:	81 00 00 00 00 00    	addl   $0x0,(%eax)
  10e47a:	00 00                	add    %al,(%eax)
  10e47c:	44                   	inc    %esp
  10e47d:	00 6f 00             	add    %ch,0x0(%edi)
  10e480:	8a 00                	mov    (%eax),%al
  10e482:	00 00                	add    %al,(%eax)
  10e484:	00 00                	add    %al,(%eax)
  10e486:	00 00                	add    %al,(%eax)
  10e488:	44                   	inc    %esp
  10e489:	00 70 00             	add    %dh,0x0(%eax)
  10e48c:	90                   	nop
  10e48d:	00 00                	add    %al,(%eax)
  10e48f:	00 00                	add    %al,(%eax)
  10e491:	00 00                	add    %al,(%eax)
  10e493:	00 44 00 71          	add    %al,0x71(%eax,%eax,1)
  10e497:	00 97 00 00 00 00    	add    %dl,0x0(%edi)
  10e49d:	00 00                	add    %al,(%eax)
  10e49f:	00 44 00 72          	add    %al,0x72(%eax,%eax,1)
  10e4a3:	00 a8 00 00 00 00    	add    %ch,0x0(%eax)
  10e4a9:	00 00                	add    %al,(%eax)
  10e4ab:	00 44 00 73          	add    %al,0x73(%eax,%eax,1)
  10e4af:	00 ae 00 00 00 00    	add    %ch,0x0(%esi)
  10e4b5:	00 00                	add    %al,(%eax)
  10e4b7:	00 44 00 74          	add    %al,0x74(%eax,%eax,1)
  10e4bb:	00 ec                	add    %ch,%ah
  10e4bd:	00 00                	add    %al,(%eax)
  10e4bf:	00 00                	add    %al,(%eax)
  10e4c1:	00 00                	add    %al,(%eax)
  10e4c3:	00 44 00 78          	add    %al,0x78(%eax,%eax,1)
  10e4c7:	00 fb                	add    %bh,%bl
  10e4c9:	00 00                	add    %al,(%eax)
  10e4cb:	00 00                	add    %al,(%eax)
  10e4cd:	00 00                	add    %al,(%eax)
  10e4cf:	00 44 00 79          	add    %al,0x79(%eax,%eax,1)
  10e4d3:	00 06                	add    %al,(%esi)
  10e4d5:	01 00                	add    %eax,(%eax)
  10e4d7:	00 00                	add    %al,(%eax)
  10e4d9:	00 00                	add    %al,(%eax)
  10e4db:	00 44 00 7a          	add    %al,0x7a(%eax,%eax,1)
  10e4df:	00 0d 01 00 00 00    	add    %cl,0x1
  10e4e5:	00 00                	add    %al,(%eax)
  10e4e7:	00 44 00 7e          	add    %al,0x7e(%eax,%eax,1)
  10e4eb:	00 1c 01             	add    %bl,(%ecx,%eax,1)
  10e4ee:	00 00                	add    %al,(%eax)
  10e4f0:	00 00                	add    %al,(%eax)
  10e4f2:	00 00                	add    %al,(%eax)
  10e4f4:	44                   	inc    %esp
  10e4f5:	00 81 00 21 01 00    	add    %al,0x12100(%ecx)
  10e4fb:	00 00                	add    %al,(%eax)
  10e4fd:	00 00                	add    %al,(%eax)
  10e4ff:	00 44 00 82          	add    %al,-0x7e(%eax,%eax,1)
  10e503:	00 26                	add    %ah,(%esi)
  10e505:	01 00                	add    %eax,(%eax)
  10e507:	00 98 11 00 00 80    	add    %bl,-0x7fffffef(%eax)
  10e50d:	00 61 00             	add    %ah,0x0(%ecx)
  10e510:	f7 ff                	idiv   %edi
  10e512:	ff                   	(bad)  
  10e513:	ff a9 11 00 00 80    	ljmp   *-0x7fffffef(%ecx)
  10e519:	00 62 00             	add    %ah,0x0(%edx)
  10e51c:	f6 ff                	idiv   %bh
  10e51e:	ff                   	(bad)  
  10e51f:	ff                   	(bad)  
  10e520:	3d 11 00 00 80       	cmp    $0x80000011,%eax
  10e525:	00 64 00 f5          	add    %ah,-0xb(%eax,%eax,1)
  10e529:	ff                   	(bad)  
  10e52a:	ff                   	(bad)  
  10e52b:	ff                   	(bad)  
  10e52c:	ba 11 00 00 80       	mov    $0x80000011,%edx
  10e531:	00 65 00             	add    %ah,0x0(%ebp)
  10e534:	f2 ff                	repnz (bad) 
  10e536:	ff                   	(bad)  
  10e537:	ff 88 0f 00 00 80    	decl   -0x7ffffff1(%eax)
  10e53d:	00 5f 00             	add    %bl,0x0(%edi)
  10e540:	e4 ff                	in     $0xff,%al
  10e542:	ff                   	(bad)  
  10e543:	ff 00                	incl   (%eax)
  10e545:	00 00                	add    %al,(%eax)
  10e547:	00 c0                	add    %al,%al
	...
  10e551:	00 00                	add    %al,(%eax)
  10e553:	00 e0                	add    %ah,%al
  10e555:	00 00                	add    %al,(%eax)
  10e557:	00 2d 01 00 00 00    	add    %ch,0x1
  10e55d:	00 00                	add    %al,(%eax)
  10e55f:	00 24 00             	add    %ah,(%eax,%eax,1)
  10e562:	00 00                	add    %al,(%eax)
  10e564:	2d 01 00 00 00       	sub    $0x1,%eax
  10e569:	00 00                	add    %al,(%eax)
  10e56b:	00 4e 00             	add    %cl,0x0(%esi)
  10e56e:	00 00                	add    %al,(%eax)
  10e570:	b0 0e                	mov    $0xe,%al
  10e572:	10 00                	adc    %al,(%eax)
  10e574:	ca 11 00             	lret   $0x11
  10e577:	00 24 00             	add    %ah,(%eax,%eax,1)
  10e57a:	85 00                	test   %eax,(%eax)
  10e57c:	b0 0e                	mov    $0xe,%al
  10e57e:	10 00                	adc    %al,(%eax)
  10e580:	e0 11                	loopne 10e593 <cursor_y+0x2d72>
  10e582:	00 00                	add    %al,(%eax)
  10e584:	a0 00 85 00 08       	mov    0x8008500,%al
  10e589:	00 00                	add    %al,(%eax)
  10e58b:	00 00                	add    %al,(%eax)
  10e58d:	00 00                	add    %al,(%eax)
  10e58f:	00 2e                	add    %ch,(%esi)
  10e591:	00 00                	add    %al,(%eax)
  10e593:	00 b0 0e 10 00 00    	add    %dh,0x100e(%eax)
  10e599:	00 00                	add    %al,(%eax)
  10e59b:	00 44 00 86          	add    %al,-0x7a(%eax,%eax,1)
	...
  10e5a7:	00 44 00 87          	add    %al,-0x79(%eax,%eax,1)
  10e5ab:	00 06                	add    %al,(%esi)
  10e5ad:	00 00                	add    %al,(%eax)
  10e5af:	00 00                	add    %al,(%eax)
  10e5b1:	00 00                	add    %al,(%eax)
  10e5b3:	00 44 00 88          	add    %al,-0x78(%eax,%eax,1)
  10e5b7:	00 08                	add    %cl,(%eax)
  10e5b9:	00 00                	add    %al,(%eax)
  10e5bb:	00 00                	add    %al,(%eax)
  10e5bd:	00 00                	add    %al,(%eax)
  10e5bf:	00 44 00 87          	add    %al,-0x79(%eax,%eax,1)
  10e5c3:	00 27                	add    %ah,(%edi)
  10e5c5:	00 00                	add    %al,(%eax)
  10e5c7:	00 00                	add    %al,(%eax)
  10e5c9:	00 00                	add    %al,(%eax)
  10e5cb:	00 44 00 8a          	add    %al,-0x76(%eax,%eax,1)
  10e5cf:	00 31                	add    %dh,(%ecx)
  10e5d1:	00 00                	add    %al,(%eax)
  10e5d3:	00 00                	add    %al,(%eax)
  10e5d5:	00 00                	add    %al,(%eax)
  10e5d7:	00 24 00             	add    %ah,(%eax,%eax,1)
  10e5da:	00 00                	add    %al,(%eax)
  10e5dc:	34 00                	xor    $0x0,%al
  10e5de:	00 00                	add    %al,(%eax)
  10e5e0:	00 00                	add    %al,(%eax)
  10e5e2:	00 00                	add    %al,(%eax)
  10e5e4:	4e                   	dec    %esi
  10e5e5:	00 00                	add    %al,(%eax)
  10e5e7:	00 e4                	add    %ah,%ah
  10e5e9:	0e                   	push   %cs
  10e5ea:	10 00                	adc    %al,(%eax)
  10e5ec:	f4                   	hlt    
  10e5ed:	11 00                	adc    %eax,(%eax)
  10e5ef:	00 24 00             	add    %ah,(%eax,%eax,1)
  10e5f2:	8d 00                	lea    (%eax),%eax
  10e5f4:	e4 0e                	in     $0xe,%al
  10e5f6:	10 00                	adc    %al,(%eax)
  10e5f8:	10 12                	adc    %dl,(%edx)
  10e5fa:	00 00                	add    %al,(%eax)
  10e5fc:	a0 00 8d 00 08       	mov    0x8008d00,%al
  10e601:	00 00                	add    %al,(%eax)
  10e603:	00 df                	add    %bl,%bh
  10e605:	0e                   	push   %cs
  10e606:	00 00                	add    %al,(%eax)
  10e608:	a0 00 8d 00 0c       	mov    0xc008d00,%al
  10e60d:	00 00                	add    %al,(%eax)
  10e60f:	00 eb                	add    %ch,%bl
  10e611:	0e                   	push   %cs
  10e612:	00 00                	add    %al,(%eax)
  10e614:	a0 00 8d 00 10       	mov    0x10008d00,%al
  10e619:	00 00                	add    %al,(%eax)
  10e61b:	00 00                	add    %al,(%eax)
  10e61d:	00 00                	add    %al,(%eax)
  10e61f:	00 2e                	add    %ch,(%esi)
  10e621:	00 00                	add    %al,(%eax)
  10e623:	00 e4                	add    %ah,%ah
  10e625:	0e                   	push   %cs
  10e626:	10 00                	adc    %al,(%eax)
  10e628:	00 00                	add    %al,(%eax)
  10e62a:	00 00                	add    %al,(%eax)
  10e62c:	44                   	inc    %esp
  10e62d:	00 8e 00 00 00 00    	add    %cl,0x0(%esi)
  10e633:	00 00                	add    %al,(%eax)
  10e635:	00 00                	add    %al,(%eax)
  10e637:	00 44 00 8f          	add    %al,-0x71(%eax,%eax,1)
  10e63b:	00 06                	add    %al,(%esi)
  10e63d:	00 00                	add    %al,(%eax)
  10e63f:	00 00                	add    %al,(%eax)
  10e641:	00 00                	add    %al,(%eax)
  10e643:	00 44 00 90          	add    %al,-0x70(%eax,%eax,1)
  10e647:	00 08                	add    %cl,(%eax)
  10e649:	00 00                	add    %al,(%eax)
  10e64b:	00 00                	add    %al,(%eax)
  10e64d:	00 00                	add    %al,(%eax)
  10e64f:	00 44 00 8f          	add    %al,-0x71(%eax,%eax,1)
  10e653:	00 29                	add    %ch,(%ecx)
  10e655:	00 00                	add    %al,(%eax)
  10e657:	00 00                	add    %al,(%eax)
  10e659:	00 00                	add    %al,(%eax)
  10e65b:	00 44 00 92          	add    %al,-0x6e(%eax,%eax,1)
  10e65f:	00 33                	add    %dh,(%ebx)
  10e661:	00 00                	add    %al,(%eax)
  10e663:	00 00                	add    %al,(%eax)
  10e665:	00 00                	add    %al,(%eax)
  10e667:	00 24 00             	add    %ah,(%eax,%eax,1)
  10e66a:	00 00                	add    %al,(%eax)
  10e66c:	36 00 00             	add    %al,%ss:(%eax)
  10e66f:	00 00                	add    %al,(%eax)
  10e671:	00 00                	add    %al,(%eax)
  10e673:	00 4e 00             	add    %cl,0x0(%esi)
  10e676:	00 00                	add    %al,(%eax)
  10e678:	1a 0f                	sbb    (%edi),%cl
  10e67a:	10 00                	adc    %al,(%eax)
  10e67c:	1d 12 00 00 24       	sbb    $0x24000012,%eax
  10e681:	00 95 00 1a 0f 10    	add    %dl,0x100f1a00(%ebp)
  10e687:	00 37                	add    %dh,(%edi)
  10e689:	12 00                	adc    (%eax),%al
  10e68b:	00 a0 00 95 00 08    	add    %ah,0x8009500(%eax)
  10e691:	00 00                	add    %al,(%eax)
  10e693:	00 df                	add    %bl,%bh
  10e695:	0e                   	push   %cs
  10e696:	00 00                	add    %al,(%eax)
  10e698:	a0 00 95 00 0c       	mov    0xc009500,%al
  10e69d:	00 00                	add    %al,(%eax)
  10e69f:	00 eb                	add    %ch,%bl
  10e6a1:	0e                   	push   %cs
  10e6a2:	00 00                	add    %al,(%eax)
  10e6a4:	a0 00 95 00 10       	mov    0x10009500,%al
  10e6a9:	00 00                	add    %al,(%eax)
  10e6ab:	00 00                	add    %al,(%eax)
  10e6ad:	00 00                	add    %al,(%eax)
  10e6af:	00 2e                	add    %ch,(%esi)
  10e6b1:	00 00                	add    %al,(%eax)
  10e6b3:	00 1a                	add    %bl,(%edx)
  10e6b5:	0f 10 00             	movups (%eax),%xmm0
  10e6b8:	00 00                	add    %al,(%eax)
  10e6ba:	00 00                	add    %al,(%eax)
  10e6bc:	44                   	inc    %esp
  10e6bd:	00 96 00 00 00 00    	add    %dl,0x0(%esi)
  10e6c3:	00 00                	add    %al,(%eax)
  10e6c5:	00 00                	add    %al,(%eax)
  10e6c7:	00 44 00 98          	add    %al,-0x68(%eax,%eax,1)
  10e6cb:	00 06                	add    %al,(%esi)
  10e6cd:	00 00                	add    %al,(%eax)
  10e6cf:	00 00                	add    %al,(%eax)
  10e6d1:	00 00                	add    %al,(%eax)
  10e6d3:	00 44 00 9a          	add    %al,-0x66(%eax,%eax,1)
  10e6d7:	00 0a                	add    %cl,(%edx)
  10e6d9:	00 00                	add    %al,(%eax)
  10e6db:	00 00                	add    %al,(%eax)
  10e6dd:	00 00                	add    %al,(%eax)
  10e6df:	00 44 00 9d          	add    %al,-0x63(%eax,%eax,1)
  10e6e3:	00 20                	add    %ah,(%eax)
  10e6e5:	00 00                	add    %al,(%eax)
  10e6e7:	00 00                	add    %al,(%eax)
  10e6e9:	00 00                	add    %al,(%eax)
  10e6eb:	00 44 00 9e          	add    %al,-0x62(%eax,%eax,1)
  10e6ef:	00 29                	add    %ch,(%ecx)
  10e6f1:	00 00                	add    %al,(%eax)
  10e6f3:	00 00                	add    %al,(%eax)
  10e6f5:	00 00                	add    %al,(%eax)
  10e6f7:	00 44 00 9f          	add    %al,-0x61(%eax,%eax,1)
  10e6fb:	00 3b                	add    %bh,(%ebx)
  10e6fd:	00 00                	add    %al,(%eax)
  10e6ff:	00 00                	add    %al,(%eax)
  10e701:	00 00                	add    %al,(%eax)
  10e703:	00 44 00 9f          	add    %al,-0x61(%eax,%eax,1)
  10e707:	00 41 00             	add    %al,0x0(%ecx)
  10e70a:	00 00                	add    %al,(%eax)
  10e70c:	00 00                	add    %al,(%eax)
  10e70e:	00 00                	add    %al,(%eax)
  10e710:	44                   	inc    %esp
  10e711:	00 a2 00 47 00 00    	add    %ah,0x4700(%edx)
  10e717:	00 00                	add    %al,(%eax)
  10e719:	00 00                	add    %al,(%eax)
  10e71b:	00 44 00 a3          	add    %al,-0x5d(%eax,%eax,1)
  10e71f:	00 4b 00             	add    %cl,0x0(%ebx)
  10e722:	00 00                	add    %al,(%eax)
  10e724:	00 00                	add    %al,(%eax)
  10e726:	00 00                	add    %al,(%eax)
  10e728:	44                   	inc    %esp
  10e729:	00 a4 00 51 00 00 00 	add    %ah,0x51(%eax,%eax,1)
  10e730:	00 00                	add    %al,(%eax)
  10e732:	00 00                	add    %al,(%eax)
  10e734:	44                   	inc    %esp
  10e735:	00 a6 00 6e 00 00    	add    %ah,0x6e00(%esi)
  10e73b:	00 00                	add    %al,(%eax)
  10e73d:	00 00                	add    %al,(%eax)
  10e73f:	00 44 00 a0          	add    %al,-0x60(%eax,%eax,1)
  10e743:	00 8b 00 00 00 00    	add    %cl,0x0(%ebx)
  10e749:	00 00                	add    %al,(%eax)
  10e74b:	00 44 00 9d          	add    %al,-0x63(%eax,%eax,1)
  10e74f:	00 8c 00 00 00 00 00 	add    %cl,0x0(%eax,%eax,1)
  10e756:	00 00                	add    %al,(%eax)
  10e758:	44                   	inc    %esp
  10e759:	00 9d 00 90 00 00    	add    %bl,0x9000(%ebp)
  10e75f:	00 00                	add    %al,(%eax)
  10e761:	00 00                	add    %al,(%eax)
  10e763:	00 44 00 a9          	add    %al,-0x57(%eax,%eax,1)
  10e767:	00 96 00 00 00 40    	add    %dl,0x40000000(%esi)
  10e76d:	12 00                	adc    (%eax),%al
  10e76f:	00 80 00 97 00 ec    	add    %al,-0x13ff6900(%eax)
  10e775:	ff                   	(bad)  
  10e776:	ff                   	(bad)  
  10e777:	ff 4a 12             	decl   0x12(%edx)
  10e77a:	00 00                	add    %al,(%eax)
  10e77c:	80 00 98             	addb   $0x98,(%eax)
  10e77f:	00 f7                	add    %dh,%bh
  10e781:	ff                   	(bad)  
  10e782:	ff                   	(bad)  
  10e783:	ff 81 0b 00 00 80    	incl   -0x7ffffff5(%ecx)
  10e789:	00 9c 00 f0 ff ff ff 	add    %bl,-0x10(%eax,%eax,1)
  10e790:	00 00                	add    %al,(%eax)
  10e792:	00 00                	add    %al,(%eax)
  10e794:	c0 00 00             	rolb   $0x0,(%eax)
	...
  10e79f:	00 e0                	add    %ah,%al
  10e7a1:	00 00                	add    %al,(%eax)
  10e7a3:	00 99 00 00 00 00    	add    %bl,0x0(%ecx)
  10e7a9:	00 00                	add    %al,(%eax)
  10e7ab:	00 24 00             	add    %ah,(%eax,%eax,1)
  10e7ae:	00 00                	add    %al,(%eax)
  10e7b0:	99                   	cltd   
  10e7b1:	00 00                	add    %al,(%eax)
  10e7b3:	00 00                	add    %al,(%eax)
  10e7b5:	00 00                	add    %al,(%eax)
  10e7b7:	00 4e 00             	add    %cl,0x0(%esi)
  10e7ba:	00 00                	add    %al,(%eax)
  10e7bc:	b3 0f                	mov    $0xf,%bl
  10e7be:	10 00                	adc    %al,(%eax)
  10e7c0:	59                   	pop    %ecx
  10e7c1:	12 00                	adc    (%eax),%al
  10e7c3:	00 24 00             	add    %ah,(%eax,%eax,1)
  10e7c6:	ac                   	lods   %ds:(%esi),%al
  10e7c7:	00 b3 0f 10 00 37    	add    %dh,0x3700100f(%ebx)
  10e7cd:	12 00                	adc    (%eax),%al
  10e7cf:	00 a0 00 ac 00 08    	add    %ah,0x800ac00(%eax)
  10e7d5:	00 00                	add    %al,(%eax)
  10e7d7:	00 df                	add    %bl,%bh
  10e7d9:	0e                   	push   %cs
  10e7da:	00 00                	add    %al,(%eax)
  10e7dc:	a0 00 ac 00 0c       	mov    0xc00ac00,%al
  10e7e1:	00 00                	add    %al,(%eax)
  10e7e3:	00 eb                	add    %ch,%bl
  10e7e5:	0e                   	push   %cs
  10e7e6:	00 00                	add    %al,(%eax)
  10e7e8:	a0 00 ac 00 10       	mov    0x1000ac00,%al
  10e7ed:	00 00                	add    %al,(%eax)
  10e7ef:	00 00                	add    %al,(%eax)
  10e7f1:	00 00                	add    %al,(%eax)
  10e7f3:	00 2e                	add    %ch,(%esi)
  10e7f5:	00 00                	add    %al,(%eax)
  10e7f7:	00 b3 0f 10 00 00    	add    %dh,0x100f(%ebx)
  10e7fd:	00 00                	add    %al,(%eax)
  10e7ff:	00 44 00 ad          	add    %al,-0x53(%eax,%eax,1)
	...
  10e80b:	00 44 00 ae          	add    %al,-0x52(%eax,%eax,1)
  10e80f:	00 06                	add    %al,(%esi)
  10e811:	00 00                	add    %al,(%eax)
  10e813:	00 00                	add    %al,(%eax)
  10e815:	00 00                	add    %al,(%eax)
  10e817:	00 44 00 af          	add    %al,-0x51(%eax,%eax,1)
  10e81b:	00 0c 00             	add    %cl,(%eax,%eax,1)
  10e81e:	00 00                	add    %al,(%eax)
  10e820:	00 00                	add    %al,(%eax)
  10e822:	00 00                	add    %al,(%eax)
  10e824:	44                   	inc    %esp
  10e825:	00 b3 00 24 00 00    	add    %dh,0x2400(%ebx)
  10e82b:	00 00                	add    %al,(%eax)
  10e82d:	00 00                	add    %al,(%eax)
  10e82f:	00 44 00 b5          	add    %al,-0x4b(%eax,%eax,1)
  10e833:	00 2a                	add    %ch,(%edx)
  10e835:	00 00                	add    %al,(%eax)
  10e837:	00 00                	add    %al,(%eax)
  10e839:	00 00                	add    %al,(%eax)
  10e83b:	00 44 00 b6          	add    %al,-0x4a(%eax,%eax,1)
  10e83f:	00 31                	add    %dh,(%ecx)
  10e841:	00 00                	add    %al,(%eax)
  10e843:	00 00                	add    %al,(%eax)
  10e845:	00 00                	add    %al,(%eax)
  10e847:	00 44 00 b7          	add    %al,-0x49(%eax,%eax,1)
  10e84b:	00 33                	add    %dh,(%ebx)
  10e84d:	00 00                	add    %al,(%eax)
  10e84f:	00 00                	add    %al,(%eax)
  10e851:	00 00                	add    %al,(%eax)
  10e853:	00 44 00 b8          	add    %al,-0x48(%eax,%eax,1)
  10e857:	00 60 00             	add    %ah,0x0(%eax)
  10e85a:	00 00                	add    %al,(%eax)
  10e85c:	00 00                	add    %al,(%eax)
  10e85e:	00 00                	add    %al,(%eax)
  10e860:	44                   	inc    %esp
  10e861:	00 b9 00 72 00 00    	add    %bh,0x7200(%ecx)
  10e867:	00 00                	add    %al,(%eax)
  10e869:	00 00                	add    %al,(%eax)
  10e86b:	00 44 00 b6          	add    %al,-0x4a(%eax,%eax,1)
  10e86f:	00 76 00             	add    %dh,0x0(%esi)
  10e872:	00 00                	add    %al,(%eax)
  10e874:	00 00                	add    %al,(%eax)
  10e876:	00 00                	add    %al,(%eax)
  10e878:	44                   	inc    %esp
  10e879:	00 bb 00 7c 00 00    	add    %bh,0x7c00(%ebx)
  10e87f:	00 00                	add    %al,(%eax)
  10e881:	00 00                	add    %al,(%eax)
  10e883:	00 44 00 be          	add    %al,-0x42(%eax,%eax,1)
  10e887:	00 87 00 00 00 00    	add    %al,0x0(%edi)
  10e88d:	00 00                	add    %al,(%eax)
  10e88f:	00 44 00 c0          	add    %al,-0x40(%eax,%eax,1)
  10e893:	00 95 00 00 00 00    	add    %dl,0x0(%ebp)
  10e899:	00 00                	add    %al,(%eax)
  10e89b:	00 44 00 c1          	add    %al,-0x3f(%eax,%eax,1)
  10e89f:	00 9c 00 00 00 00 00 	add    %bl,0x0(%eax,%eax,1)
  10e8a6:	00 00                	add    %al,(%eax)
  10e8a8:	44                   	inc    %esp
  10e8a9:	00 c2                	add    %al,%dl
  10e8ab:	00 9e 00 00 00 00    	add    %bl,0x0(%esi)
  10e8b1:	00 00                	add    %al,(%eax)
  10e8b3:	00 44 00 c1          	add    %al,-0x3f(%eax,%eax,1)
  10e8b7:	00 b9 00 00 00 00    	add    %bh,0x0(%ecx)
  10e8bd:	00 00                	add    %al,(%eax)
  10e8bf:	00 44 00 c5          	add    %al,-0x3b(%eax,%eax,1)
  10e8c3:	00 bf 00 00 00 00    	add    %bh,0x0(%edi)
  10e8c9:	00 00                	add    %al,(%eax)
  10e8cb:	00 44 00 c6          	add    %al,-0x3a(%eax,%eax,1)
  10e8cf:	00 d4                	add    %dl,%ah
  10e8d1:	00 00                	add    %al,(%eax)
  10e8d3:	00 73 12             	add    %dh,0x12(%ebx)
  10e8d6:	00 00                	add    %al,(%eax)
  10e8d8:	80 00 b3             	addb   $0xb3,(%eax)
  10e8db:	00 f4                	add    %dh,%ah
  10e8dd:	ff                   	(bad)  
  10e8de:	ff                   	(bad)  
  10e8df:	ff                   	(bad)  
  10e8e0:	7d 12                	jge    10e8f4 <cursor_y+0x30d3>
  10e8e2:	00 00                	add    %al,(%eax)
  10e8e4:	80 00 b4             	addb   $0xb4,(%eax)
  10e8e7:	00 cc                	add    %cl,%ah
  10e8e9:	ff                   	(bad)  
  10e8ea:	ff                   	(bad)  
  10e8eb:	ff 81 0b 00 00 80    	incl   -0x7ffffff5(%ecx)
  10e8f1:	00 b5 00 f0 ff ff    	add    %dh,-0x1000(%ebp)
  10e8f7:	ff b2 12 00 00 80    	pushl  -0x7fffffee(%edx)
  10e8fd:	00 bd 00 ac ff ff    	add    %bh,-0x5400(%ebp)
  10e903:	ff                   	(bad)  
  10e904:	bc 12 00 00 80       	mov    $0x80000012,%esp
  10e909:	00 c0                	add    %al,%al
  10e90b:	00 ec                	add    %ch,%ah
  10e90d:	ff                   	(bad)  
  10e90e:	ff                   	(bad)  
  10e90f:	ff 00                	incl   (%eax)
  10e911:	00 00                	add    %al,(%eax)
  10e913:	00 c0                	add    %al,%al
	...
  10e91d:	00 00                	add    %al,(%eax)
  10e91f:	00 e0                	add    %ah,%al
  10e921:	00 00                	add    %al,(%eax)
  10e923:	00 d6                	add    %dl,%dh
  10e925:	00 00                	add    %al,(%eax)
  10e927:	00 00                	add    %al,(%eax)
  10e929:	00 00                	add    %al,(%eax)
  10e92b:	00 24 00             	add    %ah,(%eax,%eax,1)
  10e92e:	00 00                	add    %al,(%eax)
  10e930:	d6                   	(bad)  
  10e931:	00 00                	add    %al,(%eax)
  10e933:	00 00                	add    %al,(%eax)
  10e935:	00 00                	add    %al,(%eax)
  10e937:	00 4e 00             	add    %cl,0x0(%esi)
  10e93a:	00 00                	add    %al,(%eax)
  10e93c:	89 10                	mov    %edx,(%eax)
  10e93e:	10 00                	adc    %al,(%eax)
  10e940:	00 00                	add    %al,(%eax)
  10e942:	00 00                	add    %al,(%eax)
  10e944:	64 00 00             	add    %al,%fs:(%eax)
  10e947:	00 89 10 10 00 00    	add    %cl,0x1010(%ecx)
	...

Disassembly of section .stabstr:

0010f000 <.stabstr>:
  10f000:	00 62 6f             	add    %ah,0x6f(%edx)
  10f003:	6f                   	outsl  %ds:(%esi),(%dx)
  10f004:	74 2f                	je     10f035 <cursor_y+0x3814>
  10f006:	62 6f 6f             	bound  %ebp,0x6f(%edi)
  10f009:	74 2e                	je     10f039 <cursor_y+0x3818>
  10f00b:	73 00                	jae    10f00d <cursor_y+0x37ec>
  10f00d:	2f                   	das    
  10f00e:	68 6f 6d 65 2f       	push   $0x2f656d6f
  10f013:	77 69                	ja     10f07e <cursor_y+0x385d>
  10f015:	6c                   	insb   (%dx),%es:(%edi)
  10f016:	6c                   	insb   (%dx),%es:(%edi)
  10f017:	2f                   	das    
  10f018:	67 69 74 2f 77 69 6c 	imul   $0x6c6c6977,0x2f(%si),%esi
  10f01f:	6c 
  10f020:	6f                   	outsl  %ds:(%esi),(%dx)
  10f021:	73 2f                	jae    10f052 <cursor_y+0x3831>
  10f023:	68 75 72 6c 65       	push   $0x656c7275
  10f028:	78 2d                	js     10f057 <cursor_y+0x3836>
  10f02a:	64 6f                	outsl  %fs:(%esi),(%dx)
  10f02c:	63 2f                	arpl   %bp,(%edi)
  10f02e:	63 6f 64             	arpl   %bp,0x64(%edi)
  10f031:	65 2f                	gs das 
  10f033:	63 68 61             	arpl   %bp,0x61(%eax)
  10f036:	70 74                	jo     10f0ac <cursor_y+0x388b>
  10f038:	35 2f 00 6c 69       	xor    $0x696c002f,%eax
  10f03d:	62 73 2f             	bound  %esi,0x2f(%ebx)
  10f040:	63 6f 6d             	arpl   %bp,0x6d(%edi)
  10f043:	6d                   	insl   (%dx),%es:(%edi)
  10f044:	6f                   	outsl  %ds:(%esi),(%dx)
  10f045:	6e                   	outsb  %ds:(%esi),(%dx)
  10f046:	2e 63 00             	arpl   %ax,%cs:(%eax)
  10f049:	67 63 63 32          	arpl   %sp,0x32(%bp,%di)
  10f04d:	5f                   	pop    %edi
  10f04e:	63 6f 6d             	arpl   %bp,0x6d(%edi)
  10f051:	70 69                	jo     10f0bc <cursor_y+0x389b>
  10f053:	6c                   	insb   (%dx),%es:(%edi)
  10f054:	65 64 2e 00 69 6e    	gs fs add %ch,%cs:0x6e(%ecx)
  10f05a:	74 3a                	je     10f096 <cursor_y+0x3875>
  10f05c:	74 28                	je     10f086 <cursor_y+0x3865>
  10f05e:	30 2c 31             	xor    %ch,(%ecx,%esi,1)
  10f061:	29 3d 72 28 30 2c    	sub    %edi,0x2c302872
  10f067:	31 29                	xor    %ebp,(%ecx)
  10f069:	3b 2d 32 31 34 37    	cmp    0x37343132,%ebp
  10f06f:	34 38                	xor    $0x38,%al
  10f071:	33 36                	xor    (%esi),%esi
  10f073:	34 38                	xor    $0x38,%al
  10f075:	3b 32                	cmp    (%edx),%esi
  10f077:	31 34 37             	xor    %esi,(%edi,%esi,1)
  10f07a:	34 38                	xor    $0x38,%al
  10f07c:	33 36                	xor    (%esi),%esi
  10f07e:	34 37                	xor    $0x37,%al
  10f080:	3b 00                	cmp    (%eax),%eax
  10f082:	63 68 61             	arpl   %bp,0x61(%eax)
  10f085:	72 3a                	jb     10f0c1 <cursor_y+0x38a0>
  10f087:	74 28                	je     10f0b1 <cursor_y+0x3890>
  10f089:	30 2c 32             	xor    %ch,(%edx,%esi,1)
  10f08c:	29 3d 72 28 30 2c    	sub    %edi,0x2c302872
  10f092:	32 29                	xor    (%ecx),%ch
  10f094:	3b 30                	cmp    (%eax),%esi
  10f096:	3b 31                	cmp    (%ecx),%esi
  10f098:	32 37                	xor    (%edi),%dh
  10f09a:	3b 00                	cmp    (%eax),%eax
  10f09c:	6c                   	insb   (%dx),%es:(%edi)
  10f09d:	6f                   	outsl  %ds:(%esi),(%dx)
  10f09e:	6e                   	outsb  %ds:(%esi),(%dx)
  10f09f:	67 20 69 6e          	and    %ch,0x6e(%bx,%di)
  10f0a3:	74 3a                	je     10f0df <cursor_y+0x38be>
  10f0a5:	74 28                	je     10f0cf <cursor_y+0x38ae>
  10f0a7:	30 2c 33             	xor    %ch,(%ebx,%esi,1)
  10f0aa:	29 3d 72 28 30 2c    	sub    %edi,0x2c302872
  10f0b0:	33 29                	xor    (%ecx),%ebp
  10f0b2:	3b 2d 32 31 34 37    	cmp    0x37343132,%ebp
  10f0b8:	34 38                	xor    $0x38,%al
  10f0ba:	33 36                	xor    (%esi),%esi
  10f0bc:	34 38                	xor    $0x38,%al
  10f0be:	3b 32                	cmp    (%edx),%esi
  10f0c0:	31 34 37             	xor    %esi,(%edi,%esi,1)
  10f0c3:	34 38                	xor    $0x38,%al
  10f0c5:	33 36                	xor    (%esi),%esi
  10f0c7:	34 37                	xor    $0x37,%al
  10f0c9:	3b 00                	cmp    (%eax),%eax
  10f0cb:	75 6e                	jne    10f13b <cursor_y+0x391a>
  10f0cd:	73 69                	jae    10f138 <cursor_y+0x3917>
  10f0cf:	67 6e                	outsb  %ds:(%si),(%dx)
  10f0d1:	65 64 20 69 6e       	gs and %ch,%fs:0x6e(%ecx)
  10f0d6:	74 3a                	je     10f112 <cursor_y+0x38f1>
  10f0d8:	74 28                	je     10f102 <cursor_y+0x38e1>
  10f0da:	30 2c 34             	xor    %ch,(%esp,%esi,1)
  10f0dd:	29 3d 72 28 30 2c    	sub    %edi,0x2c302872
  10f0e3:	34 29                	xor    $0x29,%al
  10f0e5:	3b 30                	cmp    (%eax),%esi
  10f0e7:	3b 30                	cmp    (%eax),%esi
  10f0e9:	33 37                	xor    (%edi),%esi
  10f0eb:	37                   	aaa    
  10f0ec:	37                   	aaa    
  10f0ed:	37                   	aaa    
  10f0ee:	37                   	aaa    
  10f0ef:	37                   	aaa    
  10f0f0:	37                   	aaa    
  10f0f1:	37                   	aaa    
  10f0f2:	37                   	aaa    
  10f0f3:	37                   	aaa    
  10f0f4:	3b 00                	cmp    (%eax),%eax
  10f0f6:	6c                   	insb   (%dx),%es:(%edi)
  10f0f7:	6f                   	outsl  %ds:(%esi),(%dx)
  10f0f8:	6e                   	outsb  %ds:(%esi),(%dx)
  10f0f9:	67 20 75 6e          	and    %dh,0x6e(%di)
  10f0fd:	73 69                	jae    10f168 <cursor_y+0x3947>
  10f0ff:	67 6e                	outsb  %ds:(%si),(%dx)
  10f101:	65 64 20 69 6e       	gs and %ch,%fs:0x6e(%ecx)
  10f106:	74 3a                	je     10f142 <cursor_y+0x3921>
  10f108:	74 28                	je     10f132 <cursor_y+0x3911>
  10f10a:	30 2c 35 29 3d 72 28 	xor    %ch,0x28723d29(,%esi,1)
  10f111:	30 2c 35 29 3b 30 3b 	xor    %ch,0x3b303b29(,%esi,1)
  10f118:	30 33                	xor    %dh,(%ebx)
  10f11a:	37                   	aaa    
  10f11b:	37                   	aaa    
  10f11c:	37                   	aaa    
  10f11d:	37                   	aaa    
  10f11e:	37                   	aaa    
  10f11f:	37                   	aaa    
  10f120:	37                   	aaa    
  10f121:	37                   	aaa    
  10f122:	37                   	aaa    
  10f123:	37                   	aaa    
  10f124:	3b 00                	cmp    (%eax),%eax
  10f126:	5f                   	pop    %edi
  10f127:	5f                   	pop    %edi
  10f128:	69 6e 74 31 32 38 3a 	imul   $0x3a383231,0x74(%esi),%ebp
  10f12f:	74 28                	je     10f159 <cursor_y+0x3938>
  10f131:	30 2c 36             	xor    %ch,(%esi,%esi,1)
  10f134:	29 3d 40 73 31 32    	sub    %edi,0x32317340
  10f13a:	38 3b                	cmp    %bh,(%ebx)
  10f13c:	72 28                	jb     10f166 <cursor_y+0x3945>
  10f13e:	30 2c 36             	xor    %ch,(%esi,%esi,1)
  10f141:	29 3b                	sub    %edi,(%ebx)
  10f143:	30 32                	xor    %dh,(%edx)
  10f145:	30 30                	xor    %dh,(%eax)
  10f147:	30 30                	xor    %dh,(%eax)
  10f149:	30 30                	xor    %dh,(%eax)
  10f14b:	30 30                	xor    %dh,(%eax)
  10f14d:	30 30                	xor    %dh,(%eax)
  10f14f:	30 30                	xor    %dh,(%eax)
  10f151:	30 30                	xor    %dh,(%eax)
  10f153:	30 30                	xor    %dh,(%eax)
  10f155:	30 30                	xor    %dh,(%eax)
  10f157:	30 30                	xor    %dh,(%eax)
  10f159:	30 30                	xor    %dh,(%eax)
  10f15b:	30 30                	xor    %dh,(%eax)
  10f15d:	30 30                	xor    %dh,(%eax)
  10f15f:	30 30                	xor    %dh,(%eax)
  10f161:	30 30                	xor    %dh,(%eax)
  10f163:	30 30                	xor    %dh,(%eax)
  10f165:	30 30                	xor    %dh,(%eax)
  10f167:	30 30                	xor    %dh,(%eax)
  10f169:	30 30                	xor    %dh,(%eax)
  10f16b:	30 30                	xor    %dh,(%eax)
  10f16d:	30 30                	xor    %dh,(%eax)
  10f16f:	3b 30                	cmp    (%eax),%esi
  10f171:	31 37                	xor    %esi,(%edi)
  10f173:	37                   	aaa    
  10f174:	37                   	aaa    
  10f175:	37                   	aaa    
  10f176:	37                   	aaa    
  10f177:	37                   	aaa    
  10f178:	37                   	aaa    
  10f179:	37                   	aaa    
  10f17a:	37                   	aaa    
  10f17b:	37                   	aaa    
  10f17c:	37                   	aaa    
  10f17d:	37                   	aaa    
  10f17e:	37                   	aaa    
  10f17f:	37                   	aaa    
  10f180:	37                   	aaa    
  10f181:	37                   	aaa    
  10f182:	37                   	aaa    
  10f183:	37                   	aaa    
  10f184:	37                   	aaa    
  10f185:	37                   	aaa    
  10f186:	37                   	aaa    
  10f187:	37                   	aaa    
  10f188:	37                   	aaa    
  10f189:	37                   	aaa    
  10f18a:	37                   	aaa    
  10f18b:	37                   	aaa    
  10f18c:	37                   	aaa    
  10f18d:	37                   	aaa    
  10f18e:	37                   	aaa    
  10f18f:	37                   	aaa    
  10f190:	37                   	aaa    
  10f191:	37                   	aaa    
  10f192:	37                   	aaa    
  10f193:	37                   	aaa    
  10f194:	37                   	aaa    
  10f195:	37                   	aaa    
  10f196:	37                   	aaa    
  10f197:	37                   	aaa    
  10f198:	37                   	aaa    
  10f199:	37                   	aaa    
  10f19a:	37                   	aaa    
  10f19b:	37                   	aaa    
  10f19c:	3b 00                	cmp    (%eax),%eax
  10f19e:	5f                   	pop    %edi
  10f19f:	5f                   	pop    %edi
  10f1a0:	69 6e 74 31 32 38 20 	imul   $0x20383231,0x74(%esi),%ebp
  10f1a7:	75 6e                	jne    10f217 <cursor_y+0x39f6>
  10f1a9:	73 69                	jae    10f214 <cursor_y+0x39f3>
  10f1ab:	67 6e                	outsb  %ds:(%si),(%dx)
  10f1ad:	65 64 3a 74 28 30    	gs cmp %fs:0x30(%eax,%ebp,1),%dh
  10f1b3:	2c 37                	sub    $0x37,%al
  10f1b5:	29 3d 40 73 31 32    	sub    %edi,0x32317340
  10f1bb:	38 3b                	cmp    %bh,(%ebx)
  10f1bd:	72 28                	jb     10f1e7 <cursor_y+0x39c6>
  10f1bf:	30 2c 37             	xor    %ch,(%edi,%esi,1)
  10f1c2:	29 3b                	sub    %edi,(%ebx)
  10f1c4:	30 3b                	xor    %bh,(%ebx)
  10f1c6:	30 33                	xor    %dh,(%ebx)
  10f1c8:	37                   	aaa    
  10f1c9:	37                   	aaa    
  10f1ca:	37                   	aaa    
  10f1cb:	37                   	aaa    
  10f1cc:	37                   	aaa    
  10f1cd:	37                   	aaa    
  10f1ce:	37                   	aaa    
  10f1cf:	37                   	aaa    
  10f1d0:	37                   	aaa    
  10f1d1:	37                   	aaa    
  10f1d2:	37                   	aaa    
  10f1d3:	37                   	aaa    
  10f1d4:	37                   	aaa    
  10f1d5:	37                   	aaa    
  10f1d6:	37                   	aaa    
  10f1d7:	37                   	aaa    
  10f1d8:	37                   	aaa    
  10f1d9:	37                   	aaa    
  10f1da:	37                   	aaa    
  10f1db:	37                   	aaa    
  10f1dc:	37                   	aaa    
  10f1dd:	37                   	aaa    
  10f1de:	37                   	aaa    
  10f1df:	37                   	aaa    
  10f1e0:	37                   	aaa    
  10f1e1:	37                   	aaa    
  10f1e2:	37                   	aaa    
  10f1e3:	37                   	aaa    
  10f1e4:	37                   	aaa    
  10f1e5:	37                   	aaa    
  10f1e6:	37                   	aaa    
  10f1e7:	37                   	aaa    
  10f1e8:	37                   	aaa    
  10f1e9:	37                   	aaa    
  10f1ea:	37                   	aaa    
  10f1eb:	37                   	aaa    
  10f1ec:	37                   	aaa    
  10f1ed:	37                   	aaa    
  10f1ee:	37                   	aaa    
  10f1ef:	37                   	aaa    
  10f1f0:	37                   	aaa    
  10f1f1:	37                   	aaa    
  10f1f2:	3b 00                	cmp    (%eax),%eax
  10f1f4:	6c                   	insb   (%dx),%es:(%edi)
  10f1f5:	6f                   	outsl  %ds:(%esi),(%dx)
  10f1f6:	6e                   	outsb  %ds:(%esi),(%dx)
  10f1f7:	67 20 6c 6f          	and    %ch,0x6f(%si)
  10f1fb:	6e                   	outsb  %ds:(%esi),(%dx)
  10f1fc:	67 20 69 6e          	and    %ch,0x6e(%bx,%di)
  10f200:	74 3a                	je     10f23c <cursor_y+0x3a1b>
  10f202:	74 28                	je     10f22c <cursor_y+0x3a0b>
  10f204:	30 2c 38             	xor    %ch,(%eax,%edi,1)
  10f207:	29 3d 40 73 36 34    	sub    %edi,0x34367340
  10f20d:	3b 72 28             	cmp    0x28(%edx),%esi
  10f210:	30 2c 38             	xor    %ch,(%eax,%edi,1)
  10f213:	29 3b                	sub    %edi,(%ebx)
  10f215:	30 31                	xor    %dh,(%ecx)
  10f217:	30 30                	xor    %dh,(%eax)
  10f219:	30 30                	xor    %dh,(%eax)
  10f21b:	30 30                	xor    %dh,(%eax)
  10f21d:	30 30                	xor    %dh,(%eax)
  10f21f:	30 30                	xor    %dh,(%eax)
  10f221:	30 30                	xor    %dh,(%eax)
  10f223:	30 30                	xor    %dh,(%eax)
  10f225:	30 30                	xor    %dh,(%eax)
  10f227:	30 30                	xor    %dh,(%eax)
  10f229:	30 30                	xor    %dh,(%eax)
  10f22b:	30 3b                	xor    %bh,(%ebx)
  10f22d:	30 30                	xor    %dh,(%eax)
  10f22f:	37                   	aaa    
  10f230:	37                   	aaa    
  10f231:	37                   	aaa    
  10f232:	37                   	aaa    
  10f233:	37                   	aaa    
  10f234:	37                   	aaa    
  10f235:	37                   	aaa    
  10f236:	37                   	aaa    
  10f237:	37                   	aaa    
  10f238:	37                   	aaa    
  10f239:	37                   	aaa    
  10f23a:	37                   	aaa    
  10f23b:	37                   	aaa    
  10f23c:	37                   	aaa    
  10f23d:	37                   	aaa    
  10f23e:	37                   	aaa    
  10f23f:	37                   	aaa    
  10f240:	37                   	aaa    
  10f241:	37                   	aaa    
  10f242:	37                   	aaa    
  10f243:	37                   	aaa    
  10f244:	3b 00                	cmp    (%eax),%eax
  10f246:	6c                   	insb   (%dx),%es:(%edi)
  10f247:	6f                   	outsl  %ds:(%esi),(%dx)
  10f248:	6e                   	outsb  %ds:(%esi),(%dx)
  10f249:	67 20 6c 6f          	and    %ch,0x6f(%si)
  10f24d:	6e                   	outsb  %ds:(%esi),(%dx)
  10f24e:	67 20 75 6e          	and    %dh,0x6e(%di)
  10f252:	73 69                	jae    10f2bd <cursor_y+0x3a9c>
  10f254:	67 6e                	outsb  %ds:(%si),(%dx)
  10f256:	65 64 20 69 6e       	gs and %ch,%fs:0x6e(%ecx)
  10f25b:	74 3a                	je     10f297 <cursor_y+0x3a76>
  10f25d:	74 28                	je     10f287 <cursor_y+0x3a66>
  10f25f:	30 2c 39             	xor    %ch,(%ecx,%edi,1)
  10f262:	29 3d 40 73 36 34    	sub    %edi,0x34367340
  10f268:	3b 72 28             	cmp    0x28(%edx),%esi
  10f26b:	30 2c 39             	xor    %ch,(%ecx,%edi,1)
  10f26e:	29 3b                	sub    %edi,(%ebx)
  10f270:	30 3b                	xor    %bh,(%ebx)
  10f272:	30 31                	xor    %dh,(%ecx)
  10f274:	37                   	aaa    
  10f275:	37                   	aaa    
  10f276:	37                   	aaa    
  10f277:	37                   	aaa    
  10f278:	37                   	aaa    
  10f279:	37                   	aaa    
  10f27a:	37                   	aaa    
  10f27b:	37                   	aaa    
  10f27c:	37                   	aaa    
  10f27d:	37                   	aaa    
  10f27e:	37                   	aaa    
  10f27f:	37                   	aaa    
  10f280:	37                   	aaa    
  10f281:	37                   	aaa    
  10f282:	37                   	aaa    
  10f283:	37                   	aaa    
  10f284:	37                   	aaa    
  10f285:	37                   	aaa    
  10f286:	37                   	aaa    
  10f287:	37                   	aaa    
  10f288:	37                   	aaa    
  10f289:	3b 00                	cmp    (%eax),%eax
  10f28b:	73 68                	jae    10f2f5 <cursor_y+0x3ad4>
  10f28d:	6f                   	outsl  %ds:(%esi),(%dx)
  10f28e:	72 74                	jb     10f304 <cursor_y+0x3ae3>
  10f290:	20 69 6e             	and    %ch,0x6e(%ecx)
  10f293:	74 3a                	je     10f2cf <cursor_y+0x3aae>
  10f295:	74 28                	je     10f2bf <cursor_y+0x3a9e>
  10f297:	30 2c 31             	xor    %ch,(%ecx,%esi,1)
  10f29a:	30 29                	xor    %ch,(%ecx)
  10f29c:	3d 40 73 31 36       	cmp    $0x36317340,%eax
  10f2a1:	3b 72 28             	cmp    0x28(%edx),%esi
  10f2a4:	30 2c 31             	xor    %ch,(%ecx,%esi,1)
  10f2a7:	30 29                	xor    %ch,(%ecx)
  10f2a9:	3b 2d 33 32 37 36    	cmp    0x36373233,%ebp
  10f2af:	38 3b                	cmp    %bh,(%ebx)
  10f2b1:	33 32                	xor    (%edx),%esi
  10f2b3:	37                   	aaa    
  10f2b4:	36 37                	ss aaa 
  10f2b6:	3b 00                	cmp    (%eax),%eax
  10f2b8:	73 68                	jae    10f322 <cursor_y+0x3b01>
  10f2ba:	6f                   	outsl  %ds:(%esi),(%dx)
  10f2bb:	72 74                	jb     10f331 <cursor_y+0x3b10>
  10f2bd:	20 75 6e             	and    %dh,0x6e(%ebp)
  10f2c0:	73 69                	jae    10f32b <cursor_y+0x3b0a>
  10f2c2:	67 6e                	outsb  %ds:(%si),(%dx)
  10f2c4:	65 64 20 69 6e       	gs and %ch,%fs:0x6e(%ecx)
  10f2c9:	74 3a                	je     10f305 <cursor_y+0x3ae4>
  10f2cb:	74 28                	je     10f2f5 <cursor_y+0x3ad4>
  10f2cd:	30 2c 31             	xor    %ch,(%ecx,%esi,1)
  10f2d0:	31 29                	xor    %ebp,(%ecx)
  10f2d2:	3d 40 73 31 36       	cmp    $0x36317340,%eax
  10f2d7:	3b 72 28             	cmp    0x28(%edx),%esi
  10f2da:	30 2c 31             	xor    %ch,(%ecx,%esi,1)
  10f2dd:	31 29                	xor    %ebp,(%ecx)
  10f2df:	3b 30                	cmp    (%eax),%esi
  10f2e1:	3b 36                	cmp    (%esi),%esi
  10f2e3:	35 35 33 35 3b       	xor    $0x3b353335,%eax
  10f2e8:	00 73 69             	add    %dh,0x69(%ebx)
  10f2eb:	67 6e                	outsb  %ds:(%si),(%dx)
  10f2ed:	65 64 20 63 68       	gs and %ah,%fs:0x68(%ebx)
  10f2f2:	61                   	popa   
  10f2f3:	72 3a                	jb     10f32f <cursor_y+0x3b0e>
  10f2f5:	74 28                	je     10f31f <cursor_y+0x3afe>
  10f2f7:	30 2c 31             	xor    %ch,(%ecx,%esi,1)
  10f2fa:	32 29                	xor    (%ecx),%ch
  10f2fc:	3d 40 73 38 3b       	cmp    $0x3b387340,%eax
  10f301:	72 28                	jb     10f32b <cursor_y+0x3b0a>
  10f303:	30 2c 31             	xor    %ch,(%ecx,%esi,1)
  10f306:	32 29                	xor    (%ecx),%ch
  10f308:	3b 2d 31 32 38 3b    	cmp    0x3b383231,%ebp
  10f30e:	31 32                	xor    %esi,(%edx)
  10f310:	37                   	aaa    
  10f311:	3b 00                	cmp    (%eax),%eax
  10f313:	75 6e                	jne    10f383 <cursor_y+0x3b62>
  10f315:	73 69                	jae    10f380 <cursor_y+0x3b5f>
  10f317:	67 6e                	outsb  %ds:(%si),(%dx)
  10f319:	65 64 20 63 68       	gs and %ah,%fs:0x68(%ebx)
  10f31e:	61                   	popa   
  10f31f:	72 3a                	jb     10f35b <cursor_y+0x3b3a>
  10f321:	74 28                	je     10f34b <cursor_y+0x3b2a>
  10f323:	30 2c 31             	xor    %ch,(%ecx,%esi,1)
  10f326:	33 29                	xor    (%ecx),%ebp
  10f328:	3d 40 73 38 3b       	cmp    $0x3b387340,%eax
  10f32d:	72 28                	jb     10f357 <cursor_y+0x3b36>
  10f32f:	30 2c 31             	xor    %ch,(%ecx,%esi,1)
  10f332:	33 29                	xor    (%ecx),%ebp
  10f334:	3b 30                	cmp    (%eax),%esi
  10f336:	3b 32                	cmp    (%edx),%esi
  10f338:	35 35 3b 00 66       	xor    $0x66003b35,%eax
  10f33d:	6c                   	insb   (%dx),%es:(%edi)
  10f33e:	6f                   	outsl  %ds:(%esi),(%dx)
  10f33f:	61                   	popa   
  10f340:	74 3a                	je     10f37c <cursor_y+0x3b5b>
  10f342:	74 28                	je     10f36c <cursor_y+0x3b4b>
  10f344:	30 2c 31             	xor    %ch,(%ecx,%esi,1)
  10f347:	34 29                	xor    $0x29,%al
  10f349:	3d 72 28 30 2c       	cmp    $0x2c302872,%eax
  10f34e:	31 29                	xor    %ebp,(%ecx)
  10f350:	3b 34 3b             	cmp    (%ebx,%edi,1),%esi
  10f353:	30 3b                	xor    %bh,(%ebx)
  10f355:	00 64 6f 75          	add    %ah,0x75(%edi,%ebp,2)
  10f359:	62 6c 65 3a          	bound  %ebp,0x3a(%ebp,%eiz,2)
  10f35d:	74 28                	je     10f387 <cursor_y+0x3b66>
  10f35f:	30 2c 31             	xor    %ch,(%ecx,%esi,1)
  10f362:	35 29 3d 72 28       	xor    $0x28723d29,%eax
  10f367:	30 2c 31             	xor    %ch,(%ecx,%esi,1)
  10f36a:	29 3b                	sub    %edi,(%ebx)
  10f36c:	38 3b                	cmp    %bh,(%ebx)
  10f36e:	30 3b                	xor    %bh,(%ebx)
  10f370:	00 6c 6f 6e          	add    %ch,0x6e(%edi,%ebp,2)
  10f374:	67 20 64 6f          	and    %ah,0x6f(%si)
  10f378:	75 62                	jne    10f3dc <cursor_y+0x3bbb>
  10f37a:	6c                   	insb   (%dx),%es:(%edi)
  10f37b:	65 3a 74 28 30       	cmp    %gs:0x30(%eax,%ebp,1),%dh
  10f380:	2c 31                	sub    $0x31,%al
  10f382:	36 29 3d 72 28 30 2c 	sub    %edi,%ss:0x2c302872
  10f389:	31 29                	xor    %ebp,(%ecx)
  10f38b:	3b 31                	cmp    (%ecx),%esi
  10f38d:	32 3b                	xor    (%ebx),%bh
  10f38f:	30 3b                	xor    %bh,(%ebx)
  10f391:	00 5f 46             	add    %bl,0x46(%edi)
  10f394:	6c                   	insb   (%dx),%es:(%edi)
  10f395:	6f                   	outsl  %ds:(%esi),(%dx)
  10f396:	61                   	popa   
  10f397:	74 33                	je     10f3cc <cursor_y+0x3bab>
  10f399:	32 3a                	xor    (%edx),%bh
  10f39b:	74 28                	je     10f3c5 <cursor_y+0x3ba4>
  10f39d:	30 2c 31             	xor    %ch,(%ecx,%esi,1)
  10f3a0:	37                   	aaa    
  10f3a1:	29 3d 72 28 30 2c    	sub    %edi,0x2c302872
  10f3a7:	31 29                	xor    %ebp,(%ecx)
  10f3a9:	3b 34 3b             	cmp    (%ebx,%edi,1),%esi
  10f3ac:	30 3b                	xor    %bh,(%ebx)
  10f3ae:	00 5f 46             	add    %bl,0x46(%edi)
  10f3b1:	6c                   	insb   (%dx),%es:(%edi)
  10f3b2:	6f                   	outsl  %ds:(%esi),(%dx)
  10f3b3:	61                   	popa   
  10f3b4:	74 36                	je     10f3ec <cursor_y+0x3bcb>
  10f3b6:	34 3a                	xor    $0x3a,%al
  10f3b8:	74 28                	je     10f3e2 <cursor_y+0x3bc1>
  10f3ba:	30 2c 31             	xor    %ch,(%ecx,%esi,1)
  10f3bd:	38 29                	cmp    %ch,(%ecx)
  10f3bf:	3d 72 28 30 2c       	cmp    $0x2c302872,%eax
  10f3c4:	31 29                	xor    %ebp,(%ecx)
  10f3c6:	3b 38                	cmp    (%eax),%edi
  10f3c8:	3b 30                	cmp    (%eax),%esi
  10f3ca:	3b 00                	cmp    (%eax),%eax
  10f3cc:	5f                   	pop    %edi
  10f3cd:	46                   	inc    %esi
  10f3ce:	6c                   	insb   (%dx),%es:(%edi)
  10f3cf:	6f                   	outsl  %ds:(%esi),(%dx)
  10f3d0:	61                   	popa   
  10f3d1:	74 31                	je     10f404 <cursor_y+0x3be3>
  10f3d3:	32 38                	xor    (%eax),%bh
  10f3d5:	3a 74 28 30          	cmp    0x30(%eax,%ebp,1),%dh
  10f3d9:	2c 31                	sub    $0x31,%al
  10f3db:	39 29                	cmp    %ebp,(%ecx)
  10f3dd:	3d 72 28 30 2c       	cmp    $0x2c302872,%eax
  10f3e2:	31 29                	xor    %ebp,(%ecx)
  10f3e4:	3b 31                	cmp    (%ecx),%esi
  10f3e6:	36 3b 30             	cmp    %ss:(%eax),%esi
  10f3e9:	3b 00                	cmp    (%eax),%eax
  10f3eb:	5f                   	pop    %edi
  10f3ec:	46                   	inc    %esi
  10f3ed:	6c                   	insb   (%dx),%es:(%edi)
  10f3ee:	6f                   	outsl  %ds:(%esi),(%dx)
  10f3ef:	61                   	popa   
  10f3f0:	74 33                	je     10f425 <cursor_y+0x3c04>
  10f3f2:	32 78 3a             	xor    0x3a(%eax),%bh
  10f3f5:	74 28                	je     10f41f <cursor_y+0x3bfe>
  10f3f7:	30 2c 32             	xor    %ch,(%edx,%esi,1)
  10f3fa:	30 29                	xor    %ch,(%ecx)
  10f3fc:	3d 72 28 30 2c       	cmp    $0x2c302872,%eax
  10f401:	31 29                	xor    %ebp,(%ecx)
  10f403:	3b 38                	cmp    (%eax),%edi
  10f405:	3b 30                	cmp    (%eax),%esi
  10f407:	3b 00                	cmp    (%eax),%eax
  10f409:	5f                   	pop    %edi
  10f40a:	46                   	inc    %esi
  10f40b:	6c                   	insb   (%dx),%es:(%edi)
  10f40c:	6f                   	outsl  %ds:(%esi),(%dx)
  10f40d:	61                   	popa   
  10f40e:	74 36                	je     10f446 <cursor_y+0x3c25>
  10f410:	34 78                	xor    $0x78,%al
  10f412:	3a 74 28 30          	cmp    0x30(%eax,%ebp,1),%dh
  10f416:	2c 32                	sub    $0x32,%al
  10f418:	31 29                	xor    %ebp,(%ecx)
  10f41a:	3d 72 28 30 2c       	cmp    $0x2c302872,%eax
  10f41f:	31 29                	xor    %ebp,(%ecx)
  10f421:	3b 31                	cmp    (%ecx),%esi
  10f423:	32 3b                	xor    (%ebx),%bh
  10f425:	30 3b                	xor    %bh,(%ebx)
  10f427:	00 5f 44             	add    %bl,0x44(%edi)
  10f42a:	65 63 69 6d          	arpl   %bp,%gs:0x6d(%ecx)
  10f42e:	61                   	popa   
  10f42f:	6c                   	insb   (%dx),%es:(%edi)
  10f430:	33 32                	xor    (%edx),%esi
  10f432:	3a 74 28 30          	cmp    0x30(%eax,%ebp,1),%dh
  10f436:	2c 32                	sub    $0x32,%al
  10f438:	32 29                	xor    (%ecx),%ch
  10f43a:	3d 72 28 30 2c       	cmp    $0x2c302872,%eax
  10f43f:	31 29                	xor    %ebp,(%ecx)
  10f441:	3b 34 3b             	cmp    (%ebx,%edi,1),%esi
  10f444:	30 3b                	xor    %bh,(%ebx)
  10f446:	00 5f 44             	add    %bl,0x44(%edi)
  10f449:	65 63 69 6d          	arpl   %bp,%gs:0x6d(%ecx)
  10f44d:	61                   	popa   
  10f44e:	6c                   	insb   (%dx),%es:(%edi)
  10f44f:	36 34 3a             	ss xor $0x3a,%al
  10f452:	74 28                	je     10f47c <cursor_y+0x3c5b>
  10f454:	30 2c 32             	xor    %ch,(%edx,%esi,1)
  10f457:	33 29                	xor    (%ecx),%ebp
  10f459:	3d 72 28 30 2c       	cmp    $0x2c302872,%eax
  10f45e:	31 29                	xor    %ebp,(%ecx)
  10f460:	3b 38                	cmp    (%eax),%edi
  10f462:	3b 30                	cmp    (%eax),%esi
  10f464:	3b 00                	cmp    (%eax),%eax
  10f466:	5f                   	pop    %edi
  10f467:	44                   	inc    %esp
  10f468:	65 63 69 6d          	arpl   %bp,%gs:0x6d(%ecx)
  10f46c:	61                   	popa   
  10f46d:	6c                   	insb   (%dx),%es:(%edi)
  10f46e:	31 32                	xor    %esi,(%edx)
  10f470:	38 3a                	cmp    %bh,(%edx)
  10f472:	74 28                	je     10f49c <cursor_y+0x3c7b>
  10f474:	30 2c 32             	xor    %ch,(%edx,%esi,1)
  10f477:	34 29                	xor    $0x29,%al
  10f479:	3d 72 28 30 2c       	cmp    $0x2c302872,%eax
  10f47e:	31 29                	xor    %ebp,(%ecx)
  10f480:	3b 31                	cmp    (%ecx),%esi
  10f482:	36 3b 30             	cmp    %ss:(%eax),%esi
  10f485:	3b 00                	cmp    (%eax),%eax
  10f487:	76 6f                	jbe    10f4f8 <cursor_y+0x3cd7>
  10f489:	69 64 3a 74 28 30 2c 	imul   $0x322c3028,0x74(%edx,%edi,1),%esp
  10f490:	32 
  10f491:	35 29 3d 28 30       	xor    $0x30283d29,%eax
  10f496:	2c 32                	sub    $0x32,%al
  10f498:	35 29 00 69 6e       	xor    $0x6e690029,%eax
  10f49d:	63 6c 75 64          	arpl   %bp,0x64(%ebp,%esi,2)
  10f4a1:	65 2f                	gs das 
  10f4a3:	63 6f 6d             	arpl   %bp,0x6d(%edi)
  10f4a6:	6d                   	insl   (%dx),%es:(%edi)
  10f4a7:	6f                   	outsl  %ds:(%esi),(%dx)
  10f4a8:	6e                   	outsb  %ds:(%esi),(%dx)
  10f4a9:	2e 68 00 69 6e 63    	cs push $0x636e6900
  10f4af:	6c                   	insb   (%dx),%es:(%edi)
  10f4b0:	75 64                	jne    10f516 <cursor_y+0x3cf5>
  10f4b2:	65 2f                	gs das 
  10f4b4:	74 79                	je     10f52f <cursor_y+0x3d0e>
  10f4b6:	70 65                	jo     10f51d <cursor_y+0x3cfc>
  10f4b8:	73 2e                	jae    10f4e8 <cursor_y+0x3cc7>
  10f4ba:	68 00 75 69 6e       	push   $0x6e697500
  10f4bf:	74 33                	je     10f4f4 <cursor_y+0x3cd3>
  10f4c1:	32 5f 74             	xor    0x74(%edi),%bl
  10f4c4:	3a 74 28 32          	cmp    0x32(%eax,%ebp,1),%dh
  10f4c8:	2c 31                	sub    $0x31,%al
  10f4ca:	29 3d 28 30 2c 34    	sub    %edi,0x342c3028
  10f4d0:	29 00                	sub    %eax,(%eax)
  10f4d2:	69 6e 74 33 32 5f 74 	imul   $0x745f3233,0x74(%esi),%ebp
  10f4d9:	3a 74 28 32          	cmp    0x32(%eax,%ebp,1),%dh
  10f4dd:	2c 32                	sub    $0x32,%al
  10f4df:	29 3d 28 30 2c 31    	sub    %edi,0x312c3028
  10f4e5:	29 00                	sub    %eax,(%eax)
  10f4e7:	75 69                	jne    10f552 <cursor_y+0x3d31>
  10f4e9:	6e                   	outsb  %ds:(%esi),(%dx)
  10f4ea:	74 31                	je     10f51d <cursor_y+0x3cfc>
  10f4ec:	36 5f                	ss pop %edi
  10f4ee:	74 3a                	je     10f52a <cursor_y+0x3d09>
  10f4f0:	74 28                	je     10f51a <cursor_y+0x3cf9>
  10f4f2:	32 2c 33             	xor    (%ebx,%esi,1),%ch
  10f4f5:	29 3d 28 30 2c 31    	sub    %edi,0x312c3028
  10f4fb:	31 29                	xor    %ebp,(%ecx)
  10f4fd:	00 69 6e             	add    %ch,0x6e(%ecx)
  10f500:	74 31                	je     10f533 <cursor_y+0x3d12>
  10f502:	36 5f                	ss pop %edi
  10f504:	74 3a                	je     10f540 <cursor_y+0x3d1f>
  10f506:	74 28                	je     10f530 <cursor_y+0x3d0f>
  10f508:	32 2c 34             	xor    (%esp,%esi,1),%ch
  10f50b:	29 3d 28 30 2c 31    	sub    %edi,0x312c3028
  10f511:	30 29                	xor    %ch,(%ecx)
  10f513:	00 75 69             	add    %dh,0x69(%ebp)
  10f516:	6e                   	outsb  %ds:(%esi),(%dx)
  10f517:	74 38                	je     10f551 <cursor_y+0x3d30>
  10f519:	5f                   	pop    %edi
  10f51a:	74 3a                	je     10f556 <cursor_y+0x3d35>
  10f51c:	74 28                	je     10f546 <cursor_y+0x3d25>
  10f51e:	32 2c 35 29 3d 28 30 	xor    0x30283d29(,%esi,1),%ch
  10f525:	2c 31                	sub    $0x31,%al
  10f527:	33 29                	xor    (%ecx),%ebp
  10f529:	00 69 6e             	add    %ch,0x6e(%ecx)
  10f52c:	74 38                	je     10f566 <cursor_y+0x3d45>
  10f52e:	5f                   	pop    %edi
  10f52f:	74 3a                	je     10f56b <cursor_y+0x3d4a>
  10f531:	74 28                	je     10f55b <cursor_y+0x3d3a>
  10f533:	32 2c 36             	xor    (%esi,%esi,1),%ch
  10f536:	29 3d 28 30 2c 32    	sub    %edi,0x322c3028
  10f53c:	29 00                	sub    %eax,(%eax)
  10f53e:	6f                   	outsl  %ds:(%esi),(%dx)
  10f53f:	75 74                	jne    10f5b5 <cursor_y+0x3d94>
  10f541:	62 3a                	bound  %edi,(%edx)
  10f543:	46                   	inc    %esi
  10f544:	28 30                	sub    %dh,(%eax)
  10f546:	2c 32                	sub    $0x32,%al
  10f548:	35 29 00 70 6f       	xor    $0x6f700029,%eax
  10f54d:	72 74                	jb     10f5c3 <cursor_y+0x3da2>
  10f54f:	3a 70 28             	cmp    0x28(%eax),%dh
  10f552:	30 2c 31             	xor    %ch,(%ecx,%esi,1)
  10f555:	29 00                	sub    %eax,(%eax)
  10f557:	76 61                	jbe    10f5ba <cursor_y+0x3d99>
  10f559:	6c                   	insb   (%dx),%es:(%edi)
  10f55a:	75 65                	jne    10f5c1 <cursor_y+0x3da0>
  10f55c:	3a 70 28             	cmp    0x28(%eax),%dh
  10f55f:	30 2c 31             	xor    %ch,(%ecx,%esi,1)
  10f562:	29 00                	sub    %eax,(%eax)
  10f564:	70 6f                	jo     10f5d5 <cursor_y+0x3db4>
  10f566:	72 74                	jb     10f5dc <cursor_y+0x3dbb>
  10f568:	3a 28                	cmp    (%eax),%ch
  10f56a:	32 2c 33             	xor    (%ebx,%esi,1),%ch
  10f56d:	29 00                	sub    %eax,(%eax)
  10f56f:	76 61                	jbe    10f5d2 <cursor_y+0x3db1>
  10f571:	6c                   	insb   (%dx),%es:(%edi)
  10f572:	75 65                	jne    10f5d9 <cursor_y+0x3db8>
  10f574:	3a 28                	cmp    (%eax),%ch
  10f576:	32 2c 35 29 00 69 6e 	xor    0x6e690029(,%esi,1),%ch
  10f57d:	62 3a                	bound  %edi,(%edx)
  10f57f:	46                   	inc    %esi
  10f580:	28 32                	sub    %dh,(%edx)
  10f582:	2c 35                	sub    $0x35,%al
  10f584:	29 00                	sub    %eax,(%eax)
  10f586:	72 65                	jb     10f5ed <cursor_y+0x3dcc>
  10f588:	74 3a                	je     10f5c4 <cursor_y+0x3da3>
  10f58a:	28 32                	sub    %dh,(%edx)
  10f58c:	2c 35                	sub    $0x35,%al
  10f58e:	29 00                	sub    %eax,(%eax)
  10f590:	69 6e 77 3a 46 28 32 	imul   $0x3228463a,0x77(%esi),%ebp
  10f597:	2c 33                	sub    $0x33,%al
  10f599:	29 00                	sub    %eax,(%eax)
  10f59b:	72 65                	jb     10f602 <cursor_y+0x3de1>
  10f59d:	74 3a                	je     10f5d9 <cursor_y+0x3db8>
  10f59f:	28 32                	sub    %dh,(%edx)
  10f5a1:	2c 33                	sub    $0x33,%al
  10f5a3:	29 00                	sub    %eax,(%eax)
  10f5a5:	6c                   	insb   (%dx),%es:(%edi)
  10f5a6:	69 62 73 2f 65 6c 66 	imul   $0x666c652f,0x73(%edx),%esp
  10f5ad:	2e 63 00             	arpl   %ax,%cs:(%eax)
  10f5b0:	69 6e 63 6c 75 64 65 	imul   $0x6564756c,0x63(%esi),%ebp
  10f5b7:	2f                   	das    
  10f5b8:	65 6c                	gs insb (%dx),%es:(%edi)
  10f5ba:	66 2e 68 00 69       	cs pushw $0x6900
  10f5bf:	6e                   	outsb  %ds:(%esi),(%dx)
  10f5c0:	63 6c 75 64          	arpl   %bp,0x64(%ebp,%esi,2)
  10f5c4:	65 2f                	gs das 
  10f5c6:	6d                   	insl   (%dx),%es:(%edi)
  10f5c7:	75 6c                	jne    10f635 <cursor_y+0x3e14>
  10f5c9:	74 69                	je     10f634 <cursor_y+0x3e13>
  10f5cb:	62 6f 6f             	bound  %ebp,0x6f(%edi)
  10f5ce:	74 2e                	je     10f5fe <cursor_y+0x3ddd>
  10f5d0:	68 00 6d 75 6c       	push   $0x6c756d00
  10f5d5:	74 69                	je     10f640 <cursor_y+0x3e1f>
  10f5d7:	62 6f 6f             	bound  %ebp,0x6f(%edi)
  10f5da:	74 5f                	je     10f63b <cursor_y+0x3e1a>
  10f5dc:	74 3a                	je     10f618 <cursor_y+0x3df7>
  10f5de:	54                   	push   %esp
  10f5df:	28 34 2c             	sub    %dh,(%esp,%ebp,1)
  10f5e2:	31 29                	xor    %ebp,(%ecx)
  10f5e4:	3d 73 39 36 66       	cmp    $0x66363973,%eax
  10f5e9:	6c                   	insb   (%dx),%es:(%edi)
  10f5ea:	61                   	popa   
  10f5eb:	67 73 3a             	addr16 jae 10f628 <cursor_y+0x3e07>
  10f5ee:	28 32                	sub    %dh,(%edx)
  10f5f0:	2c 31                	sub    $0x31,%al
  10f5f2:	29 2c 30             	sub    %ebp,(%eax,%esi,1)
  10f5f5:	2c 33                	sub    $0x33,%al
  10f5f7:	32 3b                	xor    (%ebx),%bh
  10f5f9:	6d                   	insl   (%dx),%es:(%edi)
  10f5fa:	65 6d                	gs insl (%dx),%es:(%edi)
  10f5fc:	5f                   	pop    %edi
  10f5fd:	6c                   	insb   (%dx),%es:(%edi)
  10f5fe:	6f                   	outsl  %ds:(%esi),(%dx)
  10f5ff:	77 65                	ja     10f666 <cursor_y+0x3e45>
  10f601:	72 3a                	jb     10f63d <cursor_y+0x3e1c>
  10f603:	28 32                	sub    %dh,(%edx)
  10f605:	2c 31                	sub    $0x31,%al
  10f607:	29 2c 33             	sub    %ebp,(%ebx,%esi,1)
  10f60a:	32 2c 33             	xor    (%ebx,%esi,1),%ch
  10f60d:	32 3b                	xor    (%ebx),%bh
  10f60f:	6d                   	insl   (%dx),%es:(%edi)
  10f610:	65 6d                	gs insl (%dx),%es:(%edi)
  10f612:	5f                   	pop    %edi
  10f613:	75 70                	jne    10f685 <cursor_y+0x3e64>
  10f615:	70 65                	jo     10f67c <cursor_y+0x3e5b>
  10f617:	72 3a                	jb     10f653 <cursor_y+0x3e32>
  10f619:	28 32                	sub    %dh,(%edx)
  10f61b:	2c 31                	sub    $0x31,%al
  10f61d:	29 2c 36             	sub    %ebp,(%esi,%esi,1)
  10f620:	34 2c                	xor    $0x2c,%al
  10f622:	33 32                	xor    (%edx),%esi
  10f624:	3b 62 6f             	cmp    0x6f(%edx),%esp
  10f627:	6f                   	outsl  %ds:(%esi),(%dx)
  10f628:	74 5f                	je     10f689 <cursor_y+0x3e68>
  10f62a:	64 65 76 69          	fs gs jbe 10f697 <cursor_y+0x3e76>
  10f62e:	63 65 3a             	arpl   %sp,0x3a(%ebp)
  10f631:	28 32                	sub    %dh,(%edx)
  10f633:	2c 31                	sub    $0x31,%al
  10f635:	29 2c 39             	sub    %ebp,(%ecx,%edi,1)
  10f638:	36 2c 33             	ss sub $0x33,%al
  10f63b:	32 3b                	xor    (%ebx),%bh
  10f63d:	63 6d 64             	arpl   %bp,0x64(%ebp)
  10f640:	6c                   	insb   (%dx),%es:(%edi)
  10f641:	69 6e 65 3a 28 32 2c 	imul   $0x2c32283a,0x65(%esi),%ebp
  10f648:	31 29                	xor    %ebp,(%ecx)
  10f64a:	2c 31                	sub    $0x31,%al
  10f64c:	32 38                	xor    (%eax),%bh
  10f64e:	2c 33                	sub    $0x33,%al
  10f650:	32 3b                	xor    (%ebx),%bh
  10f652:	6d                   	insl   (%dx),%es:(%edi)
  10f653:	6f                   	outsl  %ds:(%esi),(%dx)
  10f654:	64 73 5f             	fs jae 10f6b6 <cursor_y+0x3e95>
  10f657:	63 6f 75             	arpl   %bp,0x75(%edi)
  10f65a:	6e                   	outsb  %ds:(%esi),(%dx)
  10f65b:	74 3a                	je     10f697 <cursor_y+0x3e76>
  10f65d:	28 32                	sub    %dh,(%edx)
  10f65f:	2c 31                	sub    $0x31,%al
  10f661:	29 2c 31             	sub    %ebp,(%ecx,%esi,1)
  10f664:	36 30 2c 33          	xor    %ch,%ss:(%ebx,%esi,1)
  10f668:	32 3b                	xor    (%ebx),%bh
  10f66a:	6d                   	insl   (%dx),%es:(%edi)
  10f66b:	6f                   	outsl  %ds:(%esi),(%dx)
  10f66c:	64 73 5f             	fs jae 10f6ce <cursor_y+0x3ead>
  10f66f:	61                   	popa   
  10f670:	64 64 72 3a          	fs fs jb 10f6ae <cursor_y+0x3e8d>
  10f674:	28 32                	sub    %dh,(%edx)
  10f676:	2c 31                	sub    $0x31,%al
  10f678:	29 2c 31             	sub    %ebp,(%ecx,%esi,1)
  10f67b:	39 32                	cmp    %esi,(%edx)
  10f67d:	2c 33                	sub    $0x33,%al
  10f67f:	32 3b                	xor    (%ebx),%bh
  10f681:	6e                   	outsb  %ds:(%esi),(%dx)
  10f682:	75 6d                	jne    10f6f1 <cursor_y+0x3ed0>
  10f684:	3a 28                	cmp    (%eax),%ch
  10f686:	32 2c 31             	xor    (%ecx,%esi,1),%ch
  10f689:	29 2c 32             	sub    %ebp,(%edx,%esi,1)
  10f68c:	32 34 2c             	xor    (%esp,%ebp,1),%dh
  10f68f:	33 32                	xor    (%edx),%esi
  10f691:	3b 73 69             	cmp    0x69(%ebx),%esi
  10f694:	7a 65                	jp     10f6fb <cursor_y+0x3eda>
  10f696:	3a 28                	cmp    (%eax),%ch
  10f698:	32 2c 31             	xor    (%ecx,%esi,1),%ch
  10f69b:	29 2c 32             	sub    %ebp,(%edx,%esi,1)
  10f69e:	35 36 2c 33 32       	xor    $0x32332c36,%eax
  10f6a3:	3b 61 64             	cmp    0x64(%ecx),%esp
  10f6a6:	64 72 3a             	fs jb  10f6e3 <cursor_y+0x3ec2>
  10f6a9:	28 32                	sub    %dh,(%edx)
  10f6ab:	2c 31                	sub    $0x31,%al
  10f6ad:	29 2c 32             	sub    %ebp,(%edx,%esi,1)
  10f6b0:	38 38                	cmp    %bh,(%eax)
  10f6b2:	2c 33                	sub    $0x33,%al
  10f6b4:	32 3b                	xor    (%ebx),%bh
  10f6b6:	73 68                	jae    10f720 <cursor_y+0x3eff>
  10f6b8:	6e                   	outsb  %ds:(%esi),(%dx)
  10f6b9:	64 78 3a             	fs js  10f6f6 <cursor_y+0x3ed5>
  10f6bc:	28 32                	sub    %dh,(%edx)
  10f6be:	2c 31                	sub    $0x31,%al
  10f6c0:	29 2c 33             	sub    %ebp,(%ebx,%esi,1)
  10f6c3:	32 30                	xor    (%eax),%dh
  10f6c5:	2c 33                	sub    $0x33,%al
  10f6c7:	32 3b                	xor    (%ebx),%bh
  10f6c9:	6d                   	insl   (%dx),%es:(%edi)
  10f6ca:	6d                   	insl   (%dx),%es:(%edi)
  10f6cb:	61                   	popa   
  10f6cc:	70 5f                	jo     10f72d <cursor_y+0x3f0c>
  10f6ce:	6c                   	insb   (%dx),%es:(%edi)
  10f6cf:	65 6e                	outsb  %gs:(%esi),(%dx)
  10f6d1:	67 74 68             	addr16 je 10f73c <cursor_y+0x3f1b>
  10f6d4:	3a 28                	cmp    (%eax),%ch
  10f6d6:	32 2c 31             	xor    (%ecx,%esi,1),%ch
  10f6d9:	29 2c 33             	sub    %ebp,(%ebx,%esi,1)
  10f6dc:	35 32 2c 33 32       	xor    $0x32332c32,%eax
  10f6e1:	3b 6d 6d             	cmp    0x6d(%ebp),%ebp
  10f6e4:	61                   	popa   
  10f6e5:	70 5f                	jo     10f746 <cursor_y+0x3f25>
  10f6e7:	61                   	popa   
  10f6e8:	64 64 72 3a          	fs fs jb 10f726 <cursor_y+0x3f05>
  10f6ec:	28 32                	sub    %dh,(%edx)
  10f6ee:	2c 31                	sub    $0x31,%al
  10f6f0:	29 2c 33             	sub    %ebp,(%ebx,%esi,1)
  10f6f3:	38 34 2c             	cmp    %dh,(%esp,%ebp,1)
  10f6f6:	33 32                	xor    (%edx),%esi
  10f6f8:	3b 64 72 69          	cmp    0x69(%edx,%esi,2),%esp
  10f6fc:	76 65                	jbe    10f763 <cursor_y+0x3f42>
  10f6fe:	73 5f                	jae    10f75f <cursor_y+0x3f3e>
  10f700:	6c                   	insb   (%dx),%es:(%edi)
  10f701:	65 6e                	outsb  %gs:(%esi),(%dx)
  10f703:	67 74 68             	addr16 je 10f76e <cursor_y+0x3f4d>
  10f706:	3a 28                	cmp    (%eax),%ch
  10f708:	32 2c 31             	xor    (%ecx,%esi,1),%ch
  10f70b:	29 2c 34             	sub    %ebp,(%esp,%esi,1)
  10f70e:	31 36                	xor    %esi,(%esi)
  10f710:	2c 33                	sub    $0x33,%al
  10f712:	32 3b                	xor    (%ebx),%bh
  10f714:	64 72 69             	fs jb  10f780 <cursor_y+0x3f5f>
  10f717:	76 65                	jbe    10f77e <cursor_y+0x3f5d>
  10f719:	73 5f                	jae    10f77a <cursor_y+0x3f59>
  10f71b:	61                   	popa   
  10f71c:	64 64 72 3a          	fs fs jb 10f75a <cursor_y+0x3f39>
  10f720:	28 32                	sub    %dh,(%edx)
  10f722:	2c 31                	sub    $0x31,%al
  10f724:	29 2c 34             	sub    %ebp,(%esp,%esi,1)
  10f727:	34 38                	xor    $0x38,%al
  10f729:	2c 33                	sub    $0x33,%al
  10f72b:	32 3b                	xor    (%ebx),%bh
  10f72d:	63 6f 6e             	arpl   %bp,0x6e(%edi)
  10f730:	66 69 67 5f 74 61    	imul   $0x6174,0x5f(%edi),%sp
  10f736:	62 6c 65 3a          	bound  %ebp,0x3a(%ebp,%eiz,2)
  10f73a:	28 32                	sub    %dh,(%edx)
  10f73c:	2c 31                	sub    $0x31,%al
  10f73e:	29 2c 34             	sub    %ebp,(%esp,%esi,1)
  10f741:	38 30                	cmp    %dh,(%eax)
  10f743:	2c 33                	sub    $0x33,%al
  10f745:	32 3b                	xor    (%ebx),%bh
  10f747:	62 6f 6f             	bound  %ebp,0x6f(%edi)
  10f74a:	74 5f                	je     10f7ab <cursor_y+0x3f8a>
  10f74c:	6c                   	insb   (%dx),%es:(%edi)
  10f74d:	6f                   	outsl  %ds:(%esi),(%dx)
  10f74e:	61                   	popa   
  10f74f:	64 65 72 5f          	fs gs jb 10f7b2 <cursor_y+0x3f91>
  10f753:	6e                   	outsb  %ds:(%esi),(%dx)
  10f754:	61                   	popa   
  10f755:	6d                   	insl   (%dx),%es:(%edi)
  10f756:	65 3a 28             	cmp    %gs:(%eax),%ch
  10f759:	32 2c 31             	xor    (%ecx,%esi,1),%ch
  10f75c:	29 2c 35 31 32 2c 33 	sub    %ebp,0x332c3231(,%esi,1)
  10f763:	32 3b                	xor    (%ebx),%bh
  10f765:	61                   	popa   
  10f766:	70 6d                	jo     10f7d5 <cursor_y+0x3fb4>
  10f768:	5f                   	pop    %edi
  10f769:	74 61                	je     10f7cc <cursor_y+0x3fab>
  10f76b:	62 6c 65 3a          	bound  %ebp,0x3a(%ebp,%eiz,2)
  10f76f:	28 32                	sub    %dh,(%edx)
  10f771:	2c 31                	sub    $0x31,%al
  10f773:	29 2c 35 34 34 2c 33 	sub    %ebp,0x332c3434(,%esi,1)
  10f77a:	32 3b                	xor    (%ebx),%bh
  10f77c:	76 62                	jbe    10f7e0 <cursor_y+0x3fbf>
  10f77e:	65 5f                	gs pop %edi
  10f780:	63 6f 6e             	arpl   %bp,0x6e(%edi)
  10f783:	74 72                	je     10f7f7 <cursor_y+0x3fd6>
  10f785:	6f                   	outsl  %ds:(%esi),(%dx)
  10f786:	6c                   	insb   (%dx),%es:(%edi)
  10f787:	5f                   	pop    %edi
  10f788:	69 6e 66 6f 3a 28 32 	imul   $0x32283a6f,0x66(%esi),%ebp
  10f78f:	2c 31                	sub    $0x31,%al
  10f791:	29 2c 35 37 36 2c 33 	sub    %ebp,0x332c3637(,%esi,1)
  10f798:	32 3b                	xor    (%ebx),%bh
  10f79a:	76 62                	jbe    10f7fe <cursor_y+0x3fdd>
  10f79c:	65 5f                	gs pop %edi
  10f79e:	6d                   	insl   (%dx),%es:(%edi)
  10f79f:	6f                   	outsl  %ds:(%esi),(%dx)
  10f7a0:	64 65 5f             	fs gs pop %edi
  10f7a3:	69 6e 66 6f 3a 28 32 	imul   $0x32283a6f,0x66(%esi),%ebp
  10f7aa:	2c 31                	sub    $0x31,%al
  10f7ac:	29 2c 36             	sub    %ebp,(%esi,%esi,1)
  10f7af:	30 38                	xor    %bh,(%eax)
  10f7b1:	2c 33                	sub    $0x33,%al
  10f7b3:	32 3b                	xor    (%ebx),%bh
  10f7b5:	76 62                	jbe    10f819 <cursor_y+0x3ff8>
  10f7b7:	65 5f                	gs pop %edi
  10f7b9:	6d                   	insl   (%dx),%es:(%edi)
  10f7ba:	6f                   	outsl  %ds:(%esi),(%dx)
  10f7bb:	64 65 3a 28          	fs cmp %gs:(%eax),%ch
  10f7bf:	32 2c 31             	xor    (%ecx,%esi,1),%ch
  10f7c2:	29 2c 36             	sub    %ebp,(%esi,%esi,1)
  10f7c5:	34 30                	xor    $0x30,%al
  10f7c7:	2c 33                	sub    $0x33,%al
  10f7c9:	32 3b                	xor    (%ebx),%bh
  10f7cb:	76 62                	jbe    10f82f <cursor_y+0x400e>
  10f7cd:	65 5f                	gs pop %edi
  10f7cf:	69 6e 74 65 72 66 61 	imul   $0x61667265,0x74(%esi),%ebp
  10f7d6:	63 65 5f             	arpl   %sp,0x5f(%ebp)
  10f7d9:	73 65                	jae    10f840 <cursor_y+0x401f>
  10f7db:	67 3a 28             	cmp    (%bx,%si),%ch
  10f7de:	32 2c 31             	xor    (%ecx,%esi,1),%ch
  10f7e1:	29 2c 36             	sub    %ebp,(%esi,%esi,1)
  10f7e4:	37                   	aaa    
  10f7e5:	32 2c 33             	xor    (%ebx,%esi,1),%ch
  10f7e8:	32 3b                	xor    (%ebx),%bh
  10f7ea:	76 62                	jbe    10f84e <cursor_y+0x402d>
  10f7ec:	65 5f                	gs pop %edi
  10f7ee:	69 6e 74 65 72 66 61 	imul   $0x61667265,0x74(%esi),%ebp
  10f7f5:	63 65 5f             	arpl   %sp,0x5f(%ebp)
  10f7f8:	6f                   	outsl  %ds:(%esi),(%dx)
  10f7f9:	66 66 3a 28          	data16 data16 cmp (%eax),%ch
  10f7fd:	32 2c 31             	xor    (%ecx,%esi,1),%ch
  10f800:	29 2c 37             	sub    %ebp,(%edi,%esi,1)
  10f803:	30 34 2c             	xor    %dh,(%esp,%ebp,1)
  10f806:	33 32                	xor    (%edx),%esi
  10f808:	3b 76 62             	cmp    0x62(%esi),%esi
  10f80b:	65 5f                	gs pop %edi
  10f80d:	69 6e 74 65 72 66 61 	imul   $0x61667265,0x74(%esi),%ebp
  10f814:	63 65 5f             	arpl   %sp,0x5f(%ebp)
  10f817:	6c                   	insb   (%dx),%es:(%edi)
  10f818:	65 6e                	outsb  %gs:(%esi),(%dx)
  10f81a:	3a 28                	cmp    (%eax),%ch
  10f81c:	32 2c 31             	xor    (%ecx,%esi,1),%ch
  10f81f:	29 2c 37             	sub    %ebp,(%edi,%esi,1)
  10f822:	33 36                	xor    (%esi),%esi
  10f824:	2c 33                	sub    $0x33,%al
  10f826:	32 3b                	xor    (%ebx),%bh
  10f828:	3b 00                	cmp    (%eax),%eax
  10f82a:	6d                   	insl   (%dx),%es:(%edi)
  10f82b:	75 6c                	jne    10f899 <cursor_y+0x4078>
  10f82d:	74 69                	je     10f898 <cursor_y+0x4077>
  10f82f:	62 6f 6f             	bound  %ebp,0x6f(%edi)
  10f832:	74 5f                	je     10f893 <cursor_y+0x4072>
  10f834:	74 3a                	je     10f870 <cursor_y+0x404f>
  10f836:	74 28                	je     10f860 <cursor_y+0x403f>
  10f838:	34 2c                	xor    $0x2c,%al
  10f83a:	32 29                	xor    (%ecx),%ch
  10f83c:	3d 28 34 2c 31       	cmp    $0x312c3428,%eax
  10f841:	29 00                	sub    %eax,(%eax)
  10f843:	6d                   	insl   (%dx),%es:(%edi)
  10f844:	6d                   	insl   (%dx),%es:(%edi)
  10f845:	61                   	popa   
  10f846:	70 5f                	jo     10f8a7 <cursor_y+0x4086>
  10f848:	65 6e                	outsb  %gs:(%esi),(%dx)
  10f84a:	74 72                	je     10f8be <cursor_y+0x409d>
  10f84c:	79 5f                	jns    10f8ad <cursor_y+0x408c>
  10f84e:	74 3a                	je     10f88a <cursor_y+0x4069>
  10f850:	54                   	push   %esp
  10f851:	28 34 2c             	sub    %dh,(%esp,%ebp,1)
  10f854:	33 29                	xor    (%ecx),%ebp
  10f856:	3d 73 32 34 73       	cmp    $0x73343273,%eax
  10f85b:	69 7a 65 3a 28 32 2c 	imul   $0x2c32283a,0x65(%edx),%edi
  10f862:	31 29                	xor    %ebp,(%ecx)
  10f864:	2c 30                	sub    $0x30,%al
  10f866:	2c 33                	sub    $0x33,%al
  10f868:	32 3b                	xor    (%ebx),%bh
  10f86a:	62 61 73             	bound  %esp,0x73(%ecx)
  10f86d:	65 5f                	gs pop %edi
  10f86f:	61                   	popa   
  10f870:	64 64 72 5f          	fs fs jb 10f8d3 <cursor_y+0x40b2>
  10f874:	6c                   	insb   (%dx),%es:(%edi)
  10f875:	6f                   	outsl  %ds:(%esi),(%dx)
  10f876:	77 3a                	ja     10f8b2 <cursor_y+0x4091>
  10f878:	28 32                	sub    %dh,(%edx)
  10f87a:	2c 31                	sub    $0x31,%al
  10f87c:	29 2c 33             	sub    %ebp,(%ebx,%esi,1)
  10f87f:	32 2c 33             	xor    (%ebx,%esi,1),%ch
  10f882:	32 3b                	xor    (%ebx),%bh
  10f884:	62 61 73             	bound  %esp,0x73(%ecx)
  10f887:	65 5f                	gs pop %edi
  10f889:	61                   	popa   
  10f88a:	64 64 72 5f          	fs fs jb 10f8ed <cursor_y+0x40cc>
  10f88e:	68 69 67 68 3a       	push   $0x3a686769
  10f893:	28 32                	sub    %dh,(%edx)
  10f895:	2c 31                	sub    $0x31,%al
  10f897:	29 2c 36             	sub    %ebp,(%esi,%esi,1)
  10f89a:	34 2c                	xor    $0x2c,%al
  10f89c:	33 32                	xor    (%edx),%esi
  10f89e:	3b 6c 65 6e          	cmp    0x6e(%ebp,%eiz,2),%ebp
  10f8a2:	67 74 68             	addr16 je 10f90d <cursor_y+0x40ec>
  10f8a5:	5f                   	pop    %edi
  10f8a6:	6c                   	insb   (%dx),%es:(%edi)
  10f8a7:	6f                   	outsl  %ds:(%esi),(%dx)
  10f8a8:	77 3a                	ja     10f8e4 <cursor_y+0x40c3>
  10f8aa:	28 32                	sub    %dh,(%edx)
  10f8ac:	2c 31                	sub    $0x31,%al
  10f8ae:	29 2c 39             	sub    %ebp,(%ecx,%edi,1)
  10f8b1:	36 2c 33             	ss sub $0x33,%al
  10f8b4:	32 3b                	xor    (%ebx),%bh
  10f8b6:	6c                   	insb   (%dx),%es:(%edi)
  10f8b7:	65 6e                	outsb  %gs:(%esi),(%dx)
  10f8b9:	67 74 68             	addr16 je 10f924 <cursor_y+0x4103>
  10f8bc:	5f                   	pop    %edi
  10f8bd:	68 69 67 68 3a       	push   $0x3a686769
  10f8c2:	28 32                	sub    %dh,(%edx)
  10f8c4:	2c 31                	sub    $0x31,%al
  10f8c6:	29 2c 31             	sub    %ebp,(%ecx,%esi,1)
  10f8c9:	32 38                	xor    (%eax),%bh
  10f8cb:	2c 33                	sub    $0x33,%al
  10f8cd:	32 3b                	xor    (%ebx),%bh
  10f8cf:	74 79                	je     10f94a <cursor_y+0x4129>
  10f8d1:	70 65                	jo     10f938 <cursor_y+0x4117>
  10f8d3:	3a 28                	cmp    (%eax),%ch
  10f8d5:	32 2c 31             	xor    (%ecx,%esi,1),%ch
  10f8d8:	29 2c 31             	sub    %ebp,(%ecx,%esi,1)
  10f8db:	36 30 2c 33          	xor    %ch,%ss:(%ebx,%esi,1)
  10f8df:	32 3b                	xor    (%ebx),%bh
  10f8e1:	3b 00                	cmp    (%eax),%eax
  10f8e3:	6d                   	insl   (%dx),%es:(%edi)
  10f8e4:	6d                   	insl   (%dx),%es:(%edi)
  10f8e5:	61                   	popa   
  10f8e6:	70 5f                	jo     10f947 <cursor_y+0x4126>
  10f8e8:	65 6e                	outsb  %gs:(%esi),(%dx)
  10f8ea:	74 72                	je     10f95e <cursor_y+0x413d>
  10f8ec:	79 5f                	jns    10f94d <cursor_y+0x412c>
  10f8ee:	74 3a                	je     10f92a <cursor_y+0x4109>
  10f8f0:	74 28                	je     10f91a <cursor_y+0x40f9>
  10f8f2:	34 2c                	xor    $0x2c,%al
  10f8f4:	34 29                	xor    $0x29,%al
  10f8f6:	3d 28 34 2c 33       	cmp    $0x332c3428,%eax
  10f8fb:	29 00                	sub    %eax,(%eax)
  10f8fd:	65 6c                	gs insb (%dx),%es:(%edi)
  10f8ff:	66 5f                	pop    %di
  10f901:	73 65                	jae    10f968 <cursor_y+0x4147>
  10f903:	63 74 69 6f          	arpl   %si,0x6f(%ecx,%ebp,2)
  10f907:	6e                   	outsb  %ds:(%esi),(%dx)
  10f908:	5f                   	pop    %edi
  10f909:	68 65 61 64 65       	push   $0x65646165
  10f90e:	72 5f                	jb     10f96f <cursor_y+0x414e>
  10f910:	74 3a                	je     10f94c <cursor_y+0x412b>
  10f912:	54                   	push   %esp
  10f913:	28 33                	sub    %dh,(%ebx)
  10f915:	2c 31                	sub    $0x31,%al
  10f917:	29 3d 73 34 30 6e    	sub    %edi,0x6e303473
  10f91d:	61                   	popa   
  10f91e:	6d                   	insl   (%dx),%es:(%edi)
  10f91f:	65 3a 28             	cmp    %gs:(%eax),%ch
  10f922:	32 2c 31             	xor    (%ecx,%esi,1),%ch
  10f925:	29 2c 30             	sub    %ebp,(%eax,%esi,1)
  10f928:	2c 33                	sub    $0x33,%al
  10f92a:	32 3b                	xor    (%ebx),%bh
  10f92c:	74 79                	je     10f9a7 <cursor_y+0x4186>
  10f92e:	70 65                	jo     10f995 <cursor_y+0x4174>
  10f930:	3a 28                	cmp    (%eax),%ch
  10f932:	32 2c 31             	xor    (%ecx,%esi,1),%ch
  10f935:	29 2c 33             	sub    %ebp,(%ebx,%esi,1)
  10f938:	32 2c 33             	xor    (%ebx,%esi,1),%ch
  10f93b:	32 3b                	xor    (%ebx),%bh
  10f93d:	66 6c                	data16 insb (%dx),%es:(%edi)
  10f93f:	61                   	popa   
  10f940:	67 73 3a             	addr16 jae 10f97d <cursor_y+0x415c>
  10f943:	28 32                	sub    %dh,(%edx)
  10f945:	2c 31                	sub    $0x31,%al
  10f947:	29 2c 36             	sub    %ebp,(%esi,%esi,1)
  10f94a:	34 2c                	xor    $0x2c,%al
  10f94c:	33 32                	xor    (%edx),%esi
  10f94e:	3b 61 64             	cmp    0x64(%ecx),%esp
  10f951:	64 72 3a             	fs jb  10f98e <cursor_y+0x416d>
  10f954:	28 32                	sub    %dh,(%edx)
  10f956:	2c 31                	sub    $0x31,%al
  10f958:	29 2c 39             	sub    %ebp,(%ecx,%edi,1)
  10f95b:	36 2c 33             	ss sub $0x33,%al
  10f95e:	32 3b                	xor    (%ebx),%bh
  10f960:	6f                   	outsl  %ds:(%esi),(%dx)
  10f961:	66 66 73 65          	data16 data16 jae 10f9ca <cursor_y+0x41a9>
  10f965:	74 3a                	je     10f9a1 <cursor_y+0x4180>
  10f967:	28 32                	sub    %dh,(%edx)
  10f969:	2c 31                	sub    $0x31,%al
  10f96b:	29 2c 31             	sub    %ebp,(%ecx,%esi,1)
  10f96e:	32 38                	xor    (%eax),%bh
  10f970:	2c 33                	sub    $0x33,%al
  10f972:	32 3b                	xor    (%ebx),%bh
  10f974:	73 69                	jae    10f9df <cursor_y+0x41be>
  10f976:	7a 65                	jp     10f9dd <cursor_y+0x41bc>
  10f978:	3a 28                	cmp    (%eax),%ch
  10f97a:	32 2c 31             	xor    (%ecx,%esi,1),%ch
  10f97d:	29 2c 31             	sub    %ebp,(%ecx,%esi,1)
  10f980:	36 30 2c 33          	xor    %ch,%ss:(%ebx,%esi,1)
  10f984:	32 3b                	xor    (%ebx),%bh
  10f986:	6c                   	insb   (%dx),%es:(%edi)
  10f987:	69 6e 6b 3a 28 32 2c 	imul   $0x2c32283a,0x6b(%esi),%ebp
  10f98e:	31 29                	xor    %ebp,(%ecx)
  10f990:	2c 31                	sub    $0x31,%al
  10f992:	39 32                	cmp    %esi,(%edx)
  10f994:	2c 33                	sub    $0x33,%al
  10f996:	32 3b                	xor    (%ebx),%bh
  10f998:	69 6e 66 6f 3a 28 32 	imul   $0x32283a6f,0x66(%esi),%ebp
  10f99f:	2c 31                	sub    $0x31,%al
  10f9a1:	29 2c 32             	sub    %ebp,(%edx,%esi,1)
  10f9a4:	32 34 2c             	xor    (%esp,%ebp,1),%dh
  10f9a7:	33 32                	xor    (%edx),%esi
  10f9a9:	3b 61 64             	cmp    0x64(%ecx),%esp
  10f9ac:	64 72 61             	fs jb  10fa10 <cursor_y+0x41ef>
  10f9af:	6c                   	insb   (%dx),%es:(%edi)
  10f9b0:	69 67 6e 3a 28 32 2c 	imul   $0x2c32283a,0x6e(%edi),%esp
  10f9b7:	31 29                	xor    %ebp,(%ecx)
  10f9b9:	2c 32                	sub    $0x32,%al
  10f9bb:	35 36 2c 33 32       	xor    $0x32332c36,%eax
  10f9c0:	3b 65 6e             	cmp    0x6e(%ebp),%esp
  10f9c3:	74 73                	je     10fa38 <cursor_y+0x4217>
  10f9c5:	69 7a 65 3a 28 32 2c 	imul   $0x2c32283a,0x65(%edx),%edi
  10f9cc:	31 29                	xor    %ebp,(%ecx)
  10f9ce:	2c 32                	sub    $0x32,%al
  10f9d0:	38 38                	cmp    %bh,(%eax)
  10f9d2:	2c 33                	sub    $0x33,%al
  10f9d4:	32 3b                	xor    (%ebx),%bh
  10f9d6:	3b 00                	cmp    (%eax),%eax
  10f9d8:	65 6c                	gs insb (%dx),%es:(%edi)
  10f9da:	66 5f                	pop    %di
  10f9dc:	73 65                	jae    10fa43 <cursor_y+0x4222>
  10f9de:	63 74 69 6f          	arpl   %si,0x6f(%ecx,%ebp,2)
  10f9e2:	6e                   	outsb  %ds:(%esi),(%dx)
  10f9e3:	5f                   	pop    %edi
  10f9e4:	68 65 61 64 65       	push   $0x65646165
  10f9e9:	72 5f                	jb     10fa4a <cursor_y+0x4229>
  10f9eb:	74 3a                	je     10fa27 <cursor_y+0x4206>
  10f9ed:	74 28                	je     10fa17 <cursor_y+0x41f6>
  10f9ef:	33 2c 32             	xor    (%edx,%esi,1),%ebp
  10f9f2:	29 3d 28 33 2c 31    	sub    %edi,0x312c3328
  10f9f8:	29 00                	sub    %eax,(%eax)
  10f9fa:	65 6c                	gs insb (%dx),%es:(%edi)
  10f9fc:	66 5f                	pop    %di
  10f9fe:	73 79                	jae    10fa79 <cursor_y+0x4258>
  10fa00:	6d                   	insl   (%dx),%es:(%edi)
  10fa01:	62 6f 6c             	bound  %ebp,0x6c(%edi)
  10fa04:	5f                   	pop    %edi
  10fa05:	74 3a                	je     10fa41 <cursor_y+0x4220>
  10fa07:	54                   	push   %esp
  10fa08:	28 33                	sub    %dh,(%ebx)
  10fa0a:	2c 33                	sub    $0x33,%al
  10fa0c:	29 3d 73 31 36 6e    	sub    %edi,0x6e363173
  10fa12:	61                   	popa   
  10fa13:	6d                   	insl   (%dx),%es:(%edi)
  10fa14:	65 3a 28             	cmp    %gs:(%eax),%ch
  10fa17:	32 2c 31             	xor    (%ecx,%esi,1),%ch
  10fa1a:	29 2c 30             	sub    %ebp,(%eax,%esi,1)
  10fa1d:	2c 33                	sub    $0x33,%al
  10fa1f:	32 3b                	xor    (%ebx),%bh
  10fa21:	76 61                	jbe    10fa84 <cursor_y+0x4263>
  10fa23:	6c                   	insb   (%dx),%es:(%edi)
  10fa24:	75 65                	jne    10fa8b <cursor_y+0x426a>
  10fa26:	3a 28                	cmp    (%eax),%ch
  10fa28:	32 2c 31             	xor    (%ecx,%esi,1),%ch
  10fa2b:	29 2c 33             	sub    %ebp,(%ebx,%esi,1)
  10fa2e:	32 2c 33             	xor    (%ebx,%esi,1),%ch
  10fa31:	32 3b                	xor    (%ebx),%bh
  10fa33:	73 69                	jae    10fa9e <cursor_y+0x427d>
  10fa35:	7a 65                	jp     10fa9c <cursor_y+0x427b>
  10fa37:	3a 28                	cmp    (%eax),%ch
  10fa39:	32 2c 31             	xor    (%ecx,%esi,1),%ch
  10fa3c:	29 2c 36             	sub    %ebp,(%esi,%esi,1)
  10fa3f:	34 2c                	xor    $0x2c,%al
  10fa41:	33 32                	xor    (%edx),%esi
  10fa43:	3b 69 6e             	cmp    0x6e(%ecx),%ebp
  10fa46:	66 6f                	outsw  %ds:(%esi),(%dx)
  10fa48:	3a 28                	cmp    (%eax),%ch
  10fa4a:	32 2c 35 29 2c 39 36 	xor    0x36392c29(,%esi,1),%ch
  10fa51:	2c 38                	sub    $0x38,%al
  10fa53:	3b 6f 74             	cmp    0x74(%edi),%ebp
  10fa56:	68 65 72 3a 28       	push   $0x283a7265
  10fa5b:	32 2c 35 29 2c 31 30 	xor    0x30312c29(,%esi,1),%ch
  10fa62:	34 2c                	xor    $0x2c,%al
  10fa64:	38 3b                	cmp    %bh,(%ebx)
  10fa66:	73 68                	jae    10fad0 <cursor_y+0x42af>
  10fa68:	6e                   	outsb  %ds:(%esi),(%dx)
  10fa69:	64 78 3a             	fs js  10faa6 <cursor_y+0x4285>
  10fa6c:	28 32                	sub    %dh,(%edx)
  10fa6e:	2c 33                	sub    $0x33,%al
  10fa70:	29 2c 31             	sub    %ebp,(%ecx,%esi,1)
  10fa73:	31 32                	xor    %esi,(%edx)
  10fa75:	2c 31                	sub    $0x31,%al
  10fa77:	36 3b 3b             	cmp    %ss:(%ebx),%edi
  10fa7a:	00 65 6c             	add    %ah,0x6c(%ebp)
  10fa7d:	66 5f                	pop    %di
  10fa7f:	73 79                	jae    10fafa <cursor_y+0x42d9>
  10fa81:	6d                   	insl   (%dx),%es:(%edi)
  10fa82:	62 6f 6c             	bound  %ebp,0x6c(%edi)
  10fa85:	5f                   	pop    %edi
  10fa86:	74 3a                	je     10fac2 <cursor_y+0x42a1>
  10fa88:	74 28                	je     10fab2 <cursor_y+0x4291>
  10fa8a:	33 2c 34             	xor    (%esp,%esi,1),%ebp
  10fa8d:	29 3d 28 33 2c 33    	sub    %edi,0x332c3328
  10fa93:	29 00                	sub    %eax,(%eax)
  10fa95:	65 6c                	gs insb (%dx),%es:(%edi)
  10fa97:	66 5f                	pop    %di
  10fa99:	74 3a                	je     10fad5 <cursor_y+0x42b4>
  10fa9b:	54                   	push   %esp
  10fa9c:	28 33                	sub    %dh,(%ebx)
  10fa9e:	2c 35                	sub    $0x35,%al
  10faa0:	29 3d 73 31 36 73    	sub    %edi,0x73363173
  10faa6:	79 6d                	jns    10fb15 <cursor_y+0x42f4>
  10faa8:	74 61                	je     10fb0b <cursor_y+0x42ea>
  10faaa:	62 3a                	bound  %edi,(%edx)
  10faac:	28 33                	sub    %dh,(%ebx)
  10faae:	2c 36                	sub    $0x36,%al
  10fab0:	29 3d 2a 28 33 2c    	sub    %edi,0x2c33282a
  10fab6:	34 29                	xor    $0x29,%al
  10fab8:	2c 30                	sub    $0x30,%al
  10faba:	2c 33                	sub    $0x33,%al
  10fabc:	32 3b                	xor    (%ebx),%bh
  10fabe:	73 79                	jae    10fb39 <cursor_y+0x4318>
  10fac0:	6d                   	insl   (%dx),%es:(%edi)
  10fac1:	74 61                	je     10fb24 <cursor_y+0x4303>
  10fac3:	62 73 7a             	bound  %esi,0x7a(%ebx)
  10fac6:	3a 28                	cmp    (%eax),%ch
  10fac8:	32 2c 31             	xor    (%ecx,%esi,1),%ch
  10facb:	29 2c 33             	sub    %ebp,(%ebx,%esi,1)
  10face:	32 2c 33             	xor    (%ebx,%esi,1),%ch
  10fad1:	32 3b                	xor    (%ebx),%bh
  10fad3:	73 74                	jae    10fb49 <cursor_y+0x4328>
  10fad5:	72 74                	jb     10fb4b <cursor_y+0x432a>
  10fad7:	61                   	popa   
  10fad8:	62 3a                	bound  %edi,(%edx)
  10fada:	28 33                	sub    %dh,(%ebx)
  10fadc:	2c 37                	sub    $0x37,%al
  10fade:	29 3d 2a 28 33 2c    	sub    %edi,0x2c33282a
  10fae4:	38 29                	cmp    %ch,(%ecx)
  10fae6:	3d 6b 28 30 2c       	cmp    $0x2c30286b,%eax
  10faeb:	32 29                	xor    (%ecx),%ch
  10faed:	2c 36                	sub    $0x36,%al
  10faef:	34 2c                	xor    $0x2c,%al
  10faf1:	33 32                	xor    (%edx),%esi
  10faf3:	3b 73 74             	cmp    0x74(%ebx),%esi
  10faf6:	72 74                	jb     10fb6c <cursor_y+0x434b>
  10faf8:	61                   	popa   
  10faf9:	62 73 7a             	bound  %esi,0x7a(%ebx)
  10fafc:	3a 28                	cmp    (%eax),%ch
  10fafe:	32 2c 31             	xor    (%ecx,%esi,1),%ch
  10fb01:	29 2c 39             	sub    %ebp,(%ecx,%edi,1)
  10fb04:	36 2c 33             	ss sub $0x33,%al
  10fb07:	32 3b                	xor    (%ebx),%bh
  10fb09:	3b 00                	cmp    (%eax),%eax
  10fb0b:	65 6c                	gs insb (%dx),%es:(%edi)
  10fb0d:	66 5f                	pop    %di
  10fb0f:	74 3a                	je     10fb4b <cursor_y+0x432a>
  10fb11:	74 28                	je     10fb3b <cursor_y+0x431a>
  10fb13:	33 2c 39             	xor    (%ecx,%edi,1),%ebp
  10fb16:	29 3d 28 33 2c 35    	sub    %edi,0x352c3328
  10fb1c:	29 00                	sub    %eax,(%eax)
  10fb1e:	73 74                	jae    10fb94 <cursor_y+0x4373>
  10fb20:	72 63                	jb     10fb85 <cursor_y+0x4364>
  10fb22:	6d                   	insl   (%dx),%es:(%edi)
  10fb23:	70 3a                	jo     10fb5f <cursor_y+0x433e>
  10fb25:	66 28 30             	data16 sub %dh,(%eax)
  10fb28:	2c 31                	sub    $0x31,%al
  10fb2a:	29 00                	sub    %eax,(%eax)
  10fb2c:	73 74                	jae    10fba2 <cursor_y+0x4381>
  10fb2e:	72 31                	jb     10fb61 <cursor_y+0x4340>
  10fb30:	3a 70 28             	cmp    0x28(%eax),%dh
  10fb33:	33 2c 37             	xor    (%edi,%esi,1),%ebp
  10fb36:	29 00                	sub    %eax,(%eax)
  10fb38:	73 74                	jae    10fbae <cursor_y+0x438d>
  10fb3a:	72 32                	jb     10fb6e <cursor_y+0x434d>
  10fb3c:	3a 70 28             	cmp    0x28(%eax),%dh
  10fb3f:	33 2c 37             	xor    (%edi,%esi,1),%ebp
  10fb42:	29 00                	sub    %eax,(%eax)
  10fb44:	69 6e 63 6c 75 64 65 	imul   $0x6564756c,0x63(%esi),%ebp
  10fb4b:	2f                   	das    
  10fb4c:	73 74                	jae    10fbc2 <cursor_y+0x43a1>
  10fb4e:	72 69                	jb     10fbb9 <cursor_y+0x4398>
  10fb50:	6e                   	outsb  %ds:(%esi),(%dx)
  10fb51:	67 2e 68 00 65 6c 66 	addr16 cs push $0x666c6500
  10fb58:	5f                   	pop    %edi
  10fb59:	66 72 6f             	data16 jb 10fbcb <cursor_y+0x43aa>
  10fb5c:	6d                   	insl   (%dx),%es:(%edi)
  10fb5d:	5f                   	pop    %edi
  10fb5e:	6d                   	insl   (%dx),%es:(%edi)
  10fb5f:	75 6c                	jne    10fbcd <cursor_y+0x43ac>
  10fb61:	74 69                	je     10fbcc <cursor_y+0x43ab>
  10fb63:	62 6f 6f             	bound  %ebp,0x6f(%edi)
  10fb66:	74 3a                	je     10fba2 <cursor_y+0x4381>
  10fb68:	46                   	inc    %esi
  10fb69:	28 33                	sub    %dh,(%ebx)
  10fb6b:	2c 39                	sub    $0x39,%al
  10fb6d:	29 00                	sub    %eax,(%eax)
  10fb6f:	6d                   	insl   (%dx),%es:(%edi)
  10fb70:	62 3a                	bound  %edi,(%edx)
  10fb72:	70 28                	jo     10fb9c <cursor_y+0x437b>
  10fb74:	30 2c 32             	xor    %ch,(%edx,%esi,1)
  10fb77:	36 29 3d 2a 28 34 2c 	sub    %edi,%ss:0x2c34282a
  10fb7e:	32 29                	xor    (%ecx),%ch
  10fb80:	00 69 3a             	add    %ch,0x3a(%ecx)
  10fb83:	28 30                	sub    %dh,(%eax)
  10fb85:	2c 31                	sub    $0x31,%al
  10fb87:	29 00                	sub    %eax,(%eax)
  10fb89:	65 6c                	gs insb (%dx),%es:(%edi)
  10fb8b:	66 3a 28             	data16 cmp (%eax),%ch
  10fb8e:	33 2c 39             	xor    (%ecx,%edi,1),%ebp
  10fb91:	29 00                	sub    %eax,(%eax)
  10fb93:	73 68                	jae    10fbfd <cursor_y+0x43dc>
  10fb95:	3a 28                	cmp    (%eax),%ch
  10fb97:	30 2c 32             	xor    %ch,(%edx,%esi,1)
  10fb9a:	37                   	aaa    
  10fb9b:	29 3d 2a 28 33 2c    	sub    %edi,0x2c33282a
  10fba1:	32 29                	xor    (%ecx),%ch
  10fba3:	00 73 68             	add    %dh,0x68(%ebx)
  10fba6:	73 74                	jae    10fc1c <cursor_y+0x43fb>
  10fba8:	72 74                	jb     10fc1e <cursor_y+0x43fd>
  10fbaa:	61                   	popa   
  10fbab:	62 3a                	bound  %edi,(%edx)
  10fbad:	28 32                	sub    %dh,(%edx)
  10fbaf:	2c 31                	sub    $0x31,%al
  10fbb1:	29 00                	sub    %eax,(%eax)
  10fbb3:	6e                   	outsb  %ds:(%esi),(%dx)
  10fbb4:	61                   	popa   
  10fbb5:	6d                   	insl   (%dx),%es:(%edi)
  10fbb6:	65 3a 28             	cmp    %gs:(%eax),%ch
  10fbb9:	33 2c 37             	xor    (%edi,%esi,1),%ebp
  10fbbc:	29 00                	sub    %eax,(%eax)
  10fbbe:	65 6c                	gs insb (%dx),%es:(%edi)
  10fbc0:	66 5f                	pop    %di
  10fbc2:	6c                   	insb   (%dx),%es:(%edi)
  10fbc3:	6f                   	outsl  %ds:(%esi),(%dx)
  10fbc4:	6f                   	outsl  %ds:(%esi),(%dx)
  10fbc5:	6b 75 70 5f          	imul   $0x5f,0x70(%ebp),%esi
  10fbc9:	73 79                	jae    10fc44 <cursor_y+0x4423>
  10fbcb:	6d                   	insl   (%dx),%es:(%edi)
  10fbcc:	62 6f 6c             	bound  %ebp,0x6c(%edi)
  10fbcf:	3a 46 28             	cmp    0x28(%esi),%al
  10fbd2:	33 2c 37             	xor    (%edi,%esi,1),%ebp
  10fbd5:	29 00                	sub    %eax,(%eax)
  10fbd7:	61                   	popa   
  10fbd8:	64 64 72 3a          	fs fs jb 10fc16 <cursor_y+0x43f5>
  10fbdc:	70 28                	jo     10fc06 <cursor_y+0x43e5>
  10fbde:	32 2c 31             	xor    (%ecx,%esi,1),%ch
  10fbe1:	29 00                	sub    %eax,(%eax)
  10fbe3:	65 6c                	gs insb (%dx),%es:(%edi)
  10fbe5:	66 3a 70 28          	data16 cmp 0x28(%eax),%dh
  10fbe9:	30 2c 32             	xor    %ch,(%edx,%esi,1)
  10fbec:	38 29                	cmp    %ch,(%ecx)
  10fbee:	3d 2a 28 33 2c       	cmp    $0x2c33282a,%eax
  10fbf3:	39 29                	cmp    %ebp,(%ecx)
  10fbf5:	00 6b 65             	add    %ch,0x65(%ebx)
  10fbf8:	72 6e                	jb     10fc68 <cursor_y+0x4447>
  10fbfa:	65 6c                	gs insb (%dx),%es:(%edi)
  10fbfc:	2f                   	das    
  10fbfd:	64 65 62 75 67       	fs bound %esi,%gs:0x67(%ebp)
  10fc02:	2f                   	das    
  10fc03:	64 65 62 75 67       	fs bound %esi,%gs:0x67(%ebp)
  10fc08:	2e 63 00             	arpl   %ax,%cs:(%eax)
  10fc0b:	69 6e 63 6c 75 64 65 	imul   $0x6564756c,0x63(%esi),%ebp
  10fc12:	2f                   	das    
  10fc13:	64 65 62 75 67       	fs bound %esi,%gs:0x67(%ebp)
  10fc18:	2e 68 00 69 6e 63    	cs push $0x636e6900
  10fc1e:	6c                   	insb   (%dx),%es:(%edi)
  10fc1f:	75 64                	jne    10fc85 <cursor_y+0x4464>
  10fc21:	65 2f                	gs das 
  10fc23:	63 6f 6e             	arpl   %bp,0x6e(%edi)
  10fc26:	73 6f                	jae    10fc97 <cursor_y+0x4476>
  10fc28:	6c                   	insb   (%dx),%es:(%edi)
  10fc29:	65 2e 68 00 72 65 61 	gs cs push $0x61657200
  10fc30:	6c                   	insb   (%dx),%es:(%edi)
  10fc31:	5f                   	pop    %edi
  10fc32:	63 6f 6c             	arpl   %bp,0x6c(%edi)
  10fc35:	6f                   	outsl  %ds:(%esi),(%dx)
  10fc36:	72 3a                	jb     10fc72 <cursor_y+0x4451>
  10fc38:	54                   	push   %esp
  10fc39:	28 32                	sub    %dh,(%edx)
  10fc3b:	2c 31                	sub    $0x31,%al
  10fc3d:	29 3d 65 72 63 5f    	sub    %edi,0x5f637265
  10fc43:	62 6c 61 63          	bound  %ebp,0x63(%ecx,%eiz,2)
  10fc47:	6b 3a 30             	imul   $0x30,(%edx),%edi
  10fc4a:	2c 72                	sub    $0x72,%al
  10fc4c:	63 5f 62             	arpl   %bx,0x62(%edi)
  10fc4f:	6c                   	insb   (%dx),%es:(%edi)
  10fc50:	75 65                	jne    10fcb7 <cursor_y+0x4496>
  10fc52:	3a 31                	cmp    (%ecx),%dh
  10fc54:	2c 72                	sub    $0x72,%al
  10fc56:	63 5f 67             	arpl   %bx,0x67(%edi)
  10fc59:	72 65                	jb     10fcc0 <cursor_y+0x449f>
  10fc5b:	65 6e                	outsb  %gs:(%esi),(%dx)
  10fc5d:	3a 32                	cmp    (%edx),%dh
  10fc5f:	2c 72                	sub    $0x72,%al
  10fc61:	63 5f 63             	arpl   %bx,0x63(%edi)
  10fc64:	79 61                	jns    10fcc7 <cursor_y+0x44a6>
  10fc66:	6e                   	outsb  %ds:(%esi),(%dx)
  10fc67:	3a 33                	cmp    (%ebx),%dh
  10fc69:	2c 72                	sub    $0x72,%al
  10fc6b:	63 5f 72             	arpl   %bx,0x72(%edi)
  10fc6e:	65 64 3a 34 2c       	gs cmp %fs:(%esp,%ebp,1),%dh
  10fc73:	72 63                	jb     10fcd8 <cursor_y+0x44b7>
  10fc75:	5f                   	pop    %edi
  10fc76:	6d                   	insl   (%dx),%es:(%edi)
  10fc77:	61                   	popa   
  10fc78:	67 65 6e             	outsb  %gs:(%si),(%dx)
  10fc7b:	74 61                	je     10fcde <cursor_y+0x44bd>
  10fc7d:	3a 35 2c 72 63 5f    	cmp    0x5f63722c,%dh
  10fc83:	62 72 6f             	bound  %esi,0x6f(%edx)
  10fc86:	77 6e                	ja     10fcf6 <cursor_y+0x44d5>
  10fc88:	3a 36                	cmp    (%esi),%dh
  10fc8a:	2c 72                	sub    $0x72,%al
  10fc8c:	63 5f 6c             	arpl   %bx,0x6c(%edi)
  10fc8f:	69 67 68 74 5f 67 72 	imul   $0x72675f74,0x68(%edi),%esp
  10fc96:	65 79 3a             	gs jns 10fcd3 <cursor_y+0x44b2>
  10fc99:	37                   	aaa    
  10fc9a:	2c 72                	sub    $0x72,%al
  10fc9c:	63 5f 64             	arpl   %bx,0x64(%edi)
  10fc9f:	61                   	popa   
  10fca0:	72 6b                	jb     10fd0d <cursor_y+0x44ec>
  10fca2:	5f                   	pop    %edi
  10fca3:	67 72 65             	addr16 jb 10fd0b <cursor_y+0x44ea>
  10fca6:	79 3a                	jns    10fce2 <cursor_y+0x44c1>
  10fca8:	38 2c 72             	cmp    %ch,(%edx,%esi,2)
  10fcab:	63 5f 6c             	arpl   %bx,0x6c(%edi)
  10fcae:	69 67 68 74 5f 62 6c 	imul   $0x6c625f74,0x68(%edi),%esp
  10fcb5:	75 65                	jne    10fd1c <cursor_y+0x44fb>
  10fcb7:	3a 39                	cmp    (%ecx),%bh
  10fcb9:	2c 72                	sub    $0x72,%al
  10fcbb:	63 5f 6c             	arpl   %bx,0x6c(%edi)
  10fcbe:	69 67 68 74 5f 67 72 	imul   $0x72675f74,0x68(%edi),%esp
  10fcc5:	65 65 6e             	gs outsb %gs:(%esi),(%dx)
  10fcc8:	3a 31                	cmp    (%ecx),%dh
  10fcca:	30 2c 72             	xor    %ch,(%edx,%esi,2)
  10fccd:	63 5f 6c             	arpl   %bx,0x6c(%edi)
  10fcd0:	69 67 68 74 5f 63 79 	imul   $0x79635f74,0x68(%edi),%esp
  10fcd7:	61                   	popa   
  10fcd8:	6e                   	outsb  %ds:(%esi),(%dx)
  10fcd9:	3a 31                	cmp    (%ecx),%dh
  10fcdb:	31 2c 72             	xor    %ebp,(%edx,%esi,2)
  10fcde:	63 5f 6c             	arpl   %bx,0x6c(%edi)
  10fce1:	69 67 68 74 5f 72 65 	imul   $0x65725f74,0x68(%edi),%esp
  10fce8:	64 3a 31             	cmp    %fs:(%ecx),%dh
  10fceb:	32 2c 72             	xor    (%edx,%esi,2),%ch
  10fcee:	63 5f 6c             	arpl   %bx,0x6c(%edi)
  10fcf1:	69 67 68 74 5f 6d 61 	imul   $0x616d5f74,0x68(%edi),%esp
  10fcf8:	67 65 6e             	outsb  %gs:(%si),(%dx)
  10fcfb:	74 61                	je     10fd5e <cursor_y+0x453d>
  10fcfd:	3a 31                	cmp    (%ecx),%dh
  10fcff:	33 2c 72             	xor    (%edx,%esi,2),%ebp
  10fd02:	63 5f 6c             	arpl   %bx,0x6c(%edi)
  10fd05:	69 67 68 74 5f 62 72 	imul   $0x72625f74,0x68(%edi),%esp
  10fd0c:	6f                   	outsl  %ds:(%esi),(%dx)
  10fd0d:	77 6e                	ja     10fd7d <cursor_y+0x455c>
  10fd0f:	3a 31                	cmp    (%ecx),%dh
  10fd11:	34 2c                	xor    $0x2c,%al
  10fd13:	72 63                	jb     10fd78 <cursor_y+0x4557>
  10fd15:	5f                   	pop    %edi
  10fd16:	77 68                	ja     10fd80 <cursor_y+0x455f>
  10fd18:	69 74 65 3a 31 35 2c 	imul   $0x3b2c3531,0x3a(%ebp,%eiz,2),%esi
  10fd1f:	3b 
  10fd20:	00 72 65             	add    %dh,0x65(%edx)
  10fd23:	61                   	popa   
  10fd24:	6c                   	insb   (%dx),%es:(%edi)
  10fd25:	5f                   	pop    %edi
  10fd26:	63 6f 6c             	arpl   %bp,0x6c(%edi)
  10fd29:	6f                   	outsl  %ds:(%esi),(%dx)
  10fd2a:	72 5f                	jb     10fd8b <cursor_y+0x456a>
  10fd2c:	74 3a                	je     10fd68 <cursor_y+0x4547>
  10fd2e:	74 28                	je     10fd58 <cursor_y+0x4537>
  10fd30:	32 2c 32             	xor    (%edx,%esi,1),%ch
  10fd33:	29 3d 28 32 2c 31    	sub    %edi,0x312c3228
  10fd39:	29 00                	sub    %eax,(%eax)
  10fd3b:	69 6e 63 6c 75 64 65 	imul   $0x6564756c,0x63(%esi),%ebp
  10fd42:	2f                   	das    
  10fd43:	76 61                	jbe    10fda6 <cursor_y+0x4585>
  10fd45:	72 67                	jb     10fdae <cursor_y+0x458d>
  10fd47:	73 2e                	jae    10fd77 <cursor_y+0x4556>
  10fd49:	68 00 76 61 5f       	push   $0x5f617600
  10fd4e:	6c                   	insb   (%dx),%es:(%edi)
  10fd4f:	69 73 74 3a 74 28 34 	imul   $0x3428743a,0x74(%ebx),%esi
  10fd56:	2c 31                	sub    $0x31,%al
  10fd58:	29 3d 28 34 2c 32    	sub    %edi,0x322c3428
  10fd5e:	29 3d 2a 28 30 2c    	sub    %edi,0x2c30282a
  10fd64:	32 29                	xor    (%ecx),%ch
  10fd66:	00 6b 65             	add    %ch,0x65(%ebx)
  10fd69:	72 6e                	jb     10fdd9 <cursor_y+0x45b8>
  10fd6b:	65 6c                	gs insb (%dx),%es:(%edi)
  10fd6d:	5f                   	pop    %edi
  10fd6e:	65 6c                	gs insb (%dx),%es:(%edi)
  10fd70:	66 3a 53 28          	data16 cmp 0x28(%ebx),%dl
  10fd74:	35 2c 39 29 00       	xor    $0x29392c,%eax
  10fd79:	69 6e 69 74 5f 64 65 	imul   $0x65645f74,0x69(%esi),%ebp
  10fd80:	62 75 67             	bound  %esi,0x67(%ebp)
  10fd83:	3a 46 28             	cmp    0x28(%esi),%al
  10fd86:	30 2c 32             	xor    %ch,(%edx,%esi,1)
  10fd89:	35 29 00 70 72       	xor    $0x72700029,%eax
  10fd8e:	69 6e 74 5f 63 75 72 	imul   $0x7275635f,0x74(%esi),%ebp
  10fd95:	5f                   	pop    %edi
  10fd96:	73 74                	jae    10fe0c <cursor_y+0x45eb>
  10fd98:	61                   	popa   
  10fd99:	74 75                	je     10fe10 <cursor_y+0x45ef>
  10fd9b:	73 3a                	jae    10fdd7 <cursor_y+0x45b6>
  10fd9d:	46                   	inc    %esi
  10fd9e:	28 30                	sub    %dh,(%eax)
  10fda0:	2c 32                	sub    $0x32,%al
  10fda2:	35 29 00 72 6f       	xor    $0x6f720029,%eax
  10fda7:	75 6e                	jne    10fe17 <cursor_y+0x45f6>
  10fda9:	64 3a 56 28          	cmp    %fs:0x28(%esi),%dl
  10fdad:	30 2c 31             	xor    %ch,(%ecx,%esi,1)
  10fdb0:	29 00                	sub    %eax,(%eax)
  10fdb2:	72 65                	jb     10fe19 <cursor_y+0x45f8>
  10fdb4:	67 31 3a             	xor    %edi,(%bp,%si)
  10fdb7:	28 33                	sub    %dh,(%ebx)
  10fdb9:	2c 33                	sub    $0x33,%al
  10fdbb:	29 00                	sub    %eax,(%eax)
  10fdbd:	72 65                	jb     10fe24 <cursor_y+0x4603>
  10fdbf:	67 32 3a             	xor    (%bp,%si),%bh
  10fdc2:	28 33                	sub    %dh,(%ebx)
  10fdc4:	2c 33                	sub    $0x33,%al
  10fdc6:	29 00                	sub    %eax,(%eax)
  10fdc8:	72 65                	jb     10fe2f <cursor_y+0x460e>
  10fdca:	67 33 3a             	xor    (%bp,%si),%edi
  10fdcd:	28 33                	sub    %dh,(%ebx)
  10fdcf:	2c 33                	sub    $0x33,%al
  10fdd1:	29 00                	sub    %eax,(%eax)
  10fdd3:	72 65                	jb     10fe3a <cursor_y+0x4619>
  10fdd5:	67 34 3a             	addr16 xor $0x3a,%al
  10fdd8:	28 33                	sub    %dh,(%ebx)
  10fdda:	2c 33                	sub    $0x33,%al
  10fddc:	29 00                	sub    %eax,(%eax)
  10fdde:	70 61                	jo     10fe41 <cursor_y+0x4620>
  10fde0:	6e                   	outsb  %ds:(%esi),(%dx)
  10fde1:	69 63 3a 46 28 30 2c 	imul   $0x2c302846,0x3a(%ebx),%esp
  10fde8:	32 35 29 00 6d 73    	xor    0x736d0029,%dh
  10fdee:	67 3a 70 28          	cmp    0x28(%bx,%si),%dh
  10fdf2:	35 2c 37 29 00       	xor    $0x29372c,%eax
  10fdf7:	70 72                	jo     10fe6b <cursor_y+0x464a>
  10fdf9:	69 6e 74 5f 73 74 61 	imul   $0x6174735f,0x74(%esi),%ebp
  10fe00:	63 6b 5f             	arpl   %bp,0x5f(%ebx)
  10fe03:	74 72                	je     10fe77 <cursor_y+0x4656>
  10fe05:	61                   	popa   
  10fe06:	63 65 3a             	arpl   %sp,0x3a(%ebp)
  10fe09:	66 28 30             	data16 sub %dh,(%eax)
  10fe0c:	2c 32                	sub    $0x32,%al
  10fe0e:	35 29 00 65 62       	xor    $0x62650029,%eax
  10fe13:	70 3a                	jo     10fe4f <cursor_y+0x462e>
  10fe15:	28 30                	sub    %dh,(%eax)
  10fe17:	2c 32                	sub    $0x32,%al
  10fe19:	36 29 3d 2a 28 33 2c 	sub    %edi,%ss:0x2c33282a
  10fe20:	31 29                	xor    %ebp,(%ecx)
  10fe22:	00 65 69             	add    %ah,0x69(%ebp)
  10fe25:	70 3a                	jo     10fe61 <cursor_y+0x4640>
  10fe27:	28 30                	sub    %dh,(%eax)
  10fe29:	2c 32                	sub    $0x32,%al
  10fe2b:	36 29 00             	sub    %eax,%ss:(%eax)
  10fe2e:	6b 65 72 6e          	imul   $0x6e,0x72(%ebp),%esp
  10fe32:	65 6c                	gs insb (%dx),%es:(%edi)
  10fe34:	2f                   	das    
  10fe35:	64 65 62 75 67       	fs bound %esi,%gs:0x67(%ebp)
  10fe3a:	2f                   	das    
  10fe3b:	70 72                	jo     10feaf <cursor_y+0x468e>
  10fe3d:	69 6e 74 6b 2e 63 00 	imul   $0x632e6b,0x74(%esi),%ebp
  10fe44:	73 74                	jae    10feba <cursor_y+0x4699>
  10fe46:	72 6c                	jb     10feb4 <cursor_y+0x4693>
  10fe48:	65 6e                	outsb  %gs:(%esi),(%dx)
  10fe4a:	3a 66 28             	cmp    0x28(%esi),%ah
  10fe4d:	30 2c 31             	xor    %ch,(%ecx,%esi,1)
  10fe50:	29 00                	sub    %eax,(%eax)
  10fe52:	73 72                	jae    10fec6 <cursor_y+0x46a5>
  10fe54:	63 3a                	arpl   %di,(%edx)
  10fe56:	70 28                	jo     10fe80 <cursor_y+0x465f>
  10fe58:	35 2c 37 29 00       	xor    $0x29372c,%eax
  10fe5d:	65 6f                	outsl  %gs:(%esi),(%dx)
  10fe5f:	73 3a                	jae    10fe9b <cursor_y+0x467a>
  10fe61:	28 35 2c 37 29 00    	sub    %dh,0x29372c
  10fe67:	70 72                	jo     10fedb <cursor_y+0x46ba>
  10fe69:	69 6e 74 6b 3a 46 28 	imul   $0x28463a6b,0x74(%esi),%ebp
  10fe70:	30 2c 32             	xor    %ch,(%edx,%esi,1)
  10fe73:	35 29 00 66 6f       	xor    $0x6f660029,%eax
  10fe78:	72 6d                	jb     10fee7 <cursor_y+0x46c6>
  10fe7a:	61                   	popa   
  10fe7b:	74 3a                	je     10feb7 <cursor_y+0x4696>
  10fe7d:	70 28                	jo     10fea7 <cursor_y+0x4686>
  10fe7f:	35 2c 37 29 00       	xor    $0x29372c,%eax
  10fe84:	62 75 66             	bound  %esi,0x66(%ebp)
  10fe87:	66 3a 56 28          	data16 cmp 0x28(%esi),%dl
  10fe8b:	30 2c 32             	xor    %ch,(%edx,%esi,1)
  10fe8e:	36 29 3d 61 72 28 30 	sub    %edi,%ss:0x30287261
  10fe95:	2c 32                	sub    $0x32,%al
  10fe97:	37                   	aaa    
  10fe98:	29 3d 72 28 30 2c    	sub    %edi,0x2c302872
  10fe9e:	32 37                	xor    (%edi),%dh
  10fea0:	29 3b                	sub    %edi,(%ebx)
  10fea2:	30 3b                	xor    %bh,(%ebx)
  10fea4:	30 33                	xor    %dh,(%ebx)
  10fea6:	37                   	aaa    
  10fea7:	37                   	aaa    
  10fea8:	37                   	aaa    
  10fea9:	37                   	aaa    
  10feaa:	37                   	aaa    
  10feab:	37                   	aaa    
  10feac:	37                   	aaa    
  10fead:	37                   	aaa    
  10feae:	37                   	aaa    
  10feaf:	37                   	aaa    
  10feb0:	3b 3b                	cmp    (%ebx),%edi
  10feb2:	30 3b                	xor    %bh,(%ebx)
  10feb4:	31 30                	xor    %esi,(%eax)
  10feb6:	32 33                	xor    (%ebx),%dh
  10feb8:	3b 28                	cmp    (%eax),%ebp
  10feba:	30 2c 32             	xor    %ch,(%edx,%esi,1)
  10febd:	29 00                	sub    %eax,(%eax)
  10febf:	61                   	popa   
  10fec0:	72 67                	jb     10ff29 <cursor_y+0x4708>
  10fec2:	73 3a                	jae    10fefe <cursor_y+0x46dd>
  10fec4:	28 33                	sub    %dh,(%ebx)
  10fec6:	2c 31                	sub    $0x31,%al
  10fec8:	29 00                	sub    %eax,(%eax)
  10feca:	70 72                	jo     10ff3e <cursor_y+0x471d>
  10fecc:	69 6e 74 6b 5f 63 6f 	imul   $0x6f635f6b,0x74(%esi),%ebp
  10fed3:	6c                   	insb   (%dx),%es:(%edi)
  10fed4:	6f                   	outsl  %ds:(%esi),(%dx)
  10fed5:	72 3a                	jb     10ff11 <cursor_y+0x46f0>
  10fed7:	46                   	inc    %esi
  10fed8:	28 30                	sub    %dh,(%eax)
  10feda:	2c 32                	sub    $0x32,%al
  10fedc:	35 29 00 62 61       	xor    $0x61620029,%eax
  10fee1:	63 6b 3a             	arpl   %bp,0x3a(%ebx)
  10fee4:	70 28                	jo     10ff0e <cursor_y+0x46ed>
  10fee6:	31 2c 32             	xor    %ebp,(%edx,%esi,1)
  10fee9:	29 00                	sub    %eax,(%eax)
  10feeb:	66 6f                	outsw  %ds:(%esi),(%dx)
  10feed:	72 65                	jb     10ff54 <cursor_y+0x4733>
  10feef:	3a 70 28             	cmp    0x28(%eax),%dh
  10fef2:	31 2c 32             	xor    %ebp,(%edx,%esi,1)
  10fef5:	29 00                	sub    %eax,(%eax)
  10fef7:	62 75 66             	bound  %esi,0x66(%ebp)
  10fefa:	66 3a 56 28          	data16 cmp 0x28(%esi),%dl
  10fefe:	30 2c 32             	xor    %ch,(%edx,%esi,1)
  10ff01:	36 29 00             	sub    %eax,%ss:(%eax)
  10ff04:	73 6b                	jae    10ff71 <cursor_y+0x4750>
  10ff06:	69 70 5f 61 74 6f 69 	imul   $0x696f7461,0x5f(%eax),%esi
  10ff0d:	3a 66 28             	cmp    0x28(%esi),%ah
  10ff10:	30 2c 31             	xor    %ch,(%ecx,%esi,1)
  10ff13:	29 00                	sub    %eax,(%eax)
  10ff15:	73 3a                	jae    10ff51 <cursor_y+0x4730>
  10ff17:	70 28                	jo     10ff41 <cursor_y+0x4720>
  10ff19:	30 2c 32             	xor    %ch,(%edx,%esi,1)
  10ff1c:	38 29                	cmp    %ch,(%ecx)
  10ff1e:	3d 2a 28 35 2c       	cmp    $0x2c35282a,%eax
  10ff23:	37                   	aaa    
  10ff24:	29 00                	sub    %eax,(%eax)
  10ff26:	6e                   	outsb  %ds:(%esi),(%dx)
  10ff27:	75 6d                	jne    10ff96 <cursor_y+0x4775>
  10ff29:	62 65 72             	bound  %esp,0x72(%ebp)
  10ff2c:	3a 66 28             	cmp    0x28(%esi),%ah
  10ff2f:	30 2c 32             	xor    %ch,(%edx,%esi,1)
  10ff32:	39 29                	cmp    %ebp,(%ecx)
  10ff34:	3d 2a 28 30 2c       	cmp    $0x2c30282a,%eax
  10ff39:	32 29                	xor    (%ecx),%ch
  10ff3b:	00 73 74             	add    %dh,0x74(%ebx)
  10ff3e:	72 3a                	jb     10ff7a <cursor_y+0x4759>
  10ff40:	70 28                	jo     10ff6a <cursor_y+0x4749>
  10ff42:	30 2c 32             	xor    %ch,(%edx,%esi,1)
  10ff45:	39 29                	cmp    %ebp,(%ecx)
  10ff47:	00 6e 75             	add    %ch,0x75(%esi)
  10ff4a:	6d                   	insl   (%dx),%es:(%edi)
  10ff4b:	3a 70 28             	cmp    0x28(%eax),%dh
  10ff4e:	30 2c 31             	xor    %ch,(%ecx,%esi,1)
  10ff51:	29 00                	sub    %eax,(%eax)
  10ff53:	62 61 73             	bound  %esp,0x73(%ecx)
  10ff56:	65 3a 70 28          	cmp    %gs:0x28(%eax),%dh
  10ff5a:	30 2c 31             	xor    %ch,(%ecx,%esi,1)
  10ff5d:	29 00                	sub    %eax,(%eax)
  10ff5f:	73 69                	jae    10ffca <cursor_y+0x47a9>
  10ff61:	7a 65                	jp     10ffc8 <cursor_y+0x47a7>
  10ff63:	3a 70 28             	cmp    0x28(%eax),%dh
  10ff66:	30 2c 31             	xor    %ch,(%ecx,%esi,1)
  10ff69:	29 00                	sub    %eax,(%eax)
  10ff6b:	70 72                	jo     10ffdf <cursor_y+0x47be>
  10ff6d:	65 63 69 73          	arpl   %bp,%gs:0x73(%ecx)
  10ff71:	69 6f 6e 3a 70 28 30 	imul   $0x3028703a,0x6e(%edi),%ebp
  10ff78:	2c 31                	sub    $0x31,%al
  10ff7a:	29 00                	sub    %eax,(%eax)
  10ff7c:	74 79                	je     10fff7 <cursor_y+0x47d6>
  10ff7e:	70 65                	jo     10ffe5 <cursor_y+0x47c4>
  10ff80:	3a 70 28             	cmp    0x28(%eax),%dh
  10ff83:	30 2c 31             	xor    %ch,(%ecx,%esi,1)
  10ff86:	29 00                	sub    %eax,(%eax)
  10ff88:	63 3a                	arpl   %di,(%edx)
  10ff8a:	28 30                	sub    %dh,(%eax)
  10ff8c:	2c 32                	sub    $0x32,%al
  10ff8e:	29 00                	sub    %eax,(%eax)
  10ff90:	73 69                	jae    10fffb <cursor_y+0x47da>
  10ff92:	67 6e                	outsb  %ds:(%si),(%dx)
  10ff94:	3a 28                	cmp    (%eax),%ch
  10ff96:	30 2c 32             	xor    %ch,(%edx,%esi,1)
  10ff99:	29 00                	sub    %eax,(%eax)
  10ff9b:	74 6d                	je     11000a <cursor_y+0x47e9>
  10ff9d:	70 3a                	jo     10ffd9 <cursor_y+0x47b8>
  10ff9f:	28 30                	sub    %dh,(%eax)
  10ffa1:	2c 33                	sub    $0x33,%al
  10ffa3:	30 29                	xor    %ch,(%ecx)
  10ffa5:	3d 61 72 28 30       	cmp    $0x30287261,%eax
  10ffaa:	2c 32                	sub    $0x32,%al
  10ffac:	37                   	aaa    
  10ffad:	29 3b                	sub    %edi,(%ebx)
  10ffaf:	30 3b                	xor    %bh,(%ebx)
  10ffb1:	33 35 3b 28 30 2c    	xor    0x2c30283b,%esi
  10ffb7:	32 29                	xor    (%ecx),%ch
  10ffb9:	00 64 69 67          	add    %ah,0x67(%ecx,%ebp,2)
  10ffbd:	69 74 73 3a 28 35 2c 	imul   $0x372c3528,0x3a(%ebx,%esi,2),%esi
  10ffc4:	37 
  10ffc5:	29 00                	sub    %eax,(%eax)
  10ffc7:	5f                   	pop    %edi
  10ffc8:	5f                   	pop    %edi
  10ffc9:	72 65                	jb     110030 <cursor_y+0x480f>
  10ffcb:	73 3a                	jae    110007 <cursor_y+0x47e6>
  10ffcd:	28 30                	sub    %dh,(%eax)
  10ffcf:	2c 31                	sub    $0x31,%al
  10ffd1:	29 00                	sub    %eax,(%eax)
  10ffd3:	76 73                	jbe    110048 <cursor_y+0x4827>
  10ffd5:	70 72                	jo     110049 <cursor_y+0x4828>
  10ffd7:	69 6e 74 66 3a 66 28 	imul   $0x28663a66,0x74(%esi),%ebp
  10ffde:	30 2c 31             	xor    %ch,(%ecx,%esi,1)
  10ffe1:	29 00                	sub    %eax,(%eax)
  10ffe3:	62 75 66             	bound  %esi,0x66(%ebp)
  10ffe6:	66 3a 70 28          	data16 cmp 0x28(%eax),%dh
  10ffea:	30 2c 32             	xor    %ch,(%edx,%esi,1)
  10ffed:	39 29                	cmp    %ebp,(%ecx)
  10ffef:	00 61 72             	add    %ah,0x72(%ecx)
  10fff2:	67 73 3a             	addr16 jae 11002f <cursor_y+0x480e>
  10fff5:	70 28                	jo     11001f <cursor_y+0x47fe>
  10fff7:	33 2c 31             	xor    (%ecx,%esi,1),%ebp
  10fffa:	29 00                	sub    %eax,(%eax)
  10fffc:	6c                   	insb   (%dx),%es:(%edi)
  10fffd:	65 6e                	outsb  %gs:(%esi),(%dx)
  10ffff:	3a 28                	cmp    (%eax),%ch
  110001:	30 2c 31             	xor    %ch,(%ecx,%esi,1)
  110004:	29 00                	sub    %eax,(%eax)
  110006:	73 74                	jae    11007c <cursor_y+0x485b>
  110008:	72 3a                	jb     110044 <cursor_y+0x4823>
  11000a:	28 30                	sub    %dh,(%eax)
  11000c:	2c 32                	sub    $0x32,%al
  11000e:	39 29                	cmp    %ebp,(%ecx)
  110010:	00 73 3a             	add    %dh,0x3a(%ebx)
  110013:	28 30                	sub    %dh,(%eax)
  110015:	2c 32                	sub    $0x32,%al
  110017:	39 29                	cmp    %ebp,(%ecx)
  110019:	00 69 70             	add    %ch,0x70(%ecx)
  11001c:	3a 28                	cmp    (%eax),%ch
  11001e:	30 2c 33             	xor    %ch,(%ebx,%esi,1)
  110021:	31 29                	xor    %ebp,(%ecx)
  110023:	3d 2a 28 30 2c       	cmp    $0x2c30282a,%eax
  110028:	31 29                	xor    %ebp,(%ecx)
  11002a:	00 66 6c             	add    %ah,0x6c(%esi)
  11002d:	61                   	popa   
  11002e:	67 73 3a             	addr16 jae 11006b <cursor_y+0x484a>
  110031:	28 30                	sub    %dh,(%eax)
  110033:	2c 31                	sub    $0x31,%al
  110035:	29 00                	sub    %eax,(%eax)
  110037:	66 69 65 6c 64 5f    	imul   $0x5f64,0x6c(%ebp),%sp
  11003d:	77 69                	ja     1100a8 <cursor_y+0x4887>
  11003f:	64 74 68             	fs je  1100aa <cursor_y+0x4889>
  110042:	3a 28                	cmp    (%eax),%ch
  110044:	30 2c 31             	xor    %ch,(%ecx,%esi,1)
  110047:	29 00                	sub    %eax,(%eax)
  110049:	70 72                	jo     1100bd <cursor_y+0x489c>
  11004b:	65 63 69 73          	arpl   %bp,%gs:0x73(%ecx)
  11004f:	69 6f 6e 3a 28 30 2c 	imul   $0x2c30283a,0x6e(%edi),%ebp
  110056:	31 29                	xor    %ebp,(%ecx)
  110058:	00 69 6e             	add    %ch,0x6e(%ecx)
  11005b:	69 74 2f 65 6e 74 72 	imul   $0x7972746e,0x65(%edi,%ebp,1),%esi
  110062:	79 
  110063:	2e 63 00             	arpl   %ax,%cs:(%eax)
  110066:	61                   	popa   
  110067:	64 64 3a 46 28       	fs cmp %fs:0x28(%esi),%al
  11006c:	30 2c 31             	xor    %ch,(%ecx,%esi,1)
  11006f:	29 00                	sub    %eax,(%eax)
  110071:	61                   	popa   
  110072:	3a 70 28             	cmp    0x28(%eax),%dh
  110075:	30 2c 31             	xor    %ch,(%ecx,%esi,1)
  110078:	29 00                	sub    %eax,(%eax)
  11007a:	62 3a                	bound  %edi,(%edx)
  11007c:	70 28                	jo     1100a6 <cursor_y+0x4885>
  11007e:	30 2c 31             	xor    %ch,(%ecx,%esi,1)
  110081:	29 00                	sub    %eax,(%eax)
  110083:	63 3a                	arpl   %di,(%edx)
  110085:	28 30                	sub    %dh,(%eax)
  110087:	2c 31                	sub    $0x31,%al
  110089:	29 00                	sub    %eax,(%eax)
  11008b:	6b 65 72 6e          	imul   $0x6e,0x72(%ebp),%esp
  11008f:	5f                   	pop    %edi
  110090:	65 6e                	outsb  %gs:(%esi),(%dx)
  110092:	74 72                	je     110106 <cursor_y+0x48e5>
  110094:	79 3a                	jns    1100d0 <cursor_y+0x48af>
  110096:	46                   	inc    %esi
  110097:	28 30                	sub    %dh,(%eax)
  110099:	2c 31                	sub    $0x31,%al
  11009b:	29 00                	sub    %eax,(%eax)
  11009d:	61                   	popa   
  11009e:	61                   	popa   
  11009f:	3a 28                	cmp    (%eax),%ch
  1100a1:	30 2c 31             	xor    %ch,(%ecx,%esi,1)
  1100a4:	29 00                	sub    %eax,(%eax)
  1100a6:	62 62 3a             	bound  %esp,0x3a(%edx)
  1100a9:	28 30                	sub    %dh,(%eax)
  1100ab:	2c 31                	sub    $0x31,%al
  1100ad:	29 00                	sub    %eax,(%eax)
  1100af:	72 3a                	jb     1100eb <cursor_y+0x48ca>
  1100b1:	28 30                	sub    %dh,(%eax)
  1100b3:	2c 31                	sub    $0x31,%al
  1100b5:	29 00                	sub    %eax,(%eax)
  1100b7:	64 72 69             	fs jb  110123 <cursor_y+0x4902>
  1100ba:	76 65                	jbe    110121 <cursor_y+0x4900>
  1100bc:	72 73                	jb     110131 <cursor_y+0x4910>
  1100be:	2f                   	das    
  1100bf:	63 6f 6e             	arpl   %bp,0x6e(%edi)
  1100c2:	73 6f                	jae    110133 <cursor_y+0x4912>
  1100c4:	6c                   	insb   (%dx),%es:(%edi)
  1100c5:	65 2e 63 00          	gs arpl %ax,%cs:(%eax)
  1100c9:	76 69                	jbe    110134 <cursor_y+0x4913>
  1100cb:	64 65 6f             	fs outsl %gs:(%esi),(%dx)
  1100ce:	5f                   	pop    %edi
  1100cf:	6d                   	insl   (%dx),%es:(%edi)
  1100d0:	65 6d                	gs insl (%dx),%es:(%edi)
  1100d2:	6f                   	outsl  %ds:(%esi),(%dx)
  1100d3:	72 79                	jb     11014e <cursor_y+0x492d>
  1100d5:	3a 53 28             	cmp    0x28(%ebx),%dl
  1100d8:	30 2c 32             	xor    %ch,(%edx,%esi,1)
  1100db:	36 29 3d 2a 28 32 2c 	sub    %edi,%ss:0x2c32282a
  1100e2:	33 29                	xor    (%ecx),%ebp
  1100e4:	00 63 75             	add    %ah,0x75(%ebx)
  1100e7:	72 73                	jb     11015c <cursor_y+0x493b>
  1100e9:	6f                   	outsl  %ds:(%esi),(%dx)
  1100ea:	72 5f                	jb     11014b <cursor_y+0x492a>
  1100ec:	78 3a                	js     110128 <cursor_y+0x4907>
  1100ee:	53                   	push   %ebx
  1100ef:	28 32                	sub    %dh,(%edx)
  1100f1:	2c 35                	sub    $0x35,%al
  1100f3:	29 00                	sub    %eax,(%eax)
  1100f5:	63 75 72             	arpl   %si,0x72(%ebp)
  1100f8:	73 6f                	jae    110169 <cursor_y+0x4948>
  1100fa:	72 5f                	jb     11015b <cursor_y+0x493a>
  1100fc:	79 3a                	jns    110138 <cursor_y+0x4917>
  1100fe:	53                   	push   %ebx
  1100ff:	28 32                	sub    %dh,(%edx)
  110101:	2c 35                	sub    $0x35,%al
  110103:	29 00                	sub    %eax,(%eax)
  110105:	6d                   	insl   (%dx),%es:(%edi)
  110106:	6f                   	outsl  %ds:(%esi),(%dx)
  110107:	76 65                	jbe    11016e <cursor_y+0x494d>
  110109:	5f                   	pop    %edi
  11010a:	63 75 72             	arpl   %si,0x72(%ebp)
  11010d:	73 6f                	jae    11017e <cursor_y+0x495d>
  11010f:	72 3a                	jb     11014b <cursor_y+0x492a>
  110111:	66 28 30             	data16 sub %dh,(%eax)
  110114:	2c 32                	sub    $0x32,%al
  110116:	35 29 00 63 75       	xor    $0x75630029,%eax
  11011b:	72 73                	jb     110190 <cursor_y+0x496f>
  11011d:	6f                   	outsl  %ds:(%esi),(%dx)
  11011e:	72 4c                	jb     11016c <cursor_y+0x494b>
  110120:	6f                   	outsl  %ds:(%esi),(%dx)
  110121:	63 61 74             	arpl   %sp,0x74(%ecx)
  110124:	69 6f 6e 3a 28 32 2c 	imul   $0x2c32283a,0x6e(%edi),%ebp
  11012b:	33 29                	xor    (%ecx),%ebp
  11012d:	00 73 63             	add    %dh,0x63(%ebx)
  110130:	72 6f                	jb     1101a1 <cursor_y+0x4980>
  110132:	6c                   	insb   (%dx),%es:(%edi)
  110133:	6c                   	insb   (%dx),%es:(%edi)
  110134:	3a 66 28             	cmp    0x28(%esi),%ah
  110137:	30 2c 32             	xor    %ch,(%edx,%esi,1)
  11013a:	35 29 00 61 74       	xor    $0x74610029,%eax
  11013f:	74 72                	je     1101b3 <cursor_y+0x4992>
  110141:	69 62 75 74 65 5f 62 	imul   $0x625f6574,0x75(%edx),%esp
  110148:	79 74                	jns    1101be <cursor_y+0x499d>
  11014a:	65 3a 28             	cmp    %gs:(%eax),%ch
  11014d:	32 2c 35 29 00 62 6c 	xor    0x6c620029(,%esi,1),%ch
  110154:	61                   	popa   
  110155:	6e                   	outsb  %ds:(%esi),(%dx)
  110156:	6b 3a 28             	imul   $0x28,(%edx),%edi
  110159:	32 2c 33             	xor    (%ebx,%esi,1),%ch
  11015c:	29 00                	sub    %eax,(%eax)
  11015e:	63 6f 6e             	arpl   %bp,0x6e(%edi)
  110161:	73 6f                	jae    1101d2 <cursor_y+0x49b1>
  110163:	6c                   	insb   (%dx),%es:(%edi)
  110164:	65 5f                	gs pop %edi
  110166:	63 6c 65 61          	arpl   %bp,0x61(%ebp,%eiz,2)
  11016a:	72 3a                	jb     1101a6 <cursor_y+0x4985>
  11016c:	46                   	inc    %esi
  11016d:	28 30                	sub    %dh,(%eax)
  11016f:	2c 32                	sub    $0x32,%al
  110171:	35 29 00 63 6f       	xor    $0x6f630029,%eax
  110176:	6e                   	outsb  %ds:(%esi),(%dx)
  110177:	73 6f                	jae    1101e8 <cursor_y+0x49c7>
  110179:	6c                   	insb   (%dx),%es:(%edi)
  11017a:	65 5f                	gs pop %edi
  11017c:	70 75                	jo     1101f3 <cursor_y+0x49d2>
  11017e:	74 63                	je     1101e3 <cursor_y+0x49c2>
  110180:	5f                   	pop    %edi
  110181:	63 6f 6c             	arpl   %bp,0x6c(%edi)
  110184:	6f                   	outsl  %ds:(%esi),(%dx)
  110185:	72 3a                	jb     1101c1 <cursor_y+0x49a0>
  110187:	46                   	inc    %esi
  110188:	28 30                	sub    %dh,(%eax)
  11018a:	2c 32                	sub    $0x32,%al
  11018c:	35 29 00 63 3a       	xor    $0x3a630029,%eax
  110191:	70 28                	jo     1101bb <cursor_y+0x499a>
  110193:	30 2c 31             	xor    %ch,(%ecx,%esi,1)
  110196:	29 00                	sub    %eax,(%eax)
  110198:	62 61 63             	bound  %esp,0x63(%ecx)
  11019b:	6b 5f 63 6f          	imul   $0x6f,0x63(%edi),%ebx
  11019f:	6c                   	insb   (%dx),%es:(%edi)
  1101a0:	6f                   	outsl  %ds:(%esi),(%dx)
  1101a1:	72 3a                	jb     1101dd <cursor_y+0x49bc>
  1101a3:	28 32                	sub    %dh,(%edx)
  1101a5:	2c 35                	sub    $0x35,%al
  1101a7:	29 00                	sub    %eax,(%eax)
  1101a9:	66 6f                	outsw  %ds:(%esi),(%dx)
  1101ab:	72 65                	jb     110212 <cursor_y+0x49f1>
  1101ad:	5f                   	pop    %edi
  1101ae:	63 6f 6c             	arpl   %bp,0x6c(%edi)
  1101b1:	6f                   	outsl  %ds:(%esi),(%dx)
  1101b2:	72 3a                	jb     1101ee <cursor_y+0x49cd>
  1101b4:	28 32                	sub    %dh,(%edx)
  1101b6:	2c 35                	sub    $0x35,%al
  1101b8:	29 00                	sub    %eax,(%eax)
  1101ba:	61                   	popa   
  1101bb:	74 74                	je     110231 <cursor_y+0x4a10>
  1101bd:	72 69                	jb     110228 <cursor_y+0x4a07>
  1101bf:	62 75 74             	bound  %esi,0x74(%ebp)
  1101c2:	65 3a 28             	cmp    %gs:(%eax),%ch
  1101c5:	32 2c 33             	xor    (%ebx,%esi,1),%ch
  1101c8:	29 00                	sub    %eax,(%eax)
  1101ca:	63 6f 6e             	arpl   %bp,0x6e(%edi)
  1101cd:	73 6f                	jae    11023e <cursor_y+0x4a1d>
  1101cf:	6c                   	insb   (%dx),%es:(%edi)
  1101d0:	65 5f                	gs pop %edi
  1101d2:	77 72                	ja     110246 <cursor_y+0x4a25>
  1101d4:	69 74 65 3a 46 28 30 	imul   $0x2c302846,0x3a(%ebp,%eiz,2),%esi
  1101db:	2c 
  1101dc:	32 35 29 00 63 73    	xor    0x73630029,%dh
  1101e2:	74 72                	je     110256 <cursor_y+0x4a35>
  1101e4:	3a 70 28             	cmp    0x28(%eax),%dh
  1101e7:	30 2c 32             	xor    %ch,(%edx,%esi,1)
  1101ea:	37                   	aaa    
  1101eb:	29 3d 2a 28 30 2c    	sub    %edi,0x2c30282a
  1101f1:	32 29                	xor    (%ecx),%ch
  1101f3:	00 63 6f             	add    %ah,0x6f(%ebx)
  1101f6:	6e                   	outsb  %ds:(%esi),(%dx)
  1101f7:	73 6f                	jae    110268 <cursor_y+0x4a47>
  1101f9:	6c                   	insb   (%dx),%es:(%edi)
  1101fa:	65 5f                	gs pop %edi
  1101fc:	77 72                	ja     110270 <cursor_y+0x4a4f>
  1101fe:	69 74 65 5f 63 6f 6c 	imul   $0x6f6c6f63,0x5f(%ebp,%eiz,2),%esi
  110205:	6f 
  110206:	72 3a                	jb     110242 <cursor_y+0x4a21>
  110208:	46                   	inc    %esi
  110209:	28 30                	sub    %dh,(%eax)
  11020b:	2c 32                	sub    $0x32,%al
  11020d:	35 29 00 63 73       	xor    $0x73630029,%eax
  110212:	74 72                	je     110286 <cursor_y+0x4a65>
  110214:	3a 70 28             	cmp    0x28(%eax),%dh
  110217:	30 2c 32             	xor    %ch,(%edx,%esi,1)
  11021a:	37                   	aaa    
  11021b:	29 00                	sub    %eax,(%eax)
  11021d:	63 6f 6e             	arpl   %bp,0x6e(%edi)
  110220:	73 6f                	jae    110291 <cursor_y+0x4a70>
  110222:	6c                   	insb   (%dx),%es:(%edi)
  110223:	65 5f                	gs pop %edi
  110225:	77 72                	ja     110299 <cursor_y+0x4a78>
  110227:	69 74 65 5f 68 65 78 	imul   $0x3a786568,0x5f(%ebp,%eiz,2),%esi
  11022e:	3a 
  11022f:	46                   	inc    %esi
  110230:	28 30                	sub    %dh,(%eax)
  110232:	2c 32                	sub    $0x32,%al
  110234:	35 29 00 6e 3a       	xor    $0x3a6e0029,%eax
  110239:	70 28                	jo     110263 <cursor_y+0x4a42>
  11023b:	32 2c 31             	xor    (%ecx,%esi,1),%ch
  11023e:	29 00                	sub    %eax,(%eax)
  110240:	74 6d                	je     1102af <cursor_y+0x4a8e>
  110242:	70 3a                	jo     11027e <cursor_y+0x4a5d>
  110244:	28 30                	sub    %dh,(%eax)
  110246:	2c 31                	sub    $0x31,%al
  110248:	29 00                	sub    %eax,(%eax)
  11024a:	6e                   	outsb  %ds:(%esi),(%dx)
  11024b:	6f                   	outsl  %ds:(%esi),(%dx)
  11024c:	5a                   	pop    %edx
  11024d:	65 72 6f             	gs jb  1102bf <cursor_y+0x4a9e>
  110250:	65 73 3a             	gs jae 11028d <cursor_y+0x4a6c>
  110253:	28 30                	sub    %dh,(%eax)
  110255:	2c 32                	sub    $0x32,%al
  110257:	29 00                	sub    %eax,(%eax)
  110259:	63 6f 6e             	arpl   %bp,0x6e(%edi)
  11025c:	73 6f                	jae    1102cd <cursor_y+0x4aac>
  11025e:	6c                   	insb   (%dx),%es:(%edi)
  11025f:	65 5f                	gs pop %edi
  110261:	77 72                	ja     1102d5 <cursor_y+0x4ab4>
  110263:	69 74 65 5f 64 65 63 	imul   $0x3a636564,0x5f(%ebp,%eiz,2),%esi
  11026a:	3a 
  11026b:	46                   	inc    %esi
  11026c:	28 30                	sub    %dh,(%eax)
  11026e:	2c 32                	sub    $0x32,%al
  110270:	35 29 00 61 63       	xor    $0x63610029,%eax
  110275:	63 3a                	arpl   %di,(%edx)
  110277:	28 32                	sub    %dh,(%edx)
  110279:	2c 31                	sub    $0x31,%al
  11027b:	29 00                	sub    %eax,(%eax)
  11027d:	63 3a                	arpl   %di,(%edx)
  11027f:	28 30                	sub    %dh,(%eax)
  110281:	2c 32                	sub    $0x32,%al
  110283:	38 29                	cmp    %ch,(%ecx)
  110285:	3d 61 72 28 30       	cmp    $0x30287261,%eax
  11028a:	2c 32                	sub    $0x32,%al
  11028c:	39 29                	cmp    %ebp,(%ecx)
  11028e:	3d 72 28 30 2c       	cmp    $0x2c302872,%eax
  110293:	32 39                	xor    (%ecx),%bh
  110295:	29 3b                	sub    %edi,(%ebx)
  110297:	30 3b                	xor    %bh,(%ebx)
  110299:	30 33                	xor    %dh,(%ebx)
  11029b:	37                   	aaa    
  11029c:	37                   	aaa    
  11029d:	37                   	aaa    
  11029e:	37                   	aaa    
  11029f:	37                   	aaa    
  1102a0:	37                   	aaa    
  1102a1:	37                   	aaa    
  1102a2:	37                   	aaa    
  1102a3:	37                   	aaa    
  1102a4:	37                   	aaa    
  1102a5:	3b 3b                	cmp    (%ebx),%edi
  1102a7:	30 3b                	xor    %bh,(%ebx)
  1102a9:	33 31                	xor    (%ecx),%esi
  1102ab:	3b 28                	cmp    (%eax),%ebp
  1102ad:	30 2c 32             	xor    %ch,(%edx,%esi,1)
  1102b0:	29 00                	sub    %eax,(%eax)
  1102b2:	63 32                	arpl   %si,(%edx)
  1102b4:	3a 28                	cmp    (%eax),%ch
  1102b6:	30 2c 32             	xor    %ch,(%edx,%esi,1)
  1102b9:	38 29                	cmp    %ch,(%ecx)
  1102bb:	00 6a 3a             	add    %ch,0x3a(%edx)
  1102be:	28 30                	sub    %dh,(%eax)
  1102c0:	2c 31                	sub    $0x31,%al
  1102c2:	29 00                	sub    %eax,(%eax)
	...
