
hx_kernel:     file format elf32-i386


Disassembly of section .text:

00100000 <start-0xc>:
  100000:	02 b0 ad 1b 03 00    	add    dh,BYTE PTR [eax+0x31bad]
  100006:	00 00                	add    BYTE PTR [eax],al
  100008:	fb                   	sti    
  100009:	4f                   	dec    edi
  10000a:	52                   	push   edx
  10000b:	e4                   	.byte 0xe4

0010000c <start>:
  10000c:	fa                   	cli    
  10000d:	bc 03 80 00 00       	mov    esp,0x8003
  100012:	bd 00 00 00 00       	mov    ebp,0x0
  100017:	83 e4 f0             	and    esp,0xfffffff0
  10001a:	89 1d 00 b0 10 00    	mov    DWORD PTR ds:0x10b000,ebx
  100020:	e8 8d 0b 00 00       	call   100bb2 <kern_entry>

00100025 <stop>:
  100025:	f4                   	hlt    
  100026:	eb fd                	jmp    100025 <stop>

00100028 <outb>:
  100028:	55                   	push   ebp
  100029:	89 e5                	mov    ebp,esp
  10002b:	83 ec 08             	sub    esp,0x8
  10002e:	8b 55 08             	mov    edx,DWORD PTR [ebp+0x8]
  100031:	8b 45 0c             	mov    eax,DWORD PTR [ebp+0xc]
  100034:	66 89 55 fc          	mov    WORD PTR [ebp-0x4],dx
  100038:	88 45 f8             	mov    BYTE PTR [ebp-0x8],al
  10003b:	0f b7 55 fc          	movzx  edx,WORD PTR [ebp-0x4]
  10003f:	0f b6 45 f8          	movzx  eax,BYTE PTR [ebp-0x8]
  100043:	ee                   	out    dx,al
  100044:	90                   	nop
  100045:	c9                   	leave  
  100046:	c3                   	ret    

00100047 <inb>:
  100047:	55                   	push   ebp
  100048:	89 e5                	mov    ebp,esp
  10004a:	83 ec 14             	sub    esp,0x14
  10004d:	8b 45 08             	mov    eax,DWORD PTR [ebp+0x8]
  100050:	66 89 45 ec          	mov    WORD PTR [ebp-0x14],ax
  100054:	0f b7 45 ec          	movzx  eax,WORD PTR [ebp-0x14]
  100058:	89 c2                	mov    edx,eax
  10005a:	ec                   	in     al,dx
  10005b:	88 45 ff             	mov    BYTE PTR [ebp-0x1],al
  10005e:	0f b6 45 ff          	movzx  eax,BYTE PTR [ebp-0x1]
  100062:	c9                   	leave  
  100063:	c3                   	ret    

00100064 <inw>:
  100064:	55                   	push   ebp
  100065:	89 e5                	mov    ebp,esp
  100067:	83 ec 14             	sub    esp,0x14
  10006a:	8b 45 08             	mov    eax,DWORD PTR [ebp+0x8]
  10006d:	66 89 45 ec          	mov    WORD PTR [ebp-0x14],ax
  100071:	0f b7 45 ec          	movzx  eax,WORD PTR [ebp-0x14]
  100075:	89 c2                	mov    edx,eax
  100077:	66 ed                	in     ax,dx
  100079:	66 89 45 fe          	mov    WORD PTR [ebp-0x2],ax
  10007d:	0f b7 45 fe          	movzx  eax,WORD PTR [ebp-0x2]
  100081:	c9                   	leave  
  100082:	c3                   	ret    

00100083 <strcmp>:
  100083:	55                   	push   ebp
  100084:	89 e5                	mov    ebp,esp
  100086:	eb 08                	jmp    100090 <strcmp+0xd>
  100088:	83 45 08 01          	add    DWORD PTR [ebp+0x8],0x1
  10008c:	83 45 0c 01          	add    DWORD PTR [ebp+0xc],0x1
  100090:	8b 45 08             	mov    eax,DWORD PTR [ebp+0x8]
  100093:	0f b6 00             	movzx  eax,BYTE PTR [eax]
  100096:	84 c0                	test   al,al
  100098:	74 1a                	je     1000b4 <strcmp+0x31>
  10009a:	8b 45 0c             	mov    eax,DWORD PTR [ebp+0xc]
  10009d:	0f b6 00             	movzx  eax,BYTE PTR [eax]
  1000a0:	84 c0                	test   al,al
  1000a2:	74 10                	je     1000b4 <strcmp+0x31>
  1000a4:	8b 45 08             	mov    eax,DWORD PTR [ebp+0x8]
  1000a7:	0f b6 10             	movzx  edx,BYTE PTR [eax]
  1000aa:	8b 45 0c             	mov    eax,DWORD PTR [ebp+0xc]
  1000ad:	0f b6 00             	movzx  eax,BYTE PTR [eax]
  1000b0:	38 c2                	cmp    dl,al
  1000b2:	74 d4                	je     100088 <strcmp+0x5>
  1000b4:	8b 45 08             	mov    eax,DWORD PTR [ebp+0x8]
  1000b7:	0f b6 00             	movzx  eax,BYTE PTR [eax]
  1000ba:	0f be d0             	movsx  edx,al
  1000bd:	8b 45 0c             	mov    eax,DWORD PTR [ebp+0xc]
  1000c0:	0f b6 00             	movzx  eax,BYTE PTR [eax]
  1000c3:	0f be c0             	movsx  eax,al
  1000c6:	29 c2                	sub    edx,eax
  1000c8:	89 d0                	mov    eax,edx
  1000ca:	5d                   	pop    ebp
  1000cb:	c3                   	ret    

001000cc <elf_from_multiboot>:
  1000cc:	55                   	push   ebp
  1000cd:	89 e5                	mov    ebp,esp
  1000cf:	83 ec 28             	sub    esp,0x28
  1000d2:	8b 45 0c             	mov    eax,DWORD PTR [ebp+0xc]
  1000d5:	8b 40 24             	mov    eax,DWORD PTR [eax+0x24]
  1000d8:	89 45 f0             	mov    DWORD PTR [ebp-0x10],eax
  1000db:	8b 45 0c             	mov    eax,DWORD PTR [ebp+0xc]
  1000de:	8b 00                	mov    eax,DWORD PTR [eax]
  1000e0:	83 ec 08             	sub    esp,0x8
  1000e3:	50                   	push   eax
  1000e4:	68 04 20 10 00       	push   0x102004
  1000e9:	e8 d7 03 00 00       	call   1004c5 <printk>
  1000ee:	83 c4 10             	add    esp,0x10
  1000f1:	8b 45 0c             	mov    eax,DWORD PTR [ebp+0xc]
  1000f4:	8b 40 1c             	mov    eax,DWORD PTR [eax+0x1c]
  1000f7:	83 ec 08             	sub    esp,0x8
  1000fa:	50                   	push   eax
  1000fb:	68 14 20 10 00       	push   0x102014
  100100:	e8 c0 03 00 00       	call   1004c5 <printk>
  100105:	83 c4 10             	add    esp,0x10
  100108:	8b 45 0c             	mov    eax,DWORD PTR [ebp+0xc]
  10010b:	8b 40 20             	mov    eax,DWORD PTR [eax+0x20]
  10010e:	83 ec 08             	sub    esp,0x8
  100111:	50                   	push   eax
  100112:	68 22 20 10 00       	push   0x102022
  100117:	e8 a9 03 00 00       	call   1004c5 <printk>
  10011c:	83 c4 10             	add    esp,0x10
  10011f:	8b 45 0c             	mov    eax,DWORD PTR [ebp+0xc]
  100122:	8b 40 24             	mov    eax,DWORD PTR [eax+0x24]
  100125:	83 ec 08             	sub    esp,0x8
  100128:	50                   	push   eax
  100129:	68 31 20 10 00       	push   0x102031
  10012e:	e8 92 03 00 00       	call   1004c5 <printk>
  100133:	83 c4 10             	add    esp,0x10
  100136:	8b 45 0c             	mov    eax,DWORD PTR [ebp+0xc]
  100139:	8b 40 28             	mov    eax,DWORD PTR [eax+0x28]
  10013c:	83 ec 08             	sub    esp,0x8
  10013f:	50                   	push   eax
  100140:	68 42 20 10 00       	push   0x102042
  100145:	e8 7b 03 00 00       	call   1004c5 <printk>
  10014a:	83 c4 10             	add    esp,0x10
  10014d:	8b 45 0c             	mov    eax,DWORD PTR [ebp+0xc]
  100150:	8b 50 28             	mov    edx,DWORD PTR [eax+0x28]
  100153:	89 d0                	mov    eax,edx
  100155:	c1 e0 02             	shl    eax,0x2
  100158:	01 d0                	add    eax,edx
  10015a:	c1 e0 03             	shl    eax,0x3
  10015d:	89 c2                	mov    edx,eax
  10015f:	8b 45 f0             	mov    eax,DWORD PTR [ebp-0x10]
  100162:	01 d0                	add    eax,edx
  100164:	8b 40 0c             	mov    eax,DWORD PTR [eax+0xc]
  100167:	89 45 ec             	mov    DWORD PTR [ebp-0x14],eax
  10016a:	c7 45 f4 00 00 00 00 	mov    DWORD PTR [ebp-0xc],0x0
  100171:	e9 cb 00 00 00       	jmp    100241 <elf_from_multiboot+0x175>
  100176:	83 ec 08             	sub    esp,0x8
  100179:	ff 75 f4             	push   DWORD PTR [ebp-0xc]
  10017c:	68 52 20 10 00       	push   0x102052
  100181:	e8 3f 03 00 00       	call   1004c5 <printk>
  100186:	83 c4 10             	add    esp,0x10
  100189:	8b 55 f4             	mov    edx,DWORD PTR [ebp-0xc]
  10018c:	89 d0                	mov    eax,edx
  10018e:	c1 e0 02             	shl    eax,0x2
  100191:	01 d0                	add    eax,edx
  100193:	c1 e0 03             	shl    eax,0x3
  100196:	89 c2                	mov    edx,eax
  100198:	8b 45 f0             	mov    eax,DWORD PTR [ebp-0x10]
  10019b:	01 d0                	add    eax,edx
  10019d:	8b 10                	mov    edx,DWORD PTR [eax]
  10019f:	8b 45 ec             	mov    eax,DWORD PTR [ebp-0x14]
  1001a2:	01 d0                	add    eax,edx
  1001a4:	89 45 e8             	mov    DWORD PTR [ebp-0x18],eax
  1001a7:	83 ec 08             	sub    esp,0x8
  1001aa:	68 57 20 10 00       	push   0x102057
  1001af:	ff 75 e8             	push   DWORD PTR [ebp-0x18]
  1001b2:	e8 cc fe ff ff       	call   100083 <strcmp>
  1001b7:	83 c4 10             	add    esp,0x10
  1001ba:	85 c0                	test   eax,eax
  1001bc:	75 34                	jne    1001f2 <elf_from_multiboot+0x126>
  1001be:	8b 55 f4             	mov    edx,DWORD PTR [ebp-0xc]
  1001c1:	89 d0                	mov    eax,edx
  1001c3:	c1 e0 02             	shl    eax,0x2
  1001c6:	01 d0                	add    eax,edx
  1001c8:	c1 e0 03             	shl    eax,0x3
  1001cb:	89 c2                	mov    edx,eax
  1001cd:	8b 45 f0             	mov    eax,DWORD PTR [ebp-0x10]
  1001d0:	01 d0                	add    eax,edx
  1001d2:	8b 40 0c             	mov    eax,DWORD PTR [eax+0xc]
  1001d5:	89 45 e0             	mov    DWORD PTR [ebp-0x20],eax
  1001d8:	8b 55 f4             	mov    edx,DWORD PTR [ebp-0xc]
  1001db:	89 d0                	mov    eax,edx
  1001dd:	c1 e0 02             	shl    eax,0x2
  1001e0:	01 d0                	add    eax,edx
  1001e2:	c1 e0 03             	shl    eax,0x3
  1001e5:	89 c2                	mov    edx,eax
  1001e7:	8b 45 f0             	mov    eax,DWORD PTR [ebp-0x10]
  1001ea:	01 d0                	add    eax,edx
  1001ec:	8b 40 14             	mov    eax,DWORD PTR [eax+0x14]
  1001ef:	89 45 e4             	mov    DWORD PTR [ebp-0x1c],eax
  1001f2:	83 ec 08             	sub    esp,0x8
  1001f5:	68 5f 20 10 00       	push   0x10205f
  1001fa:	ff 75 e8             	push   DWORD PTR [ebp-0x18]
  1001fd:	e8 81 fe ff ff       	call   100083 <strcmp>
  100202:	83 c4 10             	add    esp,0x10
  100205:	85 c0                	test   eax,eax
  100207:	75 34                	jne    10023d <elf_from_multiboot+0x171>
  100209:	8b 55 f4             	mov    edx,DWORD PTR [ebp-0xc]
  10020c:	89 d0                	mov    eax,edx
  10020e:	c1 e0 02             	shl    eax,0x2
  100211:	01 d0                	add    eax,edx
  100213:	c1 e0 03             	shl    eax,0x3
  100216:	89 c2                	mov    edx,eax
  100218:	8b 45 f0             	mov    eax,DWORD PTR [ebp-0x10]
  10021b:	01 d0                	add    eax,edx
  10021d:	8b 40 0c             	mov    eax,DWORD PTR [eax+0xc]
  100220:	89 45 d8             	mov    DWORD PTR [ebp-0x28],eax
  100223:	8b 55 f4             	mov    edx,DWORD PTR [ebp-0xc]
  100226:	89 d0                	mov    eax,edx
  100228:	c1 e0 02             	shl    eax,0x2
  10022b:	01 d0                	add    eax,edx
  10022d:	c1 e0 03             	shl    eax,0x3
  100230:	89 c2                	mov    edx,eax
  100232:	8b 45 f0             	mov    eax,DWORD PTR [ebp-0x10]
  100235:	01 d0                	add    eax,edx
  100237:	8b 40 14             	mov    eax,DWORD PTR [eax+0x14]
  10023a:	89 45 dc             	mov    DWORD PTR [ebp-0x24],eax
  10023d:	83 45 f4 01          	add    DWORD PTR [ebp-0xc],0x1
  100241:	8b 45 0c             	mov    eax,DWORD PTR [ebp+0xc]
  100244:	8b 50 1c             	mov    edx,DWORD PTR [eax+0x1c]
  100247:	8b 45 f4             	mov    eax,DWORD PTR [ebp-0xc]
  10024a:	39 c2                	cmp    edx,eax
  10024c:	0f 87 24 ff ff ff    	ja     100176 <elf_from_multiboot+0xaa>
  100252:	8b 45 08             	mov    eax,DWORD PTR [ebp+0x8]
  100255:	8b 55 d8             	mov    edx,DWORD PTR [ebp-0x28]
  100258:	89 10                	mov    DWORD PTR [eax],edx
  10025a:	8b 55 dc             	mov    edx,DWORD PTR [ebp-0x24]
  10025d:	89 50 04             	mov    DWORD PTR [eax+0x4],edx
  100260:	8b 55 e0             	mov    edx,DWORD PTR [ebp-0x20]
  100263:	89 50 08             	mov    DWORD PTR [eax+0x8],edx
  100266:	8b 55 e4             	mov    edx,DWORD PTR [ebp-0x1c]
  100269:	89 50 0c             	mov    DWORD PTR [eax+0xc],edx
  10026c:	8b 45 08             	mov    eax,DWORD PTR [ebp+0x8]
  10026f:	c9                   	leave  
  100270:	c2 04 00             	ret    0x4

00100273 <elf_lookup_symbol>:
  100273:	55                   	push   ebp
  100274:	89 e5                	mov    ebp,esp
  100276:	83 ec 10             	sub    esp,0x10
  100279:	c7 45 fc 00 00 00 00 	mov    DWORD PTR [ebp-0x4],0x0
  100280:	eb 78                	jmp    1002fa <elf_lookup_symbol+0x87>
  100282:	8b 45 0c             	mov    eax,DWORD PTR [ebp+0xc]
  100285:	8b 00                	mov    eax,DWORD PTR [eax]
  100287:	8b 55 fc             	mov    edx,DWORD PTR [ebp-0x4]
  10028a:	c1 e2 04             	shl    edx,0x4
  10028d:	01 d0                	add    eax,edx
  10028f:	0f b6 40 0c          	movzx  eax,BYTE PTR [eax+0xc]
  100293:	0f b6 c0             	movzx  eax,al
  100296:	83 e0 0f             	and    eax,0xf
  100299:	83 f8 02             	cmp    eax,0x2
  10029c:	75 57                	jne    1002f5 <elf_lookup_symbol+0x82>
  10029e:	8b 45 0c             	mov    eax,DWORD PTR [ebp+0xc]
  1002a1:	8b 00                	mov    eax,DWORD PTR [eax]
  1002a3:	8b 55 fc             	mov    edx,DWORD PTR [ebp-0x4]
  1002a6:	c1 e2 04             	shl    edx,0x4
  1002a9:	01 d0                	add    eax,edx
  1002ab:	8b 40 04             	mov    eax,DWORD PTR [eax+0x4]
  1002ae:	39 45 08             	cmp    DWORD PTR [ebp+0x8],eax
  1002b1:	72 43                	jb     1002f6 <elf_lookup_symbol+0x83>
  1002b3:	8b 45 0c             	mov    eax,DWORD PTR [ebp+0xc]
  1002b6:	8b 00                	mov    eax,DWORD PTR [eax]
  1002b8:	8b 55 fc             	mov    edx,DWORD PTR [ebp-0x4]
  1002bb:	c1 e2 04             	shl    edx,0x4
  1002be:	01 d0                	add    eax,edx
  1002c0:	8b 50 04             	mov    edx,DWORD PTR [eax+0x4]
  1002c3:	8b 45 0c             	mov    eax,DWORD PTR [ebp+0xc]
  1002c6:	8b 00                	mov    eax,DWORD PTR [eax]
  1002c8:	8b 4d fc             	mov    ecx,DWORD PTR [ebp-0x4]
  1002cb:	c1 e1 04             	shl    ecx,0x4
  1002ce:	01 c8                	add    eax,ecx
  1002d0:	8b 40 08             	mov    eax,DWORD PTR [eax+0x8]
  1002d3:	01 d0                	add    eax,edx
  1002d5:	39 45 08             	cmp    DWORD PTR [ebp+0x8],eax
  1002d8:	73 1c                	jae    1002f6 <elf_lookup_symbol+0x83>
  1002da:	8b 45 0c             	mov    eax,DWORD PTR [ebp+0xc]
  1002dd:	8b 40 08             	mov    eax,DWORD PTR [eax+0x8]
  1002e0:	89 c1                	mov    ecx,eax
  1002e2:	8b 45 0c             	mov    eax,DWORD PTR [ebp+0xc]
  1002e5:	8b 00                	mov    eax,DWORD PTR [eax]
  1002e7:	8b 55 fc             	mov    edx,DWORD PTR [ebp-0x4]
  1002ea:	c1 e2 04             	shl    edx,0x4
  1002ed:	01 d0                	add    eax,edx
  1002ef:	8b 00                	mov    eax,DWORD PTR [eax]
  1002f1:	01 c8                	add    eax,ecx
  1002f3:	eb 20                	jmp    100315 <elf_lookup_symbol+0xa2>
  1002f5:	90                   	nop
  1002f6:	83 45 fc 01          	add    DWORD PTR [ebp-0x4],0x1
  1002fa:	8b 45 0c             	mov    eax,DWORD PTR [ebp+0xc]
  1002fd:	8b 40 04             	mov    eax,DWORD PTR [eax+0x4]
  100300:	c1 e8 04             	shr    eax,0x4
  100303:	89 c2                	mov    edx,eax
  100305:	8b 45 fc             	mov    eax,DWORD PTR [ebp-0x4]
  100308:	39 c2                	cmp    edx,eax
  10030a:	0f 87 72 ff ff ff    	ja     100282 <elf_lookup_symbol+0xf>
  100310:	b8 00 00 00 00       	mov    eax,0x0
  100315:	c9                   	leave  
  100316:	c3                   	ret    

00100317 <init_debug>:
  100317:	55                   	push   ebp
  100318:	89 e5                	mov    ebp,esp
  10031a:	83 ec 18             	sub    esp,0x18
  10031d:	8b 15 00 b0 10 00    	mov    edx,DWORD PTR ds:0x10b000
  100323:	8d 45 e8             	lea    eax,[ebp-0x18]
  100326:	83 ec 08             	sub    esp,0x8
  100329:	52                   	push   edx
  10032a:	50                   	push   eax
  10032b:	e8 9c fd ff ff       	call   1000cc <elf_from_multiboot>
  100330:	83 c4 0c             	add    esp,0xc
  100333:	8b 45 e8             	mov    eax,DWORD PTR [ebp-0x18]
  100336:	a3 04 b0 10 00       	mov    ds:0x10b004,eax
  10033b:	8b 45 ec             	mov    eax,DWORD PTR [ebp-0x14]
  10033e:	a3 08 b0 10 00       	mov    ds:0x10b008,eax
  100343:	8b 45 f0             	mov    eax,DWORD PTR [ebp-0x10]
  100346:	a3 0c b0 10 00       	mov    ds:0x10b00c,eax
  10034b:	8b 45 f4             	mov    eax,DWORD PTR [ebp-0xc]
  10034e:	a3 10 b0 10 00       	mov    ds:0x10b010,eax
  100353:	90                   	nop
  100354:	c9                   	leave  
  100355:	c3                   	ret    

00100356 <print_cur_status>:
  100356:	55                   	push   ebp
  100357:	89 e5                	mov    ebp,esp
  100359:	83 ec 18             	sub    esp,0x18
  10035c:	8c 4d f6             	mov    WORD PTR [ebp-0xa],cs
  10035f:	8c 5d f4             	mov    WORD PTR [ebp-0xc],ds
  100362:	8c 45 f2             	mov    WORD PTR [ebp-0xe],es
  100365:	8c 55 f0             	mov    WORD PTR [ebp-0x10],ss
  100368:	0f b7 45 f6          	movzx  eax,WORD PTR [ebp-0xa]
  10036c:	0f b7 c0             	movzx  eax,ax
  10036f:	83 e0 03             	and    eax,0x3
  100372:	89 c2                	mov    edx,eax
  100374:	a1 14 b0 10 00       	mov    eax,ds:0x10b014
  100379:	83 ec 04             	sub    esp,0x4
  10037c:	52                   	push   edx
  10037d:	50                   	push   eax
  10037e:	68 67 20 10 00       	push   0x102067
  100383:	e8 3d 01 00 00       	call   1004c5 <printk>
  100388:	83 c4 10             	add    esp,0x10
  10038b:	0f b7 45 f6          	movzx  eax,WORD PTR [ebp-0xa]
  10038f:	0f b7 d0             	movzx  edx,ax
  100392:	a1 14 b0 10 00       	mov    eax,ds:0x10b014
  100397:	83 ec 04             	sub    esp,0x4
  10039a:	52                   	push   edx
  10039b:	50                   	push   eax
  10039c:	68 75 20 10 00       	push   0x102075
  1003a1:	e8 1f 01 00 00       	call   1004c5 <printk>
  1003a6:	83 c4 10             	add    esp,0x10
  1003a9:	0f b7 45 f4          	movzx  eax,WORD PTR [ebp-0xc]
  1003ad:	0f b7 d0             	movzx  edx,ax
  1003b0:	a1 14 b0 10 00       	mov    eax,ds:0x10b014
  1003b5:	83 ec 04             	sub    esp,0x4
  1003b8:	52                   	push   edx
  1003b9:	50                   	push   eax
  1003ba:	68 83 20 10 00       	push   0x102083
  1003bf:	e8 01 01 00 00       	call   1004c5 <printk>
  1003c4:	83 c4 10             	add    esp,0x10
  1003c7:	0f b7 45 f2          	movzx  eax,WORD PTR [ebp-0xe]
  1003cb:	0f b7 d0             	movzx  edx,ax
  1003ce:	a1 14 b0 10 00       	mov    eax,ds:0x10b014
  1003d3:	83 ec 04             	sub    esp,0x4
  1003d6:	52                   	push   edx
  1003d7:	50                   	push   eax
  1003d8:	68 91 20 10 00       	push   0x102091
  1003dd:	e8 e3 00 00 00       	call   1004c5 <printk>
  1003e2:	83 c4 10             	add    esp,0x10
  1003e5:	0f b7 45 f0          	movzx  eax,WORD PTR [ebp-0x10]
  1003e9:	0f b7 d0             	movzx  edx,ax
  1003ec:	a1 14 b0 10 00       	mov    eax,ds:0x10b014
  1003f1:	83 ec 04             	sub    esp,0x4
  1003f4:	52                   	push   edx
  1003f5:	50                   	push   eax
  1003f6:	68 9f 20 10 00       	push   0x10209f
  1003fb:	e8 c5 00 00 00       	call   1004c5 <printk>
  100400:	83 c4 10             	add    esp,0x10
  100403:	a1 14 b0 10 00       	mov    eax,ds:0x10b014
  100408:	83 c0 01             	add    eax,0x1
  10040b:	a3 14 b0 10 00       	mov    ds:0x10b014,eax
  100410:	90                   	nop
  100411:	c9                   	leave  
  100412:	c3                   	ret    

00100413 <panic>:
  100413:	55                   	push   ebp
  100414:	89 e5                	mov    ebp,esp
  100416:	83 ec 08             	sub    esp,0x8
  100419:	83 ec 08             	sub    esp,0x8
  10041c:	ff 75 08             	push   DWORD PTR [ebp+0x8]
  10041f:	68 ad 20 10 00       	push   0x1020ad
  100424:	e8 9c 00 00 00       	call   1004c5 <printk>
  100429:	83 c4 10             	add    esp,0x10
  10042c:	e8 12 00 00 00       	call   100443 <print_stack_trace>
  100431:	83 ec 0c             	sub    esp,0xc
  100434:	68 c3 20 10 00       	push   0x1020c3
  100439:	e8 87 00 00 00       	call   1004c5 <printk>
  10043e:	83 c4 10             	add    esp,0x10
  100441:	eb fe                	jmp    100441 <panic+0x2e>

00100443 <print_stack_trace>:
  100443:	55                   	push   ebp
  100444:	89 e5                	mov    ebp,esp
  100446:	83 ec 18             	sub    esp,0x18
  100449:	89 e8                	mov    eax,ebp
  10044b:	89 45 f4             	mov    DWORD PTR [ebp-0xc],eax
  10044e:	eb 40                	jmp    100490 <print_stack_trace+0x4d>
  100450:	8b 45 f4             	mov    eax,DWORD PTR [ebp-0xc]
  100453:	83 c0 04             	add    eax,0x4
  100456:	89 45 f0             	mov    DWORD PTR [ebp-0x10],eax
  100459:	8b 45 f0             	mov    eax,DWORD PTR [ebp-0x10]
  10045c:	8b 00                	mov    eax,DWORD PTR [eax]
  10045e:	83 ec 08             	sub    esp,0x8
  100461:	68 04 b0 10 00       	push   0x10b004
  100466:	50                   	push   eax
  100467:	e8 07 fe ff ff       	call   100273 <elf_lookup_symbol>
  10046c:	83 c4 10             	add    esp,0x10
  10046f:	89 c2                	mov    edx,eax
  100471:	8b 45 f0             	mov    eax,DWORD PTR [ebp-0x10]
  100474:	8b 00                	mov    eax,DWORD PTR [eax]
  100476:	83 ec 04             	sub    esp,0x4
  100479:	52                   	push   edx
  10047a:	50                   	push   eax
  10047b:	68 c8 20 10 00       	push   0x1020c8
  100480:	e8 40 00 00 00       	call   1004c5 <printk>
  100485:	83 c4 10             	add    esp,0x10
  100488:	8b 45 f4             	mov    eax,DWORD PTR [ebp-0xc]
  10048b:	8b 00                	mov    eax,DWORD PTR [eax]
  10048d:	89 45 f4             	mov    DWORD PTR [ebp-0xc],eax
  100490:	83 7d f4 00          	cmp    DWORD PTR [ebp-0xc],0x0
  100494:	75 ba                	jne    100450 <print_stack_trace+0xd>
  100496:	90                   	nop
  100497:	c9                   	leave  
  100498:	c3                   	ret    

00100499 <strlen>:
  100499:	55                   	push   ebp
  10049a:	89 e5                	mov    ebp,esp
  10049c:	83 ec 10             	sub    esp,0x10
  10049f:	8b 45 08             	mov    eax,DWORD PTR [ebp+0x8]
  1004a2:	89 45 fc             	mov    DWORD PTR [ebp-0x4],eax
  1004a5:	90                   	nop
  1004a6:	8b 45 fc             	mov    eax,DWORD PTR [ebp-0x4]
  1004a9:	8d 50 01             	lea    edx,[eax+0x1]
  1004ac:	89 55 fc             	mov    DWORD PTR [ebp-0x4],edx
  1004af:	0f b6 00             	movzx  eax,BYTE PTR [eax]
  1004b2:	84 c0                	test   al,al
  1004b4:	75 f0                	jne    1004a6 <strlen+0xd>
  1004b6:	8b 55 fc             	mov    edx,DWORD PTR [ebp-0x4]
  1004b9:	8b 45 08             	mov    eax,DWORD PTR [ebp+0x8]
  1004bc:	29 c2                	sub    edx,eax
  1004be:	89 d0                	mov    eax,edx
  1004c0:	83 e8 01             	sub    eax,0x1
  1004c3:	c9                   	leave  
  1004c4:	c3                   	ret    

001004c5 <printk>:
  1004c5:	55                   	push   ebp
  1004c6:	89 e5                	mov    ebp,esp
  1004c8:	83 ec 18             	sub    esp,0x18
  1004cb:	8d 45 0c             	lea    eax,[ebp+0xc]
  1004ce:	89 45 f0             	mov    DWORD PTR [ebp-0x10],eax
  1004d1:	8b 45 f0             	mov    eax,DWORD PTR [ebp-0x10]
  1004d4:	83 ec 04             	sub    esp,0x4
  1004d7:	50                   	push   eax
  1004d8:	ff 75 08             	push   DWORD PTR [ebp+0x8]
  1004db:	68 20 b0 10 00       	push   0x10b020
  1004e0:	e8 ed 02 00 00       	call   1007d2 <vsprintf>
  1004e5:	83 c4 10             	add    esp,0x10
  1004e8:	89 45 f4             	mov    DWORD PTR [ebp-0xc],eax
  1004eb:	8b 45 f4             	mov    eax,DWORD PTR [ebp-0xc]
  1004ee:	05 20 b0 10 00       	add    eax,0x10b020
  1004f3:	c6 00 00             	mov    BYTE PTR [eax],0x0
  1004f6:	83 ec 0c             	sub    esp,0xc
  1004f9:	68 20 b0 10 00       	push   0x10b020
  1004fe:	e8 83 09 00 00       	call   100e86 <console_write>
  100503:	83 c4 10             	add    esp,0x10
  100506:	90                   	nop
  100507:	c9                   	leave  
  100508:	c3                   	ret    

00100509 <printk_color>:
  100509:	55                   	push   ebp
  10050a:	89 e5                	mov    ebp,esp
  10050c:	83 ec 18             	sub    esp,0x18
  10050f:	8d 45 14             	lea    eax,[ebp+0x14]
  100512:	89 45 f0             	mov    DWORD PTR [ebp-0x10],eax
  100515:	8b 45 f0             	mov    eax,DWORD PTR [ebp-0x10]
  100518:	83 ec 04             	sub    esp,0x4
  10051b:	50                   	push   eax
  10051c:	ff 75 10             	push   DWORD PTR [ebp+0x10]
  10051f:	68 20 b4 10 00       	push   0x10b420
  100524:	e8 a9 02 00 00       	call   1007d2 <vsprintf>
  100529:	83 c4 10             	add    esp,0x10
  10052c:	89 45 f4             	mov    DWORD PTR [ebp-0xc],eax
  10052f:	8b 45 f4             	mov    eax,DWORD PTR [ebp-0xc]
  100532:	05 20 b4 10 00       	add    eax,0x10b420
  100537:	c6 00 00             	mov    BYTE PTR [eax],0x0
  10053a:	83 ec 04             	sub    esp,0x4
  10053d:	ff 75 0c             	push   DWORD PTR [ebp+0xc]
  100540:	ff 75 08             	push   DWORD PTR [ebp+0x8]
  100543:	68 20 b4 10 00       	push   0x10b420
  100548:	e8 6d 09 00 00       	call   100eba <console_write_color>
  10054d:	83 c4 10             	add    esp,0x10
  100550:	90                   	nop
  100551:	c9                   	leave  
  100552:	c3                   	ret    

00100553 <skip_atoi>:
  100553:	55                   	push   ebp
  100554:	89 e5                	mov    ebp,esp
  100556:	53                   	push   ebx
  100557:	83 ec 10             	sub    esp,0x10
  10055a:	c7 45 f8 00 00 00 00 	mov    DWORD PTR [ebp-0x8],0x0
  100561:	eb 29                	jmp    10058c <skip_atoi+0x39>
  100563:	8b 55 f8             	mov    edx,DWORD PTR [ebp-0x8]
  100566:	89 d0                	mov    eax,edx
  100568:	c1 e0 02             	shl    eax,0x2
  10056b:	01 d0                	add    eax,edx
  10056d:	01 c0                	add    eax,eax
  10056f:	89 c3                	mov    ebx,eax
  100571:	8b 45 08             	mov    eax,DWORD PTR [ebp+0x8]
  100574:	8b 00                	mov    eax,DWORD PTR [eax]
  100576:	8d 48 01             	lea    ecx,[eax+0x1]
  100579:	8b 55 08             	mov    edx,DWORD PTR [ebp+0x8]
  10057c:	89 0a                	mov    DWORD PTR [edx],ecx
  10057e:	0f b6 00             	movzx  eax,BYTE PTR [eax]
  100581:	0f be c0             	movsx  eax,al
  100584:	01 d8                	add    eax,ebx
  100586:	83 e8 30             	sub    eax,0x30
  100589:	89 45 f8             	mov    DWORD PTR [ebp-0x8],eax
  10058c:	8b 45 08             	mov    eax,DWORD PTR [ebp+0x8]
  10058f:	8b 00                	mov    eax,DWORD PTR [eax]
  100591:	0f b6 00             	movzx  eax,BYTE PTR [eax]
  100594:	3c 2f                	cmp    al,0x2f
  100596:	7e 0c                	jle    1005a4 <skip_atoi+0x51>
  100598:	8b 45 08             	mov    eax,DWORD PTR [ebp+0x8]
  10059b:	8b 00                	mov    eax,DWORD PTR [eax]
  10059d:	0f b6 00             	movzx  eax,BYTE PTR [eax]
  1005a0:	3c 39                	cmp    al,0x39
  1005a2:	7e bf                	jle    100563 <skip_atoi+0x10>
  1005a4:	8b 45 f8             	mov    eax,DWORD PTR [ebp-0x8]
  1005a7:	83 c4 10             	add    esp,0x10
  1005aa:	5b                   	pop    ebx
  1005ab:	5d                   	pop    ebp
  1005ac:	c3                   	ret    

001005ad <number>:
  1005ad:	55                   	push   ebp
  1005ae:	89 e5                	mov    ebp,esp
  1005b0:	83 ec 40             	sub    esp,0x40
  1005b3:	c7 45 f8 d8 20 10 00 	mov    DWORD PTR [ebp-0x8],0x1020d8
  1005ba:	8b 45 1c             	mov    eax,DWORD PTR [ebp+0x1c]
  1005bd:	83 e0 40             	and    eax,0x40
  1005c0:	85 c0                	test   eax,eax
  1005c2:	74 07                	je     1005cb <number+0x1e>
  1005c4:	c7 45 f8 00 21 10 00 	mov    DWORD PTR [ebp-0x8],0x102100
  1005cb:	8b 45 1c             	mov    eax,DWORD PTR [ebp+0x1c]
  1005ce:	83 e0 10             	and    eax,0x10
  1005d1:	85 c0                	test   eax,eax
  1005d3:	74 04                	je     1005d9 <number+0x2c>
  1005d5:	83 65 1c fe          	and    DWORD PTR [ebp+0x1c],0xfffffffe
  1005d9:	83 7d 10 01          	cmp    DWORD PTR [ebp+0x10],0x1
  1005dd:	7e 06                	jle    1005e5 <number+0x38>
  1005df:	83 7d 10 24          	cmp    DWORD PTR [ebp+0x10],0x24
  1005e3:	7e 0a                	jle    1005ef <number+0x42>
  1005e5:	b8 00 00 00 00       	mov    eax,0x0
  1005ea:	e9 e1 01 00 00       	jmp    1007d0 <number+0x223>
  1005ef:	8b 45 1c             	mov    eax,DWORD PTR [ebp+0x1c]
  1005f2:	83 e0 01             	and    eax,0x1
  1005f5:	85 c0                	test   eax,eax
  1005f7:	74 07                	je     100600 <number+0x53>
  1005f9:	b8 30 00 00 00       	mov    eax,0x30
  1005fe:	eb 05                	jmp    100605 <number+0x58>
  100600:	b8 20 00 00 00       	mov    eax,0x20
  100605:	88 45 f3             	mov    BYTE PTR [ebp-0xd],al
  100608:	8b 45 1c             	mov    eax,DWORD PTR [ebp+0x1c]
  10060b:	83 e0 02             	and    eax,0x2
  10060e:	85 c0                	test   eax,eax
  100610:	74 0f                	je     100621 <number+0x74>
  100612:	83 7d 0c 00          	cmp    DWORD PTR [ebp+0xc],0x0
  100616:	79 09                	jns    100621 <number+0x74>
  100618:	c6 45 ff 2d          	mov    BYTE PTR [ebp-0x1],0x2d
  10061c:	f7 5d 0c             	neg    DWORD PTR [ebp+0xc]
  10061f:	eb 1d                	jmp    10063e <number+0x91>
  100621:	8b 45 1c             	mov    eax,DWORD PTR [ebp+0x1c]
  100624:	83 e0 04             	and    eax,0x4
  100627:	85 c0                	test   eax,eax
  100629:	75 0b                	jne    100636 <number+0x89>
  10062b:	8b 45 1c             	mov    eax,DWORD PTR [ebp+0x1c]
  10062e:	c1 e0 02             	shl    eax,0x2
  100631:	83 e0 20             	and    eax,0x20
  100634:	eb 05                	jmp    10063b <number+0x8e>
  100636:	b8 2b 00 00 00       	mov    eax,0x2b
  10063b:	88 45 ff             	mov    BYTE PTR [ebp-0x1],al
  10063e:	80 7d ff 00          	cmp    BYTE PTR [ebp-0x1],0x0
  100642:	74 04                	je     100648 <number+0x9b>
  100644:	83 6d 14 01          	sub    DWORD PTR [ebp+0x14],0x1
  100648:	8b 45 1c             	mov    eax,DWORD PTR [ebp+0x1c]
  10064b:	83 e0 20             	and    eax,0x20
  10064e:	85 c0                	test   eax,eax
  100650:	74 16                	je     100668 <number+0xbb>
  100652:	83 7d 10 10          	cmp    DWORD PTR [ebp+0x10],0x10
  100656:	75 06                	jne    10065e <number+0xb1>
  100658:	83 6d 14 02          	sub    DWORD PTR [ebp+0x14],0x2
  10065c:	eb 0a                	jmp    100668 <number+0xbb>
  10065e:	83 7d 10 08          	cmp    DWORD PTR [ebp+0x10],0x8
  100662:	75 04                	jne    100668 <number+0xbb>
  100664:	83 6d 14 01          	sub    DWORD PTR [ebp+0x14],0x1
  100668:	c7 45 f4 00 00 00 00 	mov    DWORD PTR [ebp-0xc],0x0
  10066f:	83 7d 0c 00          	cmp    DWORD PTR [ebp+0xc],0x0
  100673:	75 3e                	jne    1006b3 <number+0x106>
  100675:	8b 45 f4             	mov    eax,DWORD PTR [ebp-0xc]
  100678:	8d 50 01             	lea    edx,[eax+0x1]
  10067b:	89 55 f4             	mov    DWORD PTR [ebp-0xc],edx
  10067e:	c6 44 05 c8 30       	mov    BYTE PTR [ebp+eax*1-0x38],0x30
  100683:	eb 34                	jmp    1006b9 <number+0x10c>
  100685:	8b 45 0c             	mov    eax,DWORD PTR [ebp+0xc]
  100688:	ba 00 00 00 00       	mov    edx,0x0
  10068d:	8b 4d 10             	mov    ecx,DWORD PTR [ebp+0x10]
  100690:	f7 f1                	div    ecx
  100692:	89 45 0c             	mov    DWORD PTR [ebp+0xc],eax
  100695:	89 55 ec             	mov    DWORD PTR [ebp-0x14],edx
  100698:	8b 45 ec             	mov    eax,DWORD PTR [ebp-0x14]
  10069b:	89 c2                	mov    edx,eax
  10069d:	8b 45 f8             	mov    eax,DWORD PTR [ebp-0x8]
  1006a0:	8d 0c 02             	lea    ecx,[edx+eax*1]
  1006a3:	8b 45 f4             	mov    eax,DWORD PTR [ebp-0xc]
  1006a6:	8d 50 01             	lea    edx,[eax+0x1]
  1006a9:	89 55 f4             	mov    DWORD PTR [ebp-0xc],edx
  1006ac:	0f b6 11             	movzx  edx,BYTE PTR [ecx]
  1006af:	88 54 05 c8          	mov    BYTE PTR [ebp+eax*1-0x38],dl
  1006b3:	83 7d 0c 00          	cmp    DWORD PTR [ebp+0xc],0x0
  1006b7:	75 cc                	jne    100685 <number+0xd8>
  1006b9:	8b 45 f4             	mov    eax,DWORD PTR [ebp-0xc]
  1006bc:	3b 45 18             	cmp    eax,DWORD PTR [ebp+0x18]
  1006bf:	7e 06                	jle    1006c7 <number+0x11a>
  1006c1:	8b 45 f4             	mov    eax,DWORD PTR [ebp-0xc]
  1006c4:	89 45 18             	mov    DWORD PTR [ebp+0x18],eax
  1006c7:	8b 45 18             	mov    eax,DWORD PTR [ebp+0x18]
  1006ca:	29 45 14             	sub    DWORD PTR [ebp+0x14],eax
  1006cd:	8b 45 1c             	mov    eax,DWORD PTR [ebp+0x1c]
  1006d0:	83 e0 11             	and    eax,0x11
  1006d3:	85 c0                	test   eax,eax
  1006d5:	75 1b                	jne    1006f2 <number+0x145>
  1006d7:	eb 0c                	jmp    1006e5 <number+0x138>
  1006d9:	8b 45 08             	mov    eax,DWORD PTR [ebp+0x8]
  1006dc:	8d 50 01             	lea    edx,[eax+0x1]
  1006df:	89 55 08             	mov    DWORD PTR [ebp+0x8],edx
  1006e2:	c6 00 20             	mov    BYTE PTR [eax],0x20
  1006e5:	8b 45 14             	mov    eax,DWORD PTR [ebp+0x14]
  1006e8:	8d 50 ff             	lea    edx,[eax-0x1]
  1006eb:	89 55 14             	mov    DWORD PTR [ebp+0x14],edx
  1006ee:	85 c0                	test   eax,eax
  1006f0:	7f e7                	jg     1006d9 <number+0x12c>
  1006f2:	80 7d ff 00          	cmp    BYTE PTR [ebp-0x1],0x0
  1006f6:	74 0f                	je     100707 <number+0x15a>
  1006f8:	8b 45 08             	mov    eax,DWORD PTR [ebp+0x8]
  1006fb:	8d 50 01             	lea    edx,[eax+0x1]
  1006fe:	89 55 08             	mov    DWORD PTR [ebp+0x8],edx
  100701:	0f b6 55 ff          	movzx  edx,BYTE PTR [ebp-0x1]
  100705:	88 10                	mov    BYTE PTR [eax],dl
  100707:	8b 45 1c             	mov    eax,DWORD PTR [ebp+0x1c]
  10070a:	83 e0 20             	and    eax,0x20
  10070d:	85 c0                	test   eax,eax
  10070f:	74 38                	je     100749 <number+0x19c>
  100711:	83 7d 10 08          	cmp    DWORD PTR [ebp+0x10],0x8
  100715:	75 0e                	jne    100725 <number+0x178>
  100717:	8b 45 08             	mov    eax,DWORD PTR [ebp+0x8]
  10071a:	8d 50 01             	lea    edx,[eax+0x1]
  10071d:	89 55 08             	mov    DWORD PTR [ebp+0x8],edx
  100720:	c6 00 30             	mov    BYTE PTR [eax],0x30
  100723:	eb 24                	jmp    100749 <number+0x19c>
  100725:	83 7d 10 10          	cmp    DWORD PTR [ebp+0x10],0x10
  100729:	75 1e                	jne    100749 <number+0x19c>
  10072b:	8b 45 08             	mov    eax,DWORD PTR [ebp+0x8]
  10072e:	8d 50 01             	lea    edx,[eax+0x1]
  100731:	89 55 08             	mov    DWORD PTR [ebp+0x8],edx
  100734:	c6 00 30             	mov    BYTE PTR [eax],0x30
  100737:	8b 45 08             	mov    eax,DWORD PTR [ebp+0x8]
  10073a:	8d 50 01             	lea    edx,[eax+0x1]
  10073d:	89 55 08             	mov    DWORD PTR [ebp+0x8],edx
  100740:	8b 55 f8             	mov    edx,DWORD PTR [ebp-0x8]
  100743:	0f b6 52 21          	movzx  edx,BYTE PTR [edx+0x21]
  100747:	88 10                	mov    BYTE PTR [eax],dl
  100749:	8b 45 1c             	mov    eax,DWORD PTR [ebp+0x1c]
  10074c:	83 e0 10             	and    eax,0x10
  10074f:	85 c0                	test   eax,eax
  100751:	75 2c                	jne    10077f <number+0x1d2>
  100753:	eb 0f                	jmp    100764 <number+0x1b7>
  100755:	8b 45 08             	mov    eax,DWORD PTR [ebp+0x8]
  100758:	8d 50 01             	lea    edx,[eax+0x1]
  10075b:	89 55 08             	mov    DWORD PTR [ebp+0x8],edx
  10075e:	0f b6 55 f3          	movzx  edx,BYTE PTR [ebp-0xd]
  100762:	88 10                	mov    BYTE PTR [eax],dl
  100764:	8b 45 14             	mov    eax,DWORD PTR [ebp+0x14]
  100767:	8d 50 ff             	lea    edx,[eax-0x1]
  10076a:	89 55 14             	mov    DWORD PTR [ebp+0x14],edx
  10076d:	85 c0                	test   eax,eax
  10076f:	7f e4                	jg     100755 <number+0x1a8>
  100771:	eb 0c                	jmp    10077f <number+0x1d2>
  100773:	8b 45 08             	mov    eax,DWORD PTR [ebp+0x8]
  100776:	8d 50 01             	lea    edx,[eax+0x1]
  100779:	89 55 08             	mov    DWORD PTR [ebp+0x8],edx
  10077c:	c6 00 30             	mov    BYTE PTR [eax],0x30
  10077f:	8b 45 18             	mov    eax,DWORD PTR [ebp+0x18]
  100782:	8d 50 ff             	lea    edx,[eax-0x1]
  100785:	89 55 18             	mov    DWORD PTR [ebp+0x18],edx
  100788:	39 45 f4             	cmp    DWORD PTR [ebp-0xc],eax
  10078b:	7c e6                	jl     100773 <number+0x1c6>
  10078d:	eb 16                	jmp    1007a5 <number+0x1f8>
  10078f:	8b 45 08             	mov    eax,DWORD PTR [ebp+0x8]
  100792:	8d 50 01             	lea    edx,[eax+0x1]
  100795:	89 55 08             	mov    DWORD PTR [ebp+0x8],edx
  100798:	8d 4d c8             	lea    ecx,[ebp-0x38]
  10079b:	8b 55 f4             	mov    edx,DWORD PTR [ebp-0xc]
  10079e:	01 ca                	add    edx,ecx
  1007a0:	0f b6 12             	movzx  edx,BYTE PTR [edx]
  1007a3:	88 10                	mov    BYTE PTR [eax],dl
  1007a5:	8b 45 f4             	mov    eax,DWORD PTR [ebp-0xc]
  1007a8:	8d 50 ff             	lea    edx,[eax-0x1]
  1007ab:	89 55 f4             	mov    DWORD PTR [ebp-0xc],edx
  1007ae:	85 c0                	test   eax,eax
  1007b0:	7f dd                	jg     10078f <number+0x1e2>
  1007b2:	eb 0c                	jmp    1007c0 <number+0x213>
  1007b4:	8b 45 08             	mov    eax,DWORD PTR [ebp+0x8]
  1007b7:	8d 50 01             	lea    edx,[eax+0x1]
  1007ba:	89 55 08             	mov    DWORD PTR [ebp+0x8],edx
  1007bd:	c6 00 20             	mov    BYTE PTR [eax],0x20
  1007c0:	8b 45 14             	mov    eax,DWORD PTR [ebp+0x14]
  1007c3:	8d 50 ff             	lea    edx,[eax-0x1]
  1007c6:	89 55 14             	mov    DWORD PTR [ebp+0x14],edx
  1007c9:	85 c0                	test   eax,eax
  1007cb:	7f e7                	jg     1007b4 <number+0x207>
  1007cd:	8b 45 08             	mov    eax,DWORD PTR [ebp+0x8]
  1007d0:	c9                   	leave  
  1007d1:	c3                   	ret    

001007d2 <vsprintf>:
  1007d2:	55                   	push   ebp
  1007d3:	89 e5                	mov    ebp,esp
  1007d5:	83 ec 20             	sub    esp,0x20
  1007d8:	8b 45 08             	mov    eax,DWORD PTR [ebp+0x8]
  1007db:	89 45 f4             	mov    DWORD PTR [ebp-0xc],eax
  1007de:	e9 af 03 00 00       	jmp    100b92 <vsprintf+0x3c0>
  1007e3:	8b 45 0c             	mov    eax,DWORD PTR [ebp+0xc]
  1007e6:	0f b6 00             	movzx  eax,BYTE PTR [eax]
  1007e9:	3c 25                	cmp    al,0x25
  1007eb:	74 16                	je     100803 <vsprintf+0x31>
  1007ed:	8b 55 0c             	mov    edx,DWORD PTR [ebp+0xc]
  1007f0:	8b 45 f4             	mov    eax,DWORD PTR [ebp-0xc]
  1007f3:	8d 48 01             	lea    ecx,[eax+0x1]
  1007f6:	89 4d f4             	mov    DWORD PTR [ebp-0xc],ecx
  1007f9:	0f b6 12             	movzx  edx,BYTE PTR [edx]
  1007fc:	88 10                	mov    BYTE PTR [eax],dl
  1007fe:	e9 86 03 00 00       	jmp    100b89 <vsprintf+0x3b7>
  100803:	c7 45 ec 00 00 00 00 	mov    DWORD PTR [ebp-0x14],0x0
  10080a:	8b 45 0c             	mov    eax,DWORD PTR [ebp+0xc]
  10080d:	83 c0 01             	add    eax,0x1
  100810:	89 45 0c             	mov    DWORD PTR [ebp+0xc],eax
  100813:	8b 45 0c             	mov    eax,DWORD PTR [ebp+0xc]
  100816:	0f b6 00             	movzx  eax,BYTE PTR [eax]
  100819:	0f be c0             	movsx  eax,al
  10081c:	83 e8 20             	sub    eax,0x20
  10081f:	83 f8 10             	cmp    eax,0x10
  100822:	77 27                	ja     10084b <vsprintf+0x79>
  100824:	8b 04 85 28 21 10 00 	mov    eax,DWORD PTR [eax*4+0x102128]
  10082b:	ff e0                	jmp    eax
  10082d:	83 4d ec 10          	or     DWORD PTR [ebp-0x14],0x10
  100831:	eb d7                	jmp    10080a <vsprintf+0x38>
  100833:	83 4d ec 04          	or     DWORD PTR [ebp-0x14],0x4
  100837:	eb d1                	jmp    10080a <vsprintf+0x38>
  100839:	83 4d ec 08          	or     DWORD PTR [ebp-0x14],0x8
  10083d:	eb cb                	jmp    10080a <vsprintf+0x38>
  10083f:	83 4d ec 20          	or     DWORD PTR [ebp-0x14],0x20
  100843:	eb c5                	jmp    10080a <vsprintf+0x38>
  100845:	83 4d ec 01          	or     DWORD PTR [ebp-0x14],0x1
  100849:	eb bf                	jmp    10080a <vsprintf+0x38>
  10084b:	c7 45 e8 ff ff ff ff 	mov    DWORD PTR [ebp-0x18],0xffffffff
  100852:	8b 45 0c             	mov    eax,DWORD PTR [ebp+0xc]
  100855:	0f b6 00             	movzx  eax,BYTE PTR [eax]
  100858:	3c 2f                	cmp    al,0x2f
  10085a:	7e 1b                	jle    100877 <vsprintf+0xa5>
  10085c:	8b 45 0c             	mov    eax,DWORD PTR [ebp+0xc]
  10085f:	0f b6 00             	movzx  eax,BYTE PTR [eax]
  100862:	3c 39                	cmp    al,0x39
  100864:	7f 11                	jg     100877 <vsprintf+0xa5>
  100866:	8d 45 0c             	lea    eax,[ebp+0xc]
  100869:	50                   	push   eax
  10086a:	e8 e4 fc ff ff       	call   100553 <skip_atoi>
  10086f:	83 c4 04             	add    esp,0x4
  100872:	89 45 e8             	mov    DWORD PTR [ebp-0x18],eax
  100875:	eb 25                	jmp    10089c <vsprintf+0xca>
  100877:	8b 45 0c             	mov    eax,DWORD PTR [ebp+0xc]
  10087a:	0f b6 00             	movzx  eax,BYTE PTR [eax]
  10087d:	3c 2a                	cmp    al,0x2a
  10087f:	75 1b                	jne    10089c <vsprintf+0xca>
  100881:	8b 45 10             	mov    eax,DWORD PTR [ebp+0x10]
  100884:	8d 50 04             	lea    edx,[eax+0x4]
  100887:	89 55 10             	mov    DWORD PTR [ebp+0x10],edx
  10088a:	8b 00                	mov    eax,DWORD PTR [eax]
  10088c:	89 45 e8             	mov    DWORD PTR [ebp-0x18],eax
  10088f:	83 7d e8 00          	cmp    DWORD PTR [ebp-0x18],0x0
  100893:	79 07                	jns    10089c <vsprintf+0xca>
  100895:	f7 5d e8             	neg    DWORD PTR [ebp-0x18]
  100898:	83 4d ec 10          	or     DWORD PTR [ebp-0x14],0x10
  10089c:	c7 45 e4 ff ff ff ff 	mov    DWORD PTR [ebp-0x1c],0xffffffff
  1008a3:	8b 45 0c             	mov    eax,DWORD PTR [ebp+0xc]
  1008a6:	0f b6 00             	movzx  eax,BYTE PTR [eax]
  1008a9:	3c 2e                	cmp    al,0x2e
  1008ab:	75 53                	jne    100900 <vsprintf+0x12e>
  1008ad:	8b 45 0c             	mov    eax,DWORD PTR [ebp+0xc]
  1008b0:	83 c0 01             	add    eax,0x1
  1008b3:	89 45 0c             	mov    DWORD PTR [ebp+0xc],eax
  1008b6:	8b 45 0c             	mov    eax,DWORD PTR [ebp+0xc]
  1008b9:	0f b6 00             	movzx  eax,BYTE PTR [eax]
  1008bc:	3c 2f                	cmp    al,0x2f
  1008be:	7e 1b                	jle    1008db <vsprintf+0x109>
  1008c0:	8b 45 0c             	mov    eax,DWORD PTR [ebp+0xc]
  1008c3:	0f b6 00             	movzx  eax,BYTE PTR [eax]
  1008c6:	3c 39                	cmp    al,0x39
  1008c8:	7f 11                	jg     1008db <vsprintf+0x109>
  1008ca:	8d 45 0c             	lea    eax,[ebp+0xc]
  1008cd:	50                   	push   eax
  1008ce:	e8 80 fc ff ff       	call   100553 <skip_atoi>
  1008d3:	83 c4 04             	add    esp,0x4
  1008d6:	89 45 e4             	mov    DWORD PTR [ebp-0x1c],eax
  1008d9:	eb 18                	jmp    1008f3 <vsprintf+0x121>
  1008db:	8b 45 0c             	mov    eax,DWORD PTR [ebp+0xc]
  1008de:	0f b6 00             	movzx  eax,BYTE PTR [eax]
  1008e1:	3c 2a                	cmp    al,0x2a
  1008e3:	75 0e                	jne    1008f3 <vsprintf+0x121>
  1008e5:	8b 45 10             	mov    eax,DWORD PTR [ebp+0x10]
  1008e8:	8d 50 04             	lea    edx,[eax+0x4]
  1008eb:	89 55 10             	mov    DWORD PTR [ebp+0x10],edx
  1008ee:	8b 00                	mov    eax,DWORD PTR [eax]
  1008f0:	89 45 e4             	mov    DWORD PTR [ebp-0x1c],eax
  1008f3:	83 7d e4 00          	cmp    DWORD PTR [ebp-0x1c],0x0
  1008f7:	79 07                	jns    100900 <vsprintf+0x12e>
  1008f9:	c7 45 e4 00 00 00 00 	mov    DWORD PTR [ebp-0x1c],0x0
  100900:	8b 45 0c             	mov    eax,DWORD PTR [ebp+0xc]
  100903:	0f b6 00             	movzx  eax,BYTE PTR [eax]
  100906:	3c 68                	cmp    al,0x68
  100908:	74 14                	je     10091e <vsprintf+0x14c>
  10090a:	8b 45 0c             	mov    eax,DWORD PTR [ebp+0xc]
  10090d:	0f b6 00             	movzx  eax,BYTE PTR [eax]
  100910:	3c 6c                	cmp    al,0x6c
  100912:	74 0a                	je     10091e <vsprintf+0x14c>
  100914:	8b 45 0c             	mov    eax,DWORD PTR [ebp+0xc]
  100917:	0f b6 00             	movzx  eax,BYTE PTR [eax]
  10091a:	3c 4c                	cmp    al,0x4c
  10091c:	75 09                	jne    100927 <vsprintf+0x155>
  10091e:	8b 45 0c             	mov    eax,DWORD PTR [ebp+0xc]
  100921:	83 c0 01             	add    eax,0x1
  100924:	89 45 0c             	mov    DWORD PTR [ebp+0xc],eax
  100927:	8b 45 0c             	mov    eax,DWORD PTR [ebp+0xc]
  10092a:	0f b6 00             	movzx  eax,BYTE PTR [eax]
  10092d:	0f be c0             	movsx  eax,al
  100930:	83 e8 58             	sub    eax,0x58
  100933:	83 f8 20             	cmp    eax,0x20
  100936:	0f 87 10 02 00 00    	ja     100b4c <vsprintf+0x37a>
  10093c:	8b 04 85 6c 21 10 00 	mov    eax,DWORD PTR [eax*4+0x10216c]
  100943:	ff e0                	jmp    eax
  100945:	8b 45 ec             	mov    eax,DWORD PTR [ebp-0x14]
  100948:	83 e0 10             	and    eax,0x10
  10094b:	85 c0                	test   eax,eax
  10094d:	75 18                	jne    100967 <vsprintf+0x195>
  10094f:	eb 0c                	jmp    10095d <vsprintf+0x18b>
  100951:	8b 45 f4             	mov    eax,DWORD PTR [ebp-0xc]
  100954:	8d 50 01             	lea    edx,[eax+0x1]
  100957:	89 55 f4             	mov    DWORD PTR [ebp-0xc],edx
  10095a:	c6 00 20             	mov    BYTE PTR [eax],0x20
  10095d:	83 6d e8 01          	sub    DWORD PTR [ebp-0x18],0x1
  100961:	83 7d e8 00          	cmp    DWORD PTR [ebp-0x18],0x0
  100965:	7f ea                	jg     100951 <vsprintf+0x17f>
  100967:	8b 45 10             	mov    eax,DWORD PTR [ebp+0x10]
  10096a:	8d 50 04             	lea    edx,[eax+0x4]
  10096d:	89 55 10             	mov    DWORD PTR [ebp+0x10],edx
  100970:	8b 08                	mov    ecx,DWORD PTR [eax]
  100972:	8b 45 f4             	mov    eax,DWORD PTR [ebp-0xc]
  100975:	8d 50 01             	lea    edx,[eax+0x1]
  100978:	89 55 f4             	mov    DWORD PTR [ebp-0xc],edx
  10097b:	89 ca                	mov    edx,ecx
  10097d:	88 10                	mov    BYTE PTR [eax],dl
  10097f:	eb 0c                	jmp    10098d <vsprintf+0x1bb>
  100981:	8b 45 f4             	mov    eax,DWORD PTR [ebp-0xc]
  100984:	8d 50 01             	lea    edx,[eax+0x1]
  100987:	89 55 f4             	mov    DWORD PTR [ebp-0xc],edx
  10098a:	c6 00 20             	mov    BYTE PTR [eax],0x20
  10098d:	83 6d e8 01          	sub    DWORD PTR [ebp-0x18],0x1
  100991:	83 7d e8 00          	cmp    DWORD PTR [ebp-0x18],0x0
  100995:	7f ea                	jg     100981 <vsprintf+0x1af>
  100997:	e9 ed 01 00 00       	jmp    100b89 <vsprintf+0x3b7>
  10099c:	8b 45 10             	mov    eax,DWORD PTR [ebp+0x10]
  10099f:	8d 50 04             	lea    edx,[eax+0x4]
  1009a2:	89 55 10             	mov    DWORD PTR [ebp+0x10],edx
  1009a5:	8b 00                	mov    eax,DWORD PTR [eax]
  1009a7:	89 45 f0             	mov    DWORD PTR [ebp-0x10],eax
  1009aa:	ff 75 f0             	push   DWORD PTR [ebp-0x10]
  1009ad:	e8 e7 fa ff ff       	call   100499 <strlen>
  1009b2:	83 c4 04             	add    esp,0x4
  1009b5:	89 45 fc             	mov    DWORD PTR [ebp-0x4],eax
  1009b8:	83 7d e4 00          	cmp    DWORD PTR [ebp-0x1c],0x0
  1009bc:	79 08                	jns    1009c6 <vsprintf+0x1f4>
  1009be:	8b 45 fc             	mov    eax,DWORD PTR [ebp-0x4]
  1009c1:	89 45 e4             	mov    DWORD PTR [ebp-0x1c],eax
  1009c4:	eb 0e                	jmp    1009d4 <vsprintf+0x202>
  1009c6:	8b 45 fc             	mov    eax,DWORD PTR [ebp-0x4]
  1009c9:	3b 45 e4             	cmp    eax,DWORD PTR [ebp-0x1c]
  1009cc:	7e 06                	jle    1009d4 <vsprintf+0x202>
  1009ce:	8b 45 e4             	mov    eax,DWORD PTR [ebp-0x1c]
  1009d1:	89 45 fc             	mov    DWORD PTR [ebp-0x4],eax
  1009d4:	8b 45 ec             	mov    eax,DWORD PTR [ebp-0x14]
  1009d7:	83 e0 10             	and    eax,0x10
  1009da:	85 c0                	test   eax,eax
  1009dc:	75 1c                	jne    1009fa <vsprintf+0x228>
  1009de:	eb 0c                	jmp    1009ec <vsprintf+0x21a>
  1009e0:	8b 45 f4             	mov    eax,DWORD PTR [ebp-0xc]
  1009e3:	8d 50 01             	lea    edx,[eax+0x1]
  1009e6:	89 55 f4             	mov    DWORD PTR [ebp-0xc],edx
  1009e9:	c6 00 20             	mov    BYTE PTR [eax],0x20
  1009ec:	8b 45 e8             	mov    eax,DWORD PTR [ebp-0x18]
  1009ef:	8d 50 ff             	lea    edx,[eax-0x1]
  1009f2:	89 55 e8             	mov    DWORD PTR [ebp-0x18],edx
  1009f5:	39 45 fc             	cmp    DWORD PTR [ebp-0x4],eax
  1009f8:	7c e6                	jl     1009e0 <vsprintf+0x20e>
  1009fa:	c7 45 f8 00 00 00 00 	mov    DWORD PTR [ebp-0x8],0x0
  100a01:	eb 1b                	jmp    100a1e <vsprintf+0x24c>
  100a03:	8b 55 f0             	mov    edx,DWORD PTR [ebp-0x10]
  100a06:	8d 42 01             	lea    eax,[edx+0x1]
  100a09:	89 45 f0             	mov    DWORD PTR [ebp-0x10],eax
  100a0c:	8b 45 f4             	mov    eax,DWORD PTR [ebp-0xc]
  100a0f:	8d 48 01             	lea    ecx,[eax+0x1]
  100a12:	89 4d f4             	mov    DWORD PTR [ebp-0xc],ecx
  100a15:	0f b6 12             	movzx  edx,BYTE PTR [edx]
  100a18:	88 10                	mov    BYTE PTR [eax],dl
  100a1a:	83 45 f8 01          	add    DWORD PTR [ebp-0x8],0x1
  100a1e:	8b 45 f8             	mov    eax,DWORD PTR [ebp-0x8]
  100a21:	3b 45 fc             	cmp    eax,DWORD PTR [ebp-0x4]
  100a24:	7c dd                	jl     100a03 <vsprintf+0x231>
  100a26:	eb 0c                	jmp    100a34 <vsprintf+0x262>
  100a28:	8b 45 f4             	mov    eax,DWORD PTR [ebp-0xc]
  100a2b:	8d 50 01             	lea    edx,[eax+0x1]
  100a2e:	89 55 f4             	mov    DWORD PTR [ebp-0xc],edx
  100a31:	c6 00 20             	mov    BYTE PTR [eax],0x20
  100a34:	8b 45 e8             	mov    eax,DWORD PTR [ebp-0x18]
  100a37:	8d 50 ff             	lea    edx,[eax-0x1]
  100a3a:	89 55 e8             	mov    DWORD PTR [ebp-0x18],edx
  100a3d:	39 45 fc             	cmp    DWORD PTR [ebp-0x4],eax
  100a40:	7c e6                	jl     100a28 <vsprintf+0x256>
  100a42:	e9 42 01 00 00       	jmp    100b89 <vsprintf+0x3b7>
  100a47:	8b 45 10             	mov    eax,DWORD PTR [ebp+0x10]
  100a4a:	8d 50 04             	lea    edx,[eax+0x4]
  100a4d:	89 55 10             	mov    DWORD PTR [ebp+0x10],edx
  100a50:	8b 00                	mov    eax,DWORD PTR [eax]
  100a52:	ff 75 ec             	push   DWORD PTR [ebp-0x14]
  100a55:	ff 75 e4             	push   DWORD PTR [ebp-0x1c]
  100a58:	ff 75 e8             	push   DWORD PTR [ebp-0x18]
  100a5b:	6a 08                	push   0x8
  100a5d:	50                   	push   eax
  100a5e:	ff 75 f4             	push   DWORD PTR [ebp-0xc]
  100a61:	e8 47 fb ff ff       	call   1005ad <number>
  100a66:	83 c4 18             	add    esp,0x18
  100a69:	89 45 f4             	mov    DWORD PTR [ebp-0xc],eax
  100a6c:	e9 18 01 00 00       	jmp    100b89 <vsprintf+0x3b7>
  100a71:	83 7d e8 ff          	cmp    DWORD PTR [ebp-0x18],0xffffffff
  100a75:	75 0b                	jne    100a82 <vsprintf+0x2b0>
  100a77:	c7 45 e8 08 00 00 00 	mov    DWORD PTR [ebp-0x18],0x8
  100a7e:	83 4d ec 01          	or     DWORD PTR [ebp-0x14],0x1
  100a82:	8b 45 10             	mov    eax,DWORD PTR [ebp+0x10]
  100a85:	8d 50 04             	lea    edx,[eax+0x4]
  100a88:	89 55 10             	mov    DWORD PTR [ebp+0x10],edx
  100a8b:	8b 00                	mov    eax,DWORD PTR [eax]
  100a8d:	ff 75 ec             	push   DWORD PTR [ebp-0x14]
  100a90:	ff 75 e4             	push   DWORD PTR [ebp-0x1c]
  100a93:	ff 75 e8             	push   DWORD PTR [ebp-0x18]
  100a96:	6a 10                	push   0x10
  100a98:	50                   	push   eax
  100a99:	ff 75 f4             	push   DWORD PTR [ebp-0xc]
  100a9c:	e8 0c fb ff ff       	call   1005ad <number>
  100aa1:	83 c4 18             	add    esp,0x18
  100aa4:	89 45 f4             	mov    DWORD PTR [ebp-0xc],eax
  100aa7:	e9 dd 00 00 00       	jmp    100b89 <vsprintf+0x3b7>
  100aac:	83 4d ec 40          	or     DWORD PTR [ebp-0x14],0x40
  100ab0:	8b 45 10             	mov    eax,DWORD PTR [ebp+0x10]
  100ab3:	8d 50 04             	lea    edx,[eax+0x4]
  100ab6:	89 55 10             	mov    DWORD PTR [ebp+0x10],edx
  100ab9:	8b 00                	mov    eax,DWORD PTR [eax]
  100abb:	ff 75 ec             	push   DWORD PTR [ebp-0x14]
  100abe:	ff 75 e4             	push   DWORD PTR [ebp-0x1c]
  100ac1:	ff 75 e8             	push   DWORD PTR [ebp-0x18]
  100ac4:	6a 10                	push   0x10
  100ac6:	50                   	push   eax
  100ac7:	ff 75 f4             	push   DWORD PTR [ebp-0xc]
  100aca:	e8 de fa ff ff       	call   1005ad <number>
  100acf:	83 c4 18             	add    esp,0x18
  100ad2:	89 45 f4             	mov    DWORD PTR [ebp-0xc],eax
  100ad5:	e9 af 00 00 00       	jmp    100b89 <vsprintf+0x3b7>
  100ada:	83 4d ec 02          	or     DWORD PTR [ebp-0x14],0x2
  100ade:	8b 45 10             	mov    eax,DWORD PTR [ebp+0x10]
  100ae1:	8d 50 04             	lea    edx,[eax+0x4]
  100ae4:	89 55 10             	mov    DWORD PTR [ebp+0x10],edx
  100ae7:	8b 00                	mov    eax,DWORD PTR [eax]
  100ae9:	ff 75 ec             	push   DWORD PTR [ebp-0x14]
  100aec:	ff 75 e4             	push   DWORD PTR [ebp-0x1c]
  100aef:	ff 75 e8             	push   DWORD PTR [ebp-0x18]
  100af2:	6a 0a                	push   0xa
  100af4:	50                   	push   eax
  100af5:	ff 75 f4             	push   DWORD PTR [ebp-0xc]
  100af8:	e8 b0 fa ff ff       	call   1005ad <number>
  100afd:	83 c4 18             	add    esp,0x18
  100b00:	89 45 f4             	mov    DWORD PTR [ebp-0xc],eax
  100b03:	e9 81 00 00 00       	jmp    100b89 <vsprintf+0x3b7>
  100b08:	8b 45 10             	mov    eax,DWORD PTR [ebp+0x10]
  100b0b:	8d 50 04             	lea    edx,[eax+0x4]
  100b0e:	89 55 10             	mov    DWORD PTR [ebp+0x10],edx
  100b11:	8b 00                	mov    eax,DWORD PTR [eax]
  100b13:	ff 75 ec             	push   DWORD PTR [ebp-0x14]
  100b16:	ff 75 e4             	push   DWORD PTR [ebp-0x1c]
  100b19:	ff 75 e8             	push   DWORD PTR [ebp-0x18]
  100b1c:	6a 02                	push   0x2
  100b1e:	50                   	push   eax
  100b1f:	ff 75 f4             	push   DWORD PTR [ebp-0xc]
  100b22:	e8 86 fa ff ff       	call   1005ad <number>
  100b27:	83 c4 18             	add    esp,0x18
  100b2a:	89 45 f4             	mov    DWORD PTR [ebp-0xc],eax
  100b2d:	eb 5a                	jmp    100b89 <vsprintf+0x3b7>
  100b2f:	8b 45 10             	mov    eax,DWORD PTR [ebp+0x10]
  100b32:	8d 50 04             	lea    edx,[eax+0x4]
  100b35:	89 55 10             	mov    DWORD PTR [ebp+0x10],edx
  100b38:	8b 00                	mov    eax,DWORD PTR [eax]
  100b3a:	89 45 e0             	mov    DWORD PTR [ebp-0x20],eax
  100b3d:	8b 55 f4             	mov    edx,DWORD PTR [ebp-0xc]
  100b40:	8b 45 08             	mov    eax,DWORD PTR [ebp+0x8]
  100b43:	29 c2                	sub    edx,eax
  100b45:	8b 45 e0             	mov    eax,DWORD PTR [ebp-0x20]
  100b48:	89 10                	mov    DWORD PTR [eax],edx
  100b4a:	eb 3d                	jmp    100b89 <vsprintf+0x3b7>
  100b4c:	8b 45 0c             	mov    eax,DWORD PTR [ebp+0xc]
  100b4f:	0f b6 00             	movzx  eax,BYTE PTR [eax]
  100b52:	3c 25                	cmp    al,0x25
  100b54:	74 0c                	je     100b62 <vsprintf+0x390>
  100b56:	8b 45 f4             	mov    eax,DWORD PTR [ebp-0xc]
  100b59:	8d 50 01             	lea    edx,[eax+0x1]
  100b5c:	89 55 f4             	mov    DWORD PTR [ebp-0xc],edx
  100b5f:	c6 00 25             	mov    BYTE PTR [eax],0x25
  100b62:	8b 45 0c             	mov    eax,DWORD PTR [ebp+0xc]
  100b65:	0f b6 00             	movzx  eax,BYTE PTR [eax]
  100b68:	84 c0                	test   al,al
  100b6a:	74 13                	je     100b7f <vsprintf+0x3ad>
  100b6c:	8b 55 0c             	mov    edx,DWORD PTR [ebp+0xc]
  100b6f:	8b 45 f4             	mov    eax,DWORD PTR [ebp-0xc]
  100b72:	8d 48 01             	lea    ecx,[eax+0x1]
  100b75:	89 4d f4             	mov    DWORD PTR [ebp-0xc],ecx
  100b78:	0f b6 12             	movzx  edx,BYTE PTR [edx]
  100b7b:	88 10                	mov    BYTE PTR [eax],dl
  100b7d:	eb 09                	jmp    100b88 <vsprintf+0x3b6>
  100b7f:	8b 45 0c             	mov    eax,DWORD PTR [ebp+0xc]
  100b82:	83 e8 01             	sub    eax,0x1
  100b85:	89 45 0c             	mov    DWORD PTR [ebp+0xc],eax
  100b88:	90                   	nop
  100b89:	8b 45 0c             	mov    eax,DWORD PTR [ebp+0xc]
  100b8c:	83 c0 01             	add    eax,0x1
  100b8f:	89 45 0c             	mov    DWORD PTR [ebp+0xc],eax
  100b92:	8b 45 0c             	mov    eax,DWORD PTR [ebp+0xc]
  100b95:	0f b6 00             	movzx  eax,BYTE PTR [eax]
  100b98:	84 c0                	test   al,al
  100b9a:	0f 85 43 fc ff ff    	jne    1007e3 <vsprintf+0x11>
  100ba0:	8b 45 f4             	mov    eax,DWORD PTR [ebp-0xc]
  100ba3:	c6 00 00             	mov    BYTE PTR [eax],0x0
  100ba6:	8b 55 f4             	mov    edx,DWORD PTR [ebp-0xc]
  100ba9:	8b 45 08             	mov    eax,DWORD PTR [ebp+0x8]
  100bac:	29 c2                	sub    edx,eax
  100bae:	89 d0                	mov    eax,edx
  100bb0:	c9                   	leave  
  100bb1:	c3                   	ret    

00100bb2 <kern_entry>:
  100bb2:	55                   	push   ebp
  100bb3:	89 e5                	mov    ebp,esp
  100bb5:	83 ec 08             	sub    esp,0x8
  100bb8:	e8 45 01 00 00       	call   100d02 <console_clear>
  100bbd:	e8 55 f7 ff ff       	call   100317 <init_debug>
  100bc2:	83 ec 04             	sub    esp,0x4
  100bc5:	68 f0 21 10 00       	push   0x1021f0
  100bca:	6a 02                	push   0x2
  100bcc:	6a 00                	push   0x0
  100bce:	e8 36 f9 ff ff       	call   100509 <printk_color>
  100bd3:	83 c4 10             	add    esp,0x10
  100bd6:	83 ec 0c             	sub    esp,0xc
  100bd9:	68 03 22 10 00       	push   0x102203
  100bde:	e8 30 f8 ff ff       	call   100413 <panic>
  100be3:	83 c4 10             	add    esp,0x10
  100be6:	b8 00 00 00 00       	mov    eax,0x0
  100beb:	c9                   	leave  
  100bec:	c3                   	ret    

00100bed <move_cursor>:
  100bed:	55                   	push   ebp
  100bee:	89 e5                	mov    ebp,esp
  100bf0:	83 ec 18             	sub    esp,0x18
  100bf3:	0f b6 05 21 b8 10 00 	movzx  eax,BYTE PTR ds:0x10b821
  100bfa:	0f b6 d0             	movzx  edx,al
  100bfd:	89 d0                	mov    eax,edx
  100bff:	c1 e0 02             	shl    eax,0x2
  100c02:	01 d0                	add    eax,edx
  100c04:	c1 e0 04             	shl    eax,0x4
  100c07:	89 c2                	mov    edx,eax
  100c09:	0f b6 05 20 b8 10 00 	movzx  eax,BYTE PTR ds:0x10b820
  100c10:	0f b6 c0             	movzx  eax,al
  100c13:	01 d0                	add    eax,edx
  100c15:	66 89 45 f6          	mov    WORD PTR [ebp-0xa],ax
  100c19:	83 ec 08             	sub    esp,0x8
  100c1c:	6a 0e                	push   0xe
  100c1e:	68 d4 03 00 00       	push   0x3d4
  100c23:	e8 00 f4 ff ff       	call   100028 <outb>
  100c28:	83 c4 10             	add    esp,0x10
  100c2b:	0f b7 45 f6          	movzx  eax,WORD PTR [ebp-0xa]
  100c2f:	66 c1 e8 08          	shr    ax,0x8
  100c33:	0f b6 c0             	movzx  eax,al
  100c36:	83 ec 08             	sub    esp,0x8
  100c39:	50                   	push   eax
  100c3a:	68 d5 03 00 00       	push   0x3d5
  100c3f:	e8 e4 f3 ff ff       	call   100028 <outb>
  100c44:	83 c4 10             	add    esp,0x10
  100c47:	83 ec 08             	sub    esp,0x8
  100c4a:	6a 0f                	push   0xf
  100c4c:	68 d4 03 00 00       	push   0x3d4
  100c51:	e8 d2 f3 ff ff       	call   100028 <outb>
  100c56:	83 c4 10             	add    esp,0x10
  100c59:	0f b7 45 f6          	movzx  eax,WORD PTR [ebp-0xa]
  100c5d:	0f b6 c0             	movzx  eax,al
  100c60:	83 ec 08             	sub    esp,0x8
  100c63:	50                   	push   eax
  100c64:	68 d5 03 00 00       	push   0x3d5
  100c69:	e8 ba f3 ff ff       	call   100028 <outb>
  100c6e:	83 c4 10             	add    esp,0x10
  100c71:	90                   	nop
  100c72:	c9                   	leave  
  100c73:	c3                   	ret    

00100c74 <scroll>:
  100c74:	55                   	push   ebp
  100c75:	89 e5                	mov    ebp,esp
  100c77:	83 ec 10             	sub    esp,0x10
  100c7a:	c6 45 fb 0f          	mov    BYTE PTR [ebp-0x5],0xf
  100c7e:	0f b6 45 fb          	movzx  eax,BYTE PTR [ebp-0x5]
  100c82:	c1 e0 08             	shl    eax,0x8
  100c85:	83 c8 20             	or     eax,0x20
  100c88:	66 89 45 f8          	mov    WORD PTR [ebp-0x8],ax
  100c8c:	0f b6 05 21 b8 10 00 	movzx  eax,BYTE PTR ds:0x10b821
  100c93:	3c 18                	cmp    al,0x18
  100c95:	76 68                	jbe    100cff <scroll+0x8b>
  100c97:	c7 45 fc 00 00 00 00 	mov    DWORD PTR [ebp-0x4],0x0
  100c9e:	eb 26                	jmp    100cc6 <scroll+0x52>
  100ca0:	a1 00 20 10 00       	mov    eax,ds:0x102000
  100ca5:	8b 55 fc             	mov    edx,DWORD PTR [ebp-0x4]
  100ca8:	83 c2 50             	add    edx,0x50
  100cab:	01 d2                	add    edx,edx
  100cad:	01 d0                	add    eax,edx
  100caf:	8b 15 00 20 10 00    	mov    edx,DWORD PTR ds:0x102000
  100cb5:	8b 4d fc             	mov    ecx,DWORD PTR [ebp-0x4]
  100cb8:	01 c9                	add    ecx,ecx
  100cba:	01 ca                	add    edx,ecx
  100cbc:	0f b7 00             	movzx  eax,WORD PTR [eax]
  100cbf:	66 89 02             	mov    WORD PTR [edx],ax
  100cc2:	83 45 fc 01          	add    DWORD PTR [ebp-0x4],0x1
  100cc6:	81 7d fc 7f 07 00 00 	cmp    DWORD PTR [ebp-0x4],0x77f
  100ccd:	7e d1                	jle    100ca0 <scroll+0x2c>
  100ccf:	c7 45 fc 80 07 00 00 	mov    DWORD PTR [ebp-0x4],0x780
  100cd6:	eb 17                	jmp    100cef <scroll+0x7b>
  100cd8:	a1 00 20 10 00       	mov    eax,ds:0x102000
  100cdd:	8b 55 fc             	mov    edx,DWORD PTR [ebp-0x4]
  100ce0:	01 d2                	add    edx,edx
  100ce2:	01 c2                	add    edx,eax
  100ce4:	0f b7 45 f8          	movzx  eax,WORD PTR [ebp-0x8]
  100ce8:	66 89 02             	mov    WORD PTR [edx],ax
  100ceb:	83 45 fc 01          	add    DWORD PTR [ebp-0x4],0x1
  100cef:	81 7d fc cf 07 00 00 	cmp    DWORD PTR [ebp-0x4],0x7cf
  100cf6:	7e e0                	jle    100cd8 <scroll+0x64>
  100cf8:	c6 05 21 b8 10 00 18 	mov    BYTE PTR ds:0x10b821,0x18
  100cff:	90                   	nop
  100d00:	c9                   	leave  
  100d01:	c3                   	ret    

00100d02 <console_clear>:
  100d02:	55                   	push   ebp
  100d03:	89 e5                	mov    ebp,esp
  100d05:	83 ec 18             	sub    esp,0x18
  100d08:	c6 45 f3 0f          	mov    BYTE PTR [ebp-0xd],0xf
  100d0c:	0f b6 45 f3          	movzx  eax,BYTE PTR [ebp-0xd]
  100d10:	c1 e0 08             	shl    eax,0x8
  100d13:	83 c8 20             	or     eax,0x20
  100d16:	66 89 45 f0          	mov    WORD PTR [ebp-0x10],ax
  100d1a:	c7 45 f4 00 00 00 00 	mov    DWORD PTR [ebp-0xc],0x0
  100d21:	eb 17                	jmp    100d3a <console_clear+0x38>
  100d23:	a1 00 20 10 00       	mov    eax,ds:0x102000
  100d28:	8b 55 f4             	mov    edx,DWORD PTR [ebp-0xc]
  100d2b:	01 d2                	add    edx,edx
  100d2d:	01 c2                	add    edx,eax
  100d2f:	0f b7 45 f0          	movzx  eax,WORD PTR [ebp-0x10]
  100d33:	66 89 02             	mov    WORD PTR [edx],ax
  100d36:	83 45 f4 01          	add    DWORD PTR [ebp-0xc],0x1
  100d3a:	81 7d f4 cf 07 00 00 	cmp    DWORD PTR [ebp-0xc],0x7cf
  100d41:	7e e0                	jle    100d23 <console_clear+0x21>
  100d43:	c6 05 20 b8 10 00 00 	mov    BYTE PTR ds:0x10b820,0x0
  100d4a:	c6 05 21 b8 10 00 00 	mov    BYTE PTR ds:0x10b821,0x0
  100d51:	e8 97 fe ff ff       	call   100bed <move_cursor>
  100d56:	90                   	nop
  100d57:	c9                   	leave  
  100d58:	c3                   	ret    

00100d59 <console_putc_color>:
  100d59:	55                   	push   ebp
  100d5a:	89 e5                	mov    ebp,esp
  100d5c:	53                   	push   ebx
  100d5d:	83 ec 24             	sub    esp,0x24
  100d60:	8b 45 08             	mov    eax,DWORD PTR [ebp+0x8]
  100d63:	88 45 e4             	mov    BYTE PTR [ebp-0x1c],al
  100d66:	8b 45 0c             	mov    eax,DWORD PTR [ebp+0xc]
  100d69:	88 45 f7             	mov    BYTE PTR [ebp-0x9],al
  100d6c:	8b 45 10             	mov    eax,DWORD PTR [ebp+0x10]
  100d6f:	88 45 f6             	mov    BYTE PTR [ebp-0xa],al
  100d72:	0f b6 45 f7          	movzx  eax,BYTE PTR [ebp-0x9]
  100d76:	c1 e0 04             	shl    eax,0x4
  100d79:	89 c2                	mov    edx,eax
  100d7b:	0f b6 45 f6          	movzx  eax,BYTE PTR [ebp-0xa]
  100d7f:	83 e0 0f             	and    eax,0xf
  100d82:	09 d0                	or     eax,edx
  100d84:	88 45 f5             	mov    BYTE PTR [ebp-0xb],al
  100d87:	0f b6 45 f5          	movzx  eax,BYTE PTR [ebp-0xb]
  100d8b:	c1 e0 08             	shl    eax,0x8
  100d8e:	66 89 45 f2          	mov    WORD PTR [ebp-0xe],ax
  100d92:	80 7d e4 08          	cmp    BYTE PTR [ebp-0x1c],0x8
  100d96:	75 1f                	jne    100db7 <console_putc_color+0x5e>
  100d98:	0f b6 05 20 b8 10 00 	movzx  eax,BYTE PTR ds:0x10b820
  100d9f:	84 c0                	test   al,al
  100da1:	74 14                	je     100db7 <console_putc_color+0x5e>
  100da3:	0f b6 05 20 b8 10 00 	movzx  eax,BYTE PTR ds:0x10b820
  100daa:	83 e8 01             	sub    eax,0x1
  100dad:	a2 20 b8 10 00       	mov    ds:0x10b820,al
  100db2:	e9 9d 00 00 00       	jmp    100e54 <console_putc_color+0xfb>
  100db7:	80 7d e4 09          	cmp    BYTE PTR [ebp-0x1c],0x9
  100dbb:	75 17                	jne    100dd4 <console_putc_color+0x7b>
  100dbd:	0f b6 05 20 b8 10 00 	movzx  eax,BYTE PTR ds:0x10b820
  100dc4:	83 c0 08             	add    eax,0x8
  100dc7:	83 e0 f8             	and    eax,0xfffffff8
  100dca:	a2 20 b8 10 00       	mov    ds:0x10b820,al
  100dcf:	e9 80 00 00 00       	jmp    100e54 <console_putc_color+0xfb>
  100dd4:	80 7d e4 0d          	cmp    BYTE PTR [ebp-0x1c],0xd
  100dd8:	75 09                	jne    100de3 <console_putc_color+0x8a>
  100dda:	c6 05 20 b8 10 00 00 	mov    BYTE PTR ds:0x10b820,0x0
  100de1:	eb 71                	jmp    100e54 <console_putc_color+0xfb>
  100de3:	80 7d e4 0a          	cmp    BYTE PTR [ebp-0x1c],0xa
  100de7:	75 18                	jne    100e01 <console_putc_color+0xa8>
  100de9:	c6 05 20 b8 10 00 00 	mov    BYTE PTR ds:0x10b820,0x0
  100df0:	0f b6 05 21 b8 10 00 	movzx  eax,BYTE PTR ds:0x10b821
  100df7:	83 c0 01             	add    eax,0x1
  100dfa:	a2 21 b8 10 00       	mov    ds:0x10b821,al
  100dff:	eb 53                	jmp    100e54 <console_putc_color+0xfb>
  100e01:	80 7d e4 1f          	cmp    BYTE PTR [ebp-0x1c],0x1f
  100e05:	7e 4d                	jle    100e54 <console_putc_color+0xfb>
  100e07:	66 0f be 55 e4       	movsx  dx,BYTE PTR [ebp-0x1c]
  100e0c:	0f b7 45 f2          	movzx  eax,WORD PTR [ebp-0xe]
  100e10:	89 d3                	mov    ebx,edx
  100e12:	09 c3                	or     ebx,eax
  100e14:	8b 0d 00 20 10 00    	mov    ecx,DWORD PTR ds:0x102000
  100e1a:	0f b6 05 21 b8 10 00 	movzx  eax,BYTE PTR ds:0x10b821
  100e21:	0f b6 d0             	movzx  edx,al
  100e24:	89 d0                	mov    eax,edx
  100e26:	c1 e0 02             	shl    eax,0x2
  100e29:	01 d0                	add    eax,edx
  100e2b:	c1 e0 04             	shl    eax,0x4
  100e2e:	89 c2                	mov    edx,eax
  100e30:	0f b6 05 20 b8 10 00 	movzx  eax,BYTE PTR ds:0x10b820
  100e37:	0f b6 c0             	movzx  eax,al
  100e3a:	01 d0                	add    eax,edx
  100e3c:	01 c0                	add    eax,eax
  100e3e:	01 c8                	add    eax,ecx
  100e40:	89 da                	mov    edx,ebx
  100e42:	66 89 10             	mov    WORD PTR [eax],dx
  100e45:	0f b6 05 20 b8 10 00 	movzx  eax,BYTE PTR ds:0x10b820
  100e4c:	83 c0 01             	add    eax,0x1
  100e4f:	a2 20 b8 10 00       	mov    ds:0x10b820,al
  100e54:	0f b6 05 20 b8 10 00 	movzx  eax,BYTE PTR ds:0x10b820
  100e5b:	3c 4f                	cmp    al,0x4f
  100e5d:	76 16                	jbe    100e75 <console_putc_color+0x11c>
  100e5f:	c6 05 20 b8 10 00 00 	mov    BYTE PTR ds:0x10b820,0x0
  100e66:	0f b6 05 21 b8 10 00 	movzx  eax,BYTE PTR ds:0x10b821
  100e6d:	83 c0 01             	add    eax,0x1
  100e70:	a2 21 b8 10 00       	mov    ds:0x10b821,al
  100e75:	e8 fa fd ff ff       	call   100c74 <scroll>
  100e7a:	e8 6e fd ff ff       	call   100bed <move_cursor>
  100e7f:	90                   	nop
  100e80:	83 c4 24             	add    esp,0x24
  100e83:	5b                   	pop    ebx
  100e84:	5d                   	pop    ebp
  100e85:	c3                   	ret    

00100e86 <console_write>:
  100e86:	55                   	push   ebp
  100e87:	89 e5                	mov    ebp,esp
  100e89:	83 ec 08             	sub    esp,0x8
  100e8c:	eb 1f                	jmp    100ead <console_write+0x27>
  100e8e:	8b 45 08             	mov    eax,DWORD PTR [ebp+0x8]
  100e91:	8d 50 01             	lea    edx,[eax+0x1]
  100e94:	89 55 08             	mov    DWORD PTR [ebp+0x8],edx
  100e97:	0f b6 00             	movzx  eax,BYTE PTR [eax]
  100e9a:	0f be c0             	movsx  eax,al
  100e9d:	83 ec 04             	sub    esp,0x4
  100ea0:	6a 0f                	push   0xf
  100ea2:	6a 00                	push   0x0
  100ea4:	50                   	push   eax
  100ea5:	e8 af fe ff ff       	call   100d59 <console_putc_color>
  100eaa:	83 c4 10             	add    esp,0x10
  100ead:	8b 45 08             	mov    eax,DWORD PTR [ebp+0x8]
  100eb0:	0f b6 00             	movzx  eax,BYTE PTR [eax]
  100eb3:	84 c0                	test   al,al
  100eb5:	75 d7                	jne    100e8e <console_write+0x8>
  100eb7:	90                   	nop
  100eb8:	c9                   	leave  
  100eb9:	c3                   	ret    

00100eba <console_write_color>:
  100eba:	55                   	push   ebp
  100ebb:	89 e5                	mov    ebp,esp
  100ebd:	83 ec 08             	sub    esp,0x8
  100ec0:	eb 21                	jmp    100ee3 <console_write_color+0x29>
  100ec2:	8b 45 08             	mov    eax,DWORD PTR [ebp+0x8]
  100ec5:	8d 50 01             	lea    edx,[eax+0x1]
  100ec8:	89 55 08             	mov    DWORD PTR [ebp+0x8],edx
  100ecb:	0f b6 00             	movzx  eax,BYTE PTR [eax]
  100ece:	0f be c0             	movsx  eax,al
  100ed1:	83 ec 04             	sub    esp,0x4
  100ed4:	ff 75 10             	push   DWORD PTR [ebp+0x10]
  100ed7:	ff 75 0c             	push   DWORD PTR [ebp+0xc]
  100eda:	50                   	push   eax
  100edb:	e8 79 fe ff ff       	call   100d59 <console_putc_color>
  100ee0:	83 c4 10             	add    esp,0x10
  100ee3:	8b 45 08             	mov    eax,DWORD PTR [ebp+0x8]
  100ee6:	0f b6 00             	movzx  eax,BYTE PTR [eax]
  100ee9:	84 c0                	test   al,al
  100eeb:	75 d5                	jne    100ec2 <console_write_color+0x8>
  100eed:	90                   	nop
  100eee:	c9                   	leave  
  100eef:	c3                   	ret    

00100ef0 <console_write_hex>:
  100ef0:	55                   	push   ebp
  100ef1:	89 e5                	mov    ebp,esp
  100ef3:	83 ec 18             	sub    esp,0x18
  100ef6:	c6 45 f7 01          	mov    BYTE PTR [ebp-0x9],0x1
  100efa:	83 ec 04             	sub    esp,0x4
  100efd:	ff 75 10             	push   DWORD PTR [ebp+0x10]
  100f00:	ff 75 0c             	push   DWORD PTR [ebp+0xc]
  100f03:	68 08 22 10 00       	push   0x102208
  100f08:	e8 ad ff ff ff       	call   100eba <console_write_color>
  100f0d:	83 c4 10             	add    esp,0x10
  100f10:	c7 45 f0 1c 00 00 00 	mov    DWORD PTR [ebp-0x10],0x1c
  100f17:	eb 67                	jmp    100f80 <console_write_hex+0x90>
  100f19:	8b 45 f0             	mov    eax,DWORD PTR [ebp-0x10]
  100f1c:	8b 55 08             	mov    edx,DWORD PTR [ebp+0x8]
  100f1f:	89 c1                	mov    ecx,eax
  100f21:	d3 ea                	shr    edx,cl
  100f23:	89 d0                	mov    eax,edx
  100f25:	83 e0 0f             	and    eax,0xf
  100f28:	89 45 ec             	mov    DWORD PTR [ebp-0x14],eax
  100f2b:	83 7d ec 00          	cmp    DWORD PTR [ebp-0x14],0x0
  100f2f:	75 06                	jne    100f37 <console_write_hex+0x47>
  100f31:	80 7d f7 00          	cmp    BYTE PTR [ebp-0x9],0x0
  100f35:	75 44                	jne    100f7b <console_write_hex+0x8b>
  100f37:	c6 45 f7 00          	mov    BYTE PTR [ebp-0x9],0x0
  100f3b:	83 7d ec 09          	cmp    DWORD PTR [ebp-0x14],0x9
  100f3f:	7e 1d                	jle    100f5e <console_write_hex+0x6e>
  100f41:	8b 45 ec             	mov    eax,DWORD PTR [ebp-0x14]
  100f44:	83 c0 57             	add    eax,0x57
  100f47:	0f be c0             	movsx  eax,al
  100f4a:	83 ec 04             	sub    esp,0x4
  100f4d:	ff 75 10             	push   DWORD PTR [ebp+0x10]
  100f50:	ff 75 0c             	push   DWORD PTR [ebp+0xc]
  100f53:	50                   	push   eax
  100f54:	e8 00 fe ff ff       	call   100d59 <console_putc_color>
  100f59:	83 c4 10             	add    esp,0x10
  100f5c:	eb 1e                	jmp    100f7c <console_write_hex+0x8c>
  100f5e:	8b 45 ec             	mov    eax,DWORD PTR [ebp-0x14]
  100f61:	83 c0 30             	add    eax,0x30
  100f64:	0f be c0             	movsx  eax,al
  100f67:	83 ec 04             	sub    esp,0x4
  100f6a:	ff 75 10             	push   DWORD PTR [ebp+0x10]
  100f6d:	ff 75 0c             	push   DWORD PTR [ebp+0xc]
  100f70:	50                   	push   eax
  100f71:	e8 e3 fd ff ff       	call   100d59 <console_putc_color>
  100f76:	83 c4 10             	add    esp,0x10
  100f79:	eb 01                	jmp    100f7c <console_write_hex+0x8c>
  100f7b:	90                   	nop
  100f7c:	83 6d f0 04          	sub    DWORD PTR [ebp-0x10],0x4
  100f80:	83 7d f0 00          	cmp    DWORD PTR [ebp-0x10],0x0
  100f84:	79 93                	jns    100f19 <console_write_hex+0x29>
  100f86:	90                   	nop
  100f87:	c9                   	leave  
  100f88:	c3                   	ret    

00100f89 <console_write_dec>:
  100f89:	55                   	push   ebp
  100f8a:	89 e5                	mov    ebp,esp
  100f8c:	83 ec 58             	sub    esp,0x58
  100f8f:	83 7d 08 00          	cmp    DWORD PTR [ebp+0x8],0x0
  100f93:	75 18                	jne    100fad <console_write_dec+0x24>
  100f95:	83 ec 04             	sub    esp,0x4
  100f98:	ff 75 10             	push   DWORD PTR [ebp+0x10]
  100f9b:	ff 75 0c             	push   DWORD PTR [ebp+0xc]
  100f9e:	6a 30                	push   0x30
  100fa0:	e8 b4 fd ff ff       	call   100d59 <console_putc_color>
  100fa5:	83 c4 10             	add    esp,0x10
  100fa8:	e9 b0 00 00 00       	jmp    10105d <console_write_dec+0xd4>
  100fad:	8b 45 08             	mov    eax,DWORD PTR [ebp+0x8]
  100fb0:	89 45 f4             	mov    DWORD PTR [ebp-0xc],eax
  100fb3:	c7 45 f0 00 00 00 00 	mov    DWORD PTR [ebp-0x10],0x0
  100fba:	eb 43                	jmp    100fff <console_write_dec+0x76>
  100fbc:	8b 4d f4             	mov    ecx,DWORD PTR [ebp-0xc]
  100fbf:	ba cd cc cc cc       	mov    edx,0xcccccccd
  100fc4:	89 c8                	mov    eax,ecx
  100fc6:	f7 e2                	mul    edx
  100fc8:	c1 ea 03             	shr    edx,0x3
  100fcb:	89 d0                	mov    eax,edx
  100fcd:	c1 e0 02             	shl    eax,0x2
  100fd0:	01 d0                	add    eax,edx
  100fd2:	01 c0                	add    eax,eax
  100fd4:	29 c1                	sub    ecx,eax
  100fd6:	89 ca                	mov    edx,ecx
  100fd8:	89 d0                	mov    eax,edx
  100fda:	83 c0 30             	add    eax,0x30
  100fdd:	89 c1                	mov    ecx,eax
  100fdf:	8d 55 cc             	lea    edx,[ebp-0x34]
  100fe2:	8b 45 f0             	mov    eax,DWORD PTR [ebp-0x10]
  100fe5:	01 d0                	add    eax,edx
  100fe7:	88 08                	mov    BYTE PTR [eax],cl
  100fe9:	8b 45 f4             	mov    eax,DWORD PTR [ebp-0xc]
  100fec:	ba cd cc cc cc       	mov    edx,0xcccccccd
  100ff1:	f7 e2                	mul    edx
  100ff3:	89 d0                	mov    eax,edx
  100ff5:	c1 e8 03             	shr    eax,0x3
  100ff8:	89 45 f4             	mov    DWORD PTR [ebp-0xc],eax
  100ffb:	83 45 f0 01          	add    DWORD PTR [ebp-0x10],0x1
  100fff:	83 7d f4 00          	cmp    DWORD PTR [ebp-0xc],0x0
  101003:	75 b7                	jne    100fbc <console_write_dec+0x33>
  101005:	8d 55 cc             	lea    edx,[ebp-0x34]
  101008:	8b 45 f0             	mov    eax,DWORD PTR [ebp-0x10]
  10100b:	01 d0                	add    eax,edx
  10100d:	c6 00 00             	mov    BYTE PTR [eax],0x0
  101010:	8b 45 f0             	mov    eax,DWORD PTR [ebp-0x10]
  101013:	8d 50 ff             	lea    edx,[eax-0x1]
  101016:	89 55 f0             	mov    DWORD PTR [ebp-0x10],edx
  101019:	c6 44 05 ac 00       	mov    BYTE PTR [ebp+eax*1-0x54],0x0
  10101e:	c7 45 ec 00 00 00 00 	mov    DWORD PTR [ebp-0x14],0x0
  101025:	eb 1b                	jmp    101042 <console_write_dec+0xb9>
  101027:	8b 55 ec             	mov    edx,DWORD PTR [ebp-0x14]
  10102a:	8d 42 01             	lea    eax,[edx+0x1]
  10102d:	89 45 ec             	mov    DWORD PTR [ebp-0x14],eax
  101030:	8b 45 f0             	mov    eax,DWORD PTR [ebp-0x10]
  101033:	8d 48 ff             	lea    ecx,[eax-0x1]
  101036:	89 4d f0             	mov    DWORD PTR [ebp-0x10],ecx
  101039:	0f b6 54 15 cc       	movzx  edx,BYTE PTR [ebp+edx*1-0x34]
  10103e:	88 54 05 ac          	mov    BYTE PTR [ebp+eax*1-0x54],dl
  101042:	83 7d f0 00          	cmp    DWORD PTR [ebp-0x10],0x0
  101046:	79 df                	jns    101027 <console_write_dec+0x9e>
  101048:	83 ec 04             	sub    esp,0x4
  10104b:	ff 75 10             	push   DWORD PTR [ebp+0x10]
  10104e:	ff 75 0c             	push   DWORD PTR [ebp+0xc]
  101051:	8d 45 ac             	lea    eax,[ebp-0x54]
  101054:	50                   	push   eax
  101055:	e8 60 fe ff ff       	call   100eba <console_write_color>
  10105a:	83 c4 10             	add    esp,0x10
  10105d:	c9                   	leave  
  10105e:	c3                   	ret    
  10105f:	66 90                	xchg   ax,ax
  101061:	66 90                	xchg   ax,ax
  101063:	66 90                	xchg   ax,ax
  101065:	66 90                	xchg   ax,ax
  101067:	66 90                	xchg   ax,ax
  101069:	66 90                	xchg   ax,ax
  10106b:	66 90                	xchg   ax,ax
  10106d:	66 90                	xchg   ax,ax
  10106f:	66 90                	xchg   ax,ax
  101071:	66 90                	xchg   ax,ax
  101073:	66 90                	xchg   ax,ax
  101075:	66 90                	xchg   ax,ax
  101077:	66 90                	xchg   ax,ax
  101079:	66 90                	xchg   ax,ax
  10107b:	66 90                	xchg   ax,ax
  10107d:	66 90                	xchg   ax,ax
  10107f:	66 90                	xchg   ax,ax
  101081:	66 90                	xchg   ax,ax
  101083:	66 90                	xchg   ax,ax
  101085:	66 90                	xchg   ax,ax
  101087:	66 90                	xchg   ax,ax
  101089:	66 90                	xchg   ax,ax
  10108b:	66 90                	xchg   ax,ax
  10108d:	66 90                	xchg   ax,ax
  10108f:	66 90                	xchg   ax,ax
  101091:	66 90                	xchg   ax,ax
  101093:	66 90                	xchg   ax,ax
  101095:	66 90                	xchg   ax,ax
  101097:	66 90                	xchg   ax,ax
  101099:	66 90                	xchg   ax,ax
  10109b:	66 90                	xchg   ax,ax
  10109d:	66 90                	xchg   ax,ax
  10109f:	66 90                	xchg   ax,ax
  1010a1:	66 90                	xchg   ax,ax
  1010a3:	66 90                	xchg   ax,ax
  1010a5:	66 90                	xchg   ax,ax
  1010a7:	66 90                	xchg   ax,ax
  1010a9:	66 90                	xchg   ax,ax
  1010ab:	66 90                	xchg   ax,ax
  1010ad:	66 90                	xchg   ax,ax
  1010af:	66 90                	xchg   ax,ax
  1010b1:	66 90                	xchg   ax,ax
  1010b3:	66 90                	xchg   ax,ax
  1010b5:	66 90                	xchg   ax,ax
  1010b7:	66 90                	xchg   ax,ax
  1010b9:	66 90                	xchg   ax,ax
  1010bb:	66 90                	xchg   ax,ax
  1010bd:	66 90                	xchg   ax,ax
  1010bf:	66 90                	xchg   ax,ax
  1010c1:	66 90                	xchg   ax,ax
  1010c3:	66 90                	xchg   ax,ax
  1010c5:	66 90                	xchg   ax,ax
  1010c7:	66 90                	xchg   ax,ax
  1010c9:	66 90                	xchg   ax,ax
  1010cb:	66 90                	xchg   ax,ax
  1010cd:	66 90                	xchg   ax,ax
  1010cf:	66 90                	xchg   ax,ax
  1010d1:	66 90                	xchg   ax,ax
  1010d3:	66 90                	xchg   ax,ax
  1010d5:	66 90                	xchg   ax,ax
  1010d7:	66 90                	xchg   ax,ax
  1010d9:	66 90                	xchg   ax,ax
  1010db:	66 90                	xchg   ax,ax
  1010dd:	66 90                	xchg   ax,ax
  1010df:	66 90                	xchg   ax,ax
  1010e1:	66 90                	xchg   ax,ax
  1010e3:	66 90                	xchg   ax,ax
  1010e5:	66 90                	xchg   ax,ax
  1010e7:	66 90                	xchg   ax,ax
  1010e9:	66 90                	xchg   ax,ax
  1010eb:	66 90                	xchg   ax,ax
  1010ed:	66 90                	xchg   ax,ax
  1010ef:	66 90                	xchg   ax,ax
  1010f1:	66 90                	xchg   ax,ax
  1010f3:	66 90                	xchg   ax,ax
  1010f5:	66 90                	xchg   ax,ax
  1010f7:	66 90                	xchg   ax,ax
  1010f9:	66 90                	xchg   ax,ax
  1010fb:	66 90                	xchg   ax,ax
  1010fd:	66 90                	xchg   ax,ax
  1010ff:	66 90                	xchg   ax,ax
  101101:	66 90                	xchg   ax,ax
  101103:	66 90                	xchg   ax,ax
  101105:	66 90                	xchg   ax,ax
  101107:	66 90                	xchg   ax,ax
  101109:	66 90                	xchg   ax,ax
  10110b:	66 90                	xchg   ax,ax
  10110d:	66 90                	xchg   ax,ax
  10110f:	66 90                	xchg   ax,ax
  101111:	66 90                	xchg   ax,ax
  101113:	66 90                	xchg   ax,ax
  101115:	66 90                	xchg   ax,ax
  101117:	66 90                	xchg   ax,ax
  101119:	66 90                	xchg   ax,ax
  10111b:	66 90                	xchg   ax,ax
  10111d:	66 90                	xchg   ax,ax
  10111f:	66 90                	xchg   ax,ax
  101121:	66 90                	xchg   ax,ax
  101123:	66 90                	xchg   ax,ax
  101125:	66 90                	xchg   ax,ax
  101127:	66 90                	xchg   ax,ax
  101129:	66 90                	xchg   ax,ax
  10112b:	66 90                	xchg   ax,ax
  10112d:	66 90                	xchg   ax,ax
  10112f:	66 90                	xchg   ax,ax
  101131:	66 90                	xchg   ax,ax
  101133:	66 90                	xchg   ax,ax
  101135:	66 90                	xchg   ax,ax
  101137:	66 90                	xchg   ax,ax
  101139:	66 90                	xchg   ax,ax
  10113b:	66 90                	xchg   ax,ax
  10113d:	66 90                	xchg   ax,ax
  10113f:	66 90                	xchg   ax,ax
  101141:	66 90                	xchg   ax,ax
  101143:	66 90                	xchg   ax,ax
  101145:	66 90                	xchg   ax,ax
  101147:	66 90                	xchg   ax,ax
  101149:	66 90                	xchg   ax,ax
  10114b:	66 90                	xchg   ax,ax
  10114d:	66 90                	xchg   ax,ax
  10114f:	66 90                	xchg   ax,ax
  101151:	66 90                	xchg   ax,ax
  101153:	66 90                	xchg   ax,ax
  101155:	66 90                	xchg   ax,ax
  101157:	66 90                	xchg   ax,ax
  101159:	66 90                	xchg   ax,ax
  10115b:	66 90                	xchg   ax,ax
  10115d:	66 90                	xchg   ax,ax
  10115f:	66 90                	xchg   ax,ax
  101161:	66 90                	xchg   ax,ax
  101163:	66 90                	xchg   ax,ax
  101165:	66 90                	xchg   ax,ax
  101167:	66 90                	xchg   ax,ax
  101169:	66 90                	xchg   ax,ax
  10116b:	66 90                	xchg   ax,ax
  10116d:	66 90                	xchg   ax,ax
  10116f:	66 90                	xchg   ax,ax
  101171:	66 90                	xchg   ax,ax
  101173:	66 90                	xchg   ax,ax
  101175:	66 90                	xchg   ax,ax
  101177:	66 90                	xchg   ax,ax
  101179:	66 90                	xchg   ax,ax
  10117b:	66 90                	xchg   ax,ax
  10117d:	66 90                	xchg   ax,ax
  10117f:	66 90                	xchg   ax,ax
  101181:	66 90                	xchg   ax,ax
  101183:	66 90                	xchg   ax,ax
  101185:	66 90                	xchg   ax,ax
  101187:	66 90                	xchg   ax,ax
  101189:	66 90                	xchg   ax,ax
  10118b:	66 90                	xchg   ax,ax
  10118d:	66 90                	xchg   ax,ax
  10118f:	66 90                	xchg   ax,ax
  101191:	66 90                	xchg   ax,ax
  101193:	66 90                	xchg   ax,ax
  101195:	66 90                	xchg   ax,ax
  101197:	66 90                	xchg   ax,ax
  101199:	66 90                	xchg   ax,ax
  10119b:	66 90                	xchg   ax,ax
  10119d:	66 90                	xchg   ax,ax
  10119f:	66 90                	xchg   ax,ax
  1011a1:	66 90                	xchg   ax,ax
  1011a3:	66 90                	xchg   ax,ax
  1011a5:	66 90                	xchg   ax,ax
  1011a7:	66 90                	xchg   ax,ax
  1011a9:	66 90                	xchg   ax,ax
  1011ab:	66 90                	xchg   ax,ax
  1011ad:	66 90                	xchg   ax,ax
  1011af:	66 90                	xchg   ax,ax
  1011b1:	66 90                	xchg   ax,ax
  1011b3:	66 90                	xchg   ax,ax
  1011b5:	66 90                	xchg   ax,ax
  1011b7:	66 90                	xchg   ax,ax
  1011b9:	66 90                	xchg   ax,ax
  1011bb:	66 90                	xchg   ax,ax
  1011bd:	66 90                	xchg   ax,ax
  1011bf:	66 90                	xchg   ax,ax
  1011c1:	66 90                	xchg   ax,ax
  1011c3:	66 90                	xchg   ax,ax
  1011c5:	66 90                	xchg   ax,ax
  1011c7:	66 90                	xchg   ax,ax
  1011c9:	66 90                	xchg   ax,ax
  1011cb:	66 90                	xchg   ax,ax
  1011cd:	66 90                	xchg   ax,ax
  1011cf:	66 90                	xchg   ax,ax
  1011d1:	66 90                	xchg   ax,ax
  1011d3:	66 90                	xchg   ax,ax
  1011d5:	66 90                	xchg   ax,ax
  1011d7:	66 90                	xchg   ax,ax
  1011d9:	66 90                	xchg   ax,ax
  1011db:	66 90                	xchg   ax,ax
  1011dd:	66 90                	xchg   ax,ax
  1011df:	66 90                	xchg   ax,ax
  1011e1:	66 90                	xchg   ax,ax
  1011e3:	66 90                	xchg   ax,ax
  1011e5:	66 90                	xchg   ax,ax
  1011e7:	66 90                	xchg   ax,ax
  1011e9:	66 90                	xchg   ax,ax
  1011eb:	66 90                	xchg   ax,ax
  1011ed:	66 90                	xchg   ax,ax
  1011ef:	66 90                	xchg   ax,ax
  1011f1:	66 90                	xchg   ax,ax
  1011f3:	66 90                	xchg   ax,ax
  1011f5:	66 90                	xchg   ax,ax
  1011f7:	66 90                	xchg   ax,ax
  1011f9:	66 90                	xchg   ax,ax
  1011fb:	66 90                	xchg   ax,ax
  1011fd:	66 90                	xchg   ax,ax
  1011ff:	66 90                	xchg   ax,ax
  101201:	66 90                	xchg   ax,ax
  101203:	66 90                	xchg   ax,ax
  101205:	66 90                	xchg   ax,ax
  101207:	66 90                	xchg   ax,ax
  101209:	66 90                	xchg   ax,ax
  10120b:	66 90                	xchg   ax,ax
  10120d:	66 90                	xchg   ax,ax
  10120f:	66 90                	xchg   ax,ax
  101211:	66 90                	xchg   ax,ax
  101213:	66 90                	xchg   ax,ax
  101215:	66 90                	xchg   ax,ax
  101217:	66 90                	xchg   ax,ax
  101219:	66 90                	xchg   ax,ax
  10121b:	66 90                	xchg   ax,ax
  10121d:	66 90                	xchg   ax,ax
  10121f:	66 90                	xchg   ax,ax
  101221:	66 90                	xchg   ax,ax
  101223:	66 90                	xchg   ax,ax
  101225:	66 90                	xchg   ax,ax
  101227:	66 90                	xchg   ax,ax
  101229:	66 90                	xchg   ax,ax
  10122b:	66 90                	xchg   ax,ax
  10122d:	66 90                	xchg   ax,ax
  10122f:	66 90                	xchg   ax,ax
  101231:	66 90                	xchg   ax,ax
  101233:	66 90                	xchg   ax,ax
  101235:	66 90                	xchg   ax,ax
  101237:	66 90                	xchg   ax,ax
  101239:	66 90                	xchg   ax,ax
  10123b:	66 90                	xchg   ax,ax
  10123d:	66 90                	xchg   ax,ax
  10123f:	66 90                	xchg   ax,ax
  101241:	66 90                	xchg   ax,ax
  101243:	66 90                	xchg   ax,ax
  101245:	66 90                	xchg   ax,ax
  101247:	66 90                	xchg   ax,ax
  101249:	66 90                	xchg   ax,ax
  10124b:	66 90                	xchg   ax,ax
  10124d:	66 90                	xchg   ax,ax
  10124f:	66 90                	xchg   ax,ax
  101251:	66 90                	xchg   ax,ax
  101253:	66 90                	xchg   ax,ax
  101255:	66 90                	xchg   ax,ax
  101257:	66 90                	xchg   ax,ax
  101259:	66 90                	xchg   ax,ax
  10125b:	66 90                	xchg   ax,ax
  10125d:	66 90                	xchg   ax,ax
  10125f:	66 90                	xchg   ax,ax
  101261:	66 90                	xchg   ax,ax
  101263:	66 90                	xchg   ax,ax
  101265:	66 90                	xchg   ax,ax
  101267:	66 90                	xchg   ax,ax
  101269:	66 90                	xchg   ax,ax
  10126b:	66 90                	xchg   ax,ax
  10126d:	66 90                	xchg   ax,ax
  10126f:	66 90                	xchg   ax,ax
  101271:	66 90                	xchg   ax,ax
  101273:	66 90                	xchg   ax,ax
  101275:	66 90                	xchg   ax,ax
  101277:	66 90                	xchg   ax,ax
  101279:	66 90                	xchg   ax,ax
  10127b:	66 90                	xchg   ax,ax
  10127d:	66 90                	xchg   ax,ax
  10127f:	66 90                	xchg   ax,ax
  101281:	66 90                	xchg   ax,ax
  101283:	66 90                	xchg   ax,ax
  101285:	66 90                	xchg   ax,ax
  101287:	66 90                	xchg   ax,ax
  101289:	66 90                	xchg   ax,ax
  10128b:	66 90                	xchg   ax,ax
  10128d:	66 90                	xchg   ax,ax
  10128f:	66 90                	xchg   ax,ax
  101291:	66 90                	xchg   ax,ax
  101293:	66 90                	xchg   ax,ax
  101295:	66 90                	xchg   ax,ax
  101297:	66 90                	xchg   ax,ax
  101299:	66 90                	xchg   ax,ax
  10129b:	66 90                	xchg   ax,ax
  10129d:	66 90                	xchg   ax,ax
  10129f:	66 90                	xchg   ax,ax
  1012a1:	66 90                	xchg   ax,ax
  1012a3:	66 90                	xchg   ax,ax
  1012a5:	66 90                	xchg   ax,ax
  1012a7:	66 90                	xchg   ax,ax
  1012a9:	66 90                	xchg   ax,ax
  1012ab:	66 90                	xchg   ax,ax
  1012ad:	66 90                	xchg   ax,ax
  1012af:	66 90                	xchg   ax,ax
  1012b1:	66 90                	xchg   ax,ax
  1012b3:	66 90                	xchg   ax,ax
  1012b5:	66 90                	xchg   ax,ax
  1012b7:	66 90                	xchg   ax,ax
  1012b9:	66 90                	xchg   ax,ax
  1012bb:	66 90                	xchg   ax,ax
  1012bd:	66 90                	xchg   ax,ax
  1012bf:	66 90                	xchg   ax,ax
  1012c1:	66 90                	xchg   ax,ax
  1012c3:	66 90                	xchg   ax,ax
  1012c5:	66 90                	xchg   ax,ax
  1012c7:	66 90                	xchg   ax,ax
  1012c9:	66 90                	xchg   ax,ax
  1012cb:	66 90                	xchg   ax,ax
  1012cd:	66 90                	xchg   ax,ax
  1012cf:	66 90                	xchg   ax,ax
  1012d1:	66 90                	xchg   ax,ax
  1012d3:	66 90                	xchg   ax,ax
  1012d5:	66 90                	xchg   ax,ax
  1012d7:	66 90                	xchg   ax,ax
  1012d9:	66 90                	xchg   ax,ax
  1012db:	66 90                	xchg   ax,ax
  1012dd:	66 90                	xchg   ax,ax
  1012df:	66 90                	xchg   ax,ax
  1012e1:	66 90                	xchg   ax,ax
  1012e3:	66 90                	xchg   ax,ax
  1012e5:	66 90                	xchg   ax,ax
  1012e7:	66 90                	xchg   ax,ax
  1012e9:	66 90                	xchg   ax,ax
  1012eb:	66 90                	xchg   ax,ax
  1012ed:	66 90                	xchg   ax,ax
  1012ef:	66 90                	xchg   ax,ax
  1012f1:	66 90                	xchg   ax,ax
  1012f3:	66 90                	xchg   ax,ax
  1012f5:	66 90                	xchg   ax,ax
  1012f7:	66 90                	xchg   ax,ax
  1012f9:	66 90                	xchg   ax,ax
  1012fb:	66 90                	xchg   ax,ax
  1012fd:	66 90                	xchg   ax,ax
  1012ff:	66 90                	xchg   ax,ax
  101301:	66 90                	xchg   ax,ax
  101303:	66 90                	xchg   ax,ax
  101305:	66 90                	xchg   ax,ax
  101307:	66 90                	xchg   ax,ax
  101309:	66 90                	xchg   ax,ax
  10130b:	66 90                	xchg   ax,ax
  10130d:	66 90                	xchg   ax,ax
  10130f:	66 90                	xchg   ax,ax
  101311:	66 90                	xchg   ax,ax
  101313:	66 90                	xchg   ax,ax
  101315:	66 90                	xchg   ax,ax
  101317:	66 90                	xchg   ax,ax
  101319:	66 90                	xchg   ax,ax
  10131b:	66 90                	xchg   ax,ax
  10131d:	66 90                	xchg   ax,ax
  10131f:	66 90                	xchg   ax,ax
  101321:	66 90                	xchg   ax,ax
  101323:	66 90                	xchg   ax,ax
  101325:	66 90                	xchg   ax,ax
  101327:	66 90                	xchg   ax,ax
  101329:	66 90                	xchg   ax,ax
  10132b:	66 90                	xchg   ax,ax
  10132d:	66 90                	xchg   ax,ax
  10132f:	66 90                	xchg   ax,ax
  101331:	66 90                	xchg   ax,ax
  101333:	66 90                	xchg   ax,ax
  101335:	66 90                	xchg   ax,ax
  101337:	66 90                	xchg   ax,ax
  101339:	66 90                	xchg   ax,ax
  10133b:	66 90                	xchg   ax,ax
  10133d:	66 90                	xchg   ax,ax
  10133f:	66 90                	xchg   ax,ax
  101341:	66 90                	xchg   ax,ax
  101343:	66 90                	xchg   ax,ax
  101345:	66 90                	xchg   ax,ax
  101347:	66 90                	xchg   ax,ax
  101349:	66 90                	xchg   ax,ax
  10134b:	66 90                	xchg   ax,ax
  10134d:	66 90                	xchg   ax,ax
  10134f:	66 90                	xchg   ax,ax
  101351:	66 90                	xchg   ax,ax
  101353:	66 90                	xchg   ax,ax
  101355:	66 90                	xchg   ax,ax
  101357:	66 90                	xchg   ax,ax
  101359:	66 90                	xchg   ax,ax
  10135b:	66 90                	xchg   ax,ax
  10135d:	66 90                	xchg   ax,ax
  10135f:	66 90                	xchg   ax,ax
  101361:	66 90                	xchg   ax,ax
  101363:	66 90                	xchg   ax,ax
  101365:	66 90                	xchg   ax,ax
  101367:	66 90                	xchg   ax,ax
  101369:	66 90                	xchg   ax,ax
  10136b:	66 90                	xchg   ax,ax
  10136d:	66 90                	xchg   ax,ax
  10136f:	66 90                	xchg   ax,ax
  101371:	66 90                	xchg   ax,ax
  101373:	66 90                	xchg   ax,ax
  101375:	66 90                	xchg   ax,ax
  101377:	66 90                	xchg   ax,ax
  101379:	66 90                	xchg   ax,ax
  10137b:	66 90                	xchg   ax,ax
  10137d:	66 90                	xchg   ax,ax
  10137f:	66 90                	xchg   ax,ax
  101381:	66 90                	xchg   ax,ax
  101383:	66 90                	xchg   ax,ax
  101385:	66 90                	xchg   ax,ax
  101387:	66 90                	xchg   ax,ax
  101389:	66 90                	xchg   ax,ax
  10138b:	66 90                	xchg   ax,ax
  10138d:	66 90                	xchg   ax,ax
  10138f:	66 90                	xchg   ax,ax
  101391:	66 90                	xchg   ax,ax
  101393:	66 90                	xchg   ax,ax
  101395:	66 90                	xchg   ax,ax
  101397:	66 90                	xchg   ax,ax
  101399:	66 90                	xchg   ax,ax
  10139b:	66 90                	xchg   ax,ax
  10139d:	66 90                	xchg   ax,ax
  10139f:	66 90                	xchg   ax,ax
  1013a1:	66 90                	xchg   ax,ax
  1013a3:	66 90                	xchg   ax,ax
  1013a5:	66 90                	xchg   ax,ax
  1013a7:	66 90                	xchg   ax,ax
  1013a9:	66 90                	xchg   ax,ax
  1013ab:	66 90                	xchg   ax,ax
  1013ad:	66 90                	xchg   ax,ax
  1013af:	66 90                	xchg   ax,ax
  1013b1:	66 90                	xchg   ax,ax
  1013b3:	66 90                	xchg   ax,ax
  1013b5:	66 90                	xchg   ax,ax
  1013b7:	66 90                	xchg   ax,ax
  1013b9:	66 90                	xchg   ax,ax
  1013bb:	66 90                	xchg   ax,ax
  1013bd:	66 90                	xchg   ax,ax
  1013bf:	66 90                	xchg   ax,ax
  1013c1:	66 90                	xchg   ax,ax
  1013c3:	66 90                	xchg   ax,ax
  1013c5:	66 90                	xchg   ax,ax
  1013c7:	66 90                	xchg   ax,ax
  1013c9:	66 90                	xchg   ax,ax
  1013cb:	66 90                	xchg   ax,ax
  1013cd:	66 90                	xchg   ax,ax
  1013cf:	66 90                	xchg   ax,ax
  1013d1:	66 90                	xchg   ax,ax
  1013d3:	66 90                	xchg   ax,ax
  1013d5:	66 90                	xchg   ax,ax
  1013d7:	66 90                	xchg   ax,ax
  1013d9:	66 90                	xchg   ax,ax
  1013db:	66 90                	xchg   ax,ax
  1013dd:	66 90                	xchg   ax,ax
  1013df:	66 90                	xchg   ax,ax
  1013e1:	66 90                	xchg   ax,ax
  1013e3:	66 90                	xchg   ax,ax
  1013e5:	66 90                	xchg   ax,ax
  1013e7:	66 90                	xchg   ax,ax
  1013e9:	66 90                	xchg   ax,ax
  1013eb:	66 90                	xchg   ax,ax
  1013ed:	66 90                	xchg   ax,ax
  1013ef:	66 90                	xchg   ax,ax
  1013f1:	66 90                	xchg   ax,ax
  1013f3:	66 90                	xchg   ax,ax
  1013f5:	66 90                	xchg   ax,ax
  1013f7:	66 90                	xchg   ax,ax
  1013f9:	66 90                	xchg   ax,ax
  1013fb:	66 90                	xchg   ax,ax
  1013fd:	66 90                	xchg   ax,ax
  1013ff:	66 90                	xchg   ax,ax
  101401:	66 90                	xchg   ax,ax
  101403:	66 90                	xchg   ax,ax
  101405:	66 90                	xchg   ax,ax
  101407:	66 90                	xchg   ax,ax
  101409:	66 90                	xchg   ax,ax
  10140b:	66 90                	xchg   ax,ax
  10140d:	66 90                	xchg   ax,ax
  10140f:	66 90                	xchg   ax,ax
  101411:	66 90                	xchg   ax,ax
  101413:	66 90                	xchg   ax,ax
  101415:	66 90                	xchg   ax,ax
  101417:	66 90                	xchg   ax,ax
  101419:	66 90                	xchg   ax,ax
  10141b:	66 90                	xchg   ax,ax
  10141d:	66 90                	xchg   ax,ax
  10141f:	66 90                	xchg   ax,ax
  101421:	66 90                	xchg   ax,ax
  101423:	66 90                	xchg   ax,ax
  101425:	66 90                	xchg   ax,ax
  101427:	66 90                	xchg   ax,ax
  101429:	66 90                	xchg   ax,ax
  10142b:	66 90                	xchg   ax,ax
  10142d:	66 90                	xchg   ax,ax
  10142f:	66 90                	xchg   ax,ax
  101431:	66 90                	xchg   ax,ax
  101433:	66 90                	xchg   ax,ax
  101435:	66 90                	xchg   ax,ax
  101437:	66 90                	xchg   ax,ax
  101439:	66 90                	xchg   ax,ax
  10143b:	66 90                	xchg   ax,ax
  10143d:	66 90                	xchg   ax,ax
  10143f:	66 90                	xchg   ax,ax
  101441:	66 90                	xchg   ax,ax
  101443:	66 90                	xchg   ax,ax
  101445:	66 90                	xchg   ax,ax
  101447:	66 90                	xchg   ax,ax
  101449:	66 90                	xchg   ax,ax
  10144b:	66 90                	xchg   ax,ax
  10144d:	66 90                	xchg   ax,ax
  10144f:	66 90                	xchg   ax,ax
  101451:	66 90                	xchg   ax,ax
  101453:	66 90                	xchg   ax,ax
  101455:	66 90                	xchg   ax,ax
  101457:	66 90                	xchg   ax,ax
  101459:	66 90                	xchg   ax,ax
  10145b:	66 90                	xchg   ax,ax
  10145d:	66 90                	xchg   ax,ax
  10145f:	66 90                	xchg   ax,ax
  101461:	66 90                	xchg   ax,ax
  101463:	66 90                	xchg   ax,ax
  101465:	66 90                	xchg   ax,ax
  101467:	66 90                	xchg   ax,ax
  101469:	66 90                	xchg   ax,ax
  10146b:	66 90                	xchg   ax,ax
  10146d:	66 90                	xchg   ax,ax
  10146f:	66 90                	xchg   ax,ax
  101471:	66 90                	xchg   ax,ax
  101473:	66 90                	xchg   ax,ax
  101475:	66 90                	xchg   ax,ax
  101477:	66 90                	xchg   ax,ax
  101479:	66 90                	xchg   ax,ax
  10147b:	66 90                	xchg   ax,ax
  10147d:	66 90                	xchg   ax,ax
  10147f:	66 90                	xchg   ax,ax
  101481:	66 90                	xchg   ax,ax
  101483:	66 90                	xchg   ax,ax
  101485:	66 90                	xchg   ax,ax
  101487:	66 90                	xchg   ax,ax
  101489:	66 90                	xchg   ax,ax
  10148b:	66 90                	xchg   ax,ax
  10148d:	66 90                	xchg   ax,ax
  10148f:	66 90                	xchg   ax,ax
  101491:	66 90                	xchg   ax,ax
  101493:	66 90                	xchg   ax,ax
  101495:	66 90                	xchg   ax,ax
  101497:	66 90                	xchg   ax,ax
  101499:	66 90                	xchg   ax,ax
  10149b:	66 90                	xchg   ax,ax
  10149d:	66 90                	xchg   ax,ax
  10149f:	66 90                	xchg   ax,ax
  1014a1:	66 90                	xchg   ax,ax
  1014a3:	66 90                	xchg   ax,ax
  1014a5:	66 90                	xchg   ax,ax
  1014a7:	66 90                	xchg   ax,ax
  1014a9:	66 90                	xchg   ax,ax
  1014ab:	66 90                	xchg   ax,ax
  1014ad:	66 90                	xchg   ax,ax
  1014af:	66 90                	xchg   ax,ax
  1014b1:	66 90                	xchg   ax,ax
  1014b3:	66 90                	xchg   ax,ax
  1014b5:	66 90                	xchg   ax,ax
  1014b7:	66 90                	xchg   ax,ax
  1014b9:	66 90                	xchg   ax,ax
  1014bb:	66 90                	xchg   ax,ax
  1014bd:	66 90                	xchg   ax,ax
  1014bf:	66 90                	xchg   ax,ax
  1014c1:	66 90                	xchg   ax,ax
  1014c3:	66 90                	xchg   ax,ax
  1014c5:	66 90                	xchg   ax,ax
  1014c7:	66 90                	xchg   ax,ax
  1014c9:	66 90                	xchg   ax,ax
  1014cb:	66 90                	xchg   ax,ax
  1014cd:	66 90                	xchg   ax,ax
  1014cf:	66 90                	xchg   ax,ax
  1014d1:	66 90                	xchg   ax,ax
  1014d3:	66 90                	xchg   ax,ax
  1014d5:	66 90                	xchg   ax,ax
  1014d7:	66 90                	xchg   ax,ax
  1014d9:	66 90                	xchg   ax,ax
  1014db:	66 90                	xchg   ax,ax
  1014dd:	66 90                	xchg   ax,ax
  1014df:	66 90                	xchg   ax,ax
  1014e1:	66 90                	xchg   ax,ax
  1014e3:	66 90                	xchg   ax,ax
  1014e5:	66 90                	xchg   ax,ax
  1014e7:	66 90                	xchg   ax,ax
  1014e9:	66 90                	xchg   ax,ax
  1014eb:	66 90                	xchg   ax,ax
  1014ed:	66 90                	xchg   ax,ax
  1014ef:	66 90                	xchg   ax,ax
  1014f1:	66 90                	xchg   ax,ax
  1014f3:	66 90                	xchg   ax,ax
  1014f5:	66 90                	xchg   ax,ax
  1014f7:	66 90                	xchg   ax,ax
  1014f9:	66 90                	xchg   ax,ax
  1014fb:	66 90                	xchg   ax,ax
  1014fd:	66 90                	xchg   ax,ax
  1014ff:	66 90                	xchg   ax,ax
  101501:	66 90                	xchg   ax,ax
  101503:	66 90                	xchg   ax,ax
  101505:	66 90                	xchg   ax,ax
  101507:	66 90                	xchg   ax,ax
  101509:	66 90                	xchg   ax,ax
  10150b:	66 90                	xchg   ax,ax
  10150d:	66 90                	xchg   ax,ax
  10150f:	66 90                	xchg   ax,ax
  101511:	66 90                	xchg   ax,ax
  101513:	66 90                	xchg   ax,ax
  101515:	66 90                	xchg   ax,ax
  101517:	66 90                	xchg   ax,ax
  101519:	66 90                	xchg   ax,ax
  10151b:	66 90                	xchg   ax,ax
  10151d:	66 90                	xchg   ax,ax
  10151f:	66 90                	xchg   ax,ax
  101521:	66 90                	xchg   ax,ax
  101523:	66 90                	xchg   ax,ax
  101525:	66 90                	xchg   ax,ax
  101527:	66 90                	xchg   ax,ax
  101529:	66 90                	xchg   ax,ax
  10152b:	66 90                	xchg   ax,ax
  10152d:	66 90                	xchg   ax,ax
  10152f:	66 90                	xchg   ax,ax
  101531:	66 90                	xchg   ax,ax
  101533:	66 90                	xchg   ax,ax
  101535:	66 90                	xchg   ax,ax
  101537:	66 90                	xchg   ax,ax
  101539:	66 90                	xchg   ax,ax
  10153b:	66 90                	xchg   ax,ax
  10153d:	66 90                	xchg   ax,ax
  10153f:	66 90                	xchg   ax,ax
  101541:	66 90                	xchg   ax,ax
  101543:	66 90                	xchg   ax,ax
  101545:	66 90                	xchg   ax,ax
  101547:	66 90                	xchg   ax,ax
  101549:	66 90                	xchg   ax,ax
  10154b:	66 90                	xchg   ax,ax
  10154d:	66 90                	xchg   ax,ax
  10154f:	66 90                	xchg   ax,ax
  101551:	66 90                	xchg   ax,ax
  101553:	66 90                	xchg   ax,ax
  101555:	66 90                	xchg   ax,ax
  101557:	66 90                	xchg   ax,ax
  101559:	66 90                	xchg   ax,ax
  10155b:	66 90                	xchg   ax,ax
  10155d:	66 90                	xchg   ax,ax
  10155f:	66 90                	xchg   ax,ax
  101561:	66 90                	xchg   ax,ax
  101563:	66 90                	xchg   ax,ax
  101565:	66 90                	xchg   ax,ax
  101567:	66 90                	xchg   ax,ax
  101569:	66 90                	xchg   ax,ax
  10156b:	66 90                	xchg   ax,ax
  10156d:	66 90                	xchg   ax,ax
  10156f:	66 90                	xchg   ax,ax
  101571:	66 90                	xchg   ax,ax
  101573:	66 90                	xchg   ax,ax
  101575:	66 90                	xchg   ax,ax
  101577:	66 90                	xchg   ax,ax
  101579:	66 90                	xchg   ax,ax
  10157b:	66 90                	xchg   ax,ax
  10157d:	66 90                	xchg   ax,ax
  10157f:	66 90                	xchg   ax,ax
  101581:	66 90                	xchg   ax,ax
  101583:	66 90                	xchg   ax,ax
  101585:	66 90                	xchg   ax,ax
  101587:	66 90                	xchg   ax,ax
  101589:	66 90                	xchg   ax,ax
  10158b:	66 90                	xchg   ax,ax
  10158d:	66 90                	xchg   ax,ax
  10158f:	66 90                	xchg   ax,ax
  101591:	66 90                	xchg   ax,ax
  101593:	66 90                	xchg   ax,ax
  101595:	66 90                	xchg   ax,ax
  101597:	66 90                	xchg   ax,ax
  101599:	66 90                	xchg   ax,ax
  10159b:	66 90                	xchg   ax,ax
  10159d:	66 90                	xchg   ax,ax
  10159f:	66 90                	xchg   ax,ax
  1015a1:	66 90                	xchg   ax,ax
  1015a3:	66 90                	xchg   ax,ax
  1015a5:	66 90                	xchg   ax,ax
  1015a7:	66 90                	xchg   ax,ax
  1015a9:	66 90                	xchg   ax,ax
  1015ab:	66 90                	xchg   ax,ax
  1015ad:	66 90                	xchg   ax,ax
  1015af:	66 90                	xchg   ax,ax
  1015b1:	66 90                	xchg   ax,ax
  1015b3:	66 90                	xchg   ax,ax
  1015b5:	66 90                	xchg   ax,ax
  1015b7:	66 90                	xchg   ax,ax
  1015b9:	66 90                	xchg   ax,ax
  1015bb:	66 90                	xchg   ax,ax
  1015bd:	66 90                	xchg   ax,ax
  1015bf:	66 90                	xchg   ax,ax
  1015c1:	66 90                	xchg   ax,ax
  1015c3:	66 90                	xchg   ax,ax
  1015c5:	66 90                	xchg   ax,ax
  1015c7:	66 90                	xchg   ax,ax
  1015c9:	66 90                	xchg   ax,ax
  1015cb:	66 90                	xchg   ax,ax
  1015cd:	66 90                	xchg   ax,ax
  1015cf:	66 90                	xchg   ax,ax
  1015d1:	66 90                	xchg   ax,ax
  1015d3:	66 90                	xchg   ax,ax
  1015d5:	66 90                	xchg   ax,ax
  1015d7:	66 90                	xchg   ax,ax
  1015d9:	66 90                	xchg   ax,ax
  1015db:	66 90                	xchg   ax,ax
  1015dd:	66 90                	xchg   ax,ax
  1015df:	66 90                	xchg   ax,ax
  1015e1:	66 90                	xchg   ax,ax
  1015e3:	66 90                	xchg   ax,ax
  1015e5:	66 90                	xchg   ax,ax
  1015e7:	66 90                	xchg   ax,ax
  1015e9:	66 90                	xchg   ax,ax
  1015eb:	66 90                	xchg   ax,ax
  1015ed:	66 90                	xchg   ax,ax
  1015ef:	66 90                	xchg   ax,ax
  1015f1:	66 90                	xchg   ax,ax
  1015f3:	66 90                	xchg   ax,ax
  1015f5:	66 90                	xchg   ax,ax
  1015f7:	66 90                	xchg   ax,ax
  1015f9:	66 90                	xchg   ax,ax
  1015fb:	66 90                	xchg   ax,ax
  1015fd:	66 90                	xchg   ax,ax
  1015ff:	66 90                	xchg   ax,ax
  101601:	66 90                	xchg   ax,ax
  101603:	66 90                	xchg   ax,ax
  101605:	66 90                	xchg   ax,ax
  101607:	66 90                	xchg   ax,ax
  101609:	66 90                	xchg   ax,ax
  10160b:	66 90                	xchg   ax,ax
  10160d:	66 90                	xchg   ax,ax
  10160f:	66 90                	xchg   ax,ax
  101611:	66 90                	xchg   ax,ax
  101613:	66 90                	xchg   ax,ax
  101615:	66 90                	xchg   ax,ax
  101617:	66 90                	xchg   ax,ax
  101619:	66 90                	xchg   ax,ax
  10161b:	66 90                	xchg   ax,ax
  10161d:	66 90                	xchg   ax,ax
  10161f:	66 90                	xchg   ax,ax
  101621:	66 90                	xchg   ax,ax
  101623:	66 90                	xchg   ax,ax
  101625:	66 90                	xchg   ax,ax
  101627:	66 90                	xchg   ax,ax
  101629:	66 90                	xchg   ax,ax
  10162b:	66 90                	xchg   ax,ax
  10162d:	66 90                	xchg   ax,ax
  10162f:	66 90                	xchg   ax,ax
  101631:	66 90                	xchg   ax,ax
  101633:	66 90                	xchg   ax,ax
  101635:	66 90                	xchg   ax,ax
  101637:	66 90                	xchg   ax,ax
  101639:	66 90                	xchg   ax,ax
  10163b:	66 90                	xchg   ax,ax
  10163d:	66 90                	xchg   ax,ax
  10163f:	66 90                	xchg   ax,ax
  101641:	66 90                	xchg   ax,ax
  101643:	66 90                	xchg   ax,ax
  101645:	66 90                	xchg   ax,ax
  101647:	66 90                	xchg   ax,ax
  101649:	66 90                	xchg   ax,ax
  10164b:	66 90                	xchg   ax,ax
  10164d:	66 90                	xchg   ax,ax
  10164f:	66 90                	xchg   ax,ax
  101651:	66 90                	xchg   ax,ax
  101653:	66 90                	xchg   ax,ax
  101655:	66 90                	xchg   ax,ax
  101657:	66 90                	xchg   ax,ax
  101659:	66 90                	xchg   ax,ax
  10165b:	66 90                	xchg   ax,ax
  10165d:	66 90                	xchg   ax,ax
  10165f:	66 90                	xchg   ax,ax
  101661:	66 90                	xchg   ax,ax
  101663:	66 90                	xchg   ax,ax
  101665:	66 90                	xchg   ax,ax
  101667:	66 90                	xchg   ax,ax
  101669:	66 90                	xchg   ax,ax
  10166b:	66 90                	xchg   ax,ax
  10166d:	66 90                	xchg   ax,ax
  10166f:	66 90                	xchg   ax,ax
  101671:	66 90                	xchg   ax,ax
  101673:	66 90                	xchg   ax,ax
  101675:	66 90                	xchg   ax,ax
  101677:	66 90                	xchg   ax,ax
  101679:	66 90                	xchg   ax,ax
  10167b:	66 90                	xchg   ax,ax
  10167d:	66 90                	xchg   ax,ax
  10167f:	66 90                	xchg   ax,ax
  101681:	66 90                	xchg   ax,ax
  101683:	66 90                	xchg   ax,ax
  101685:	66 90                	xchg   ax,ax
  101687:	66 90                	xchg   ax,ax
  101689:	66 90                	xchg   ax,ax
  10168b:	66 90                	xchg   ax,ax
  10168d:	66 90                	xchg   ax,ax
  10168f:	66 90                	xchg   ax,ax
  101691:	66 90                	xchg   ax,ax
  101693:	66 90                	xchg   ax,ax
  101695:	66 90                	xchg   ax,ax
  101697:	66 90                	xchg   ax,ax
  101699:	66 90                	xchg   ax,ax
  10169b:	66 90                	xchg   ax,ax
  10169d:	66 90                	xchg   ax,ax
  10169f:	66 90                	xchg   ax,ax
  1016a1:	66 90                	xchg   ax,ax
  1016a3:	66 90                	xchg   ax,ax
  1016a5:	66 90                	xchg   ax,ax
  1016a7:	66 90                	xchg   ax,ax
  1016a9:	66 90                	xchg   ax,ax
  1016ab:	66 90                	xchg   ax,ax
  1016ad:	66 90                	xchg   ax,ax
  1016af:	66 90                	xchg   ax,ax
  1016b1:	66 90                	xchg   ax,ax
  1016b3:	66 90                	xchg   ax,ax
  1016b5:	66 90                	xchg   ax,ax
  1016b7:	66 90                	xchg   ax,ax
  1016b9:	66 90                	xchg   ax,ax
  1016bb:	66 90                	xchg   ax,ax
  1016bd:	66 90                	xchg   ax,ax
  1016bf:	66 90                	xchg   ax,ax
  1016c1:	66 90                	xchg   ax,ax
  1016c3:	66 90                	xchg   ax,ax
  1016c5:	66 90                	xchg   ax,ax
  1016c7:	66 90                	xchg   ax,ax
  1016c9:	66 90                	xchg   ax,ax
  1016cb:	66 90                	xchg   ax,ax
  1016cd:	66 90                	xchg   ax,ax
  1016cf:	66 90                	xchg   ax,ax
  1016d1:	66 90                	xchg   ax,ax
  1016d3:	66 90                	xchg   ax,ax
  1016d5:	66 90                	xchg   ax,ax
  1016d7:	66 90                	xchg   ax,ax
  1016d9:	66 90                	xchg   ax,ax
  1016db:	66 90                	xchg   ax,ax
  1016dd:	66 90                	xchg   ax,ax
  1016df:	66 90                	xchg   ax,ax
  1016e1:	66 90                	xchg   ax,ax
  1016e3:	66 90                	xchg   ax,ax
  1016e5:	66 90                	xchg   ax,ax
  1016e7:	66 90                	xchg   ax,ax
  1016e9:	66 90                	xchg   ax,ax
  1016eb:	66 90                	xchg   ax,ax
  1016ed:	66 90                	xchg   ax,ax
  1016ef:	66 90                	xchg   ax,ax
  1016f1:	66 90                	xchg   ax,ax
  1016f3:	66 90                	xchg   ax,ax
  1016f5:	66 90                	xchg   ax,ax
  1016f7:	66 90                	xchg   ax,ax
  1016f9:	66 90                	xchg   ax,ax
  1016fb:	66 90                	xchg   ax,ax
  1016fd:	66 90                	xchg   ax,ax
  1016ff:	66 90                	xchg   ax,ax
  101701:	66 90                	xchg   ax,ax
  101703:	66 90                	xchg   ax,ax
  101705:	66 90                	xchg   ax,ax
  101707:	66 90                	xchg   ax,ax
  101709:	66 90                	xchg   ax,ax
  10170b:	66 90                	xchg   ax,ax
  10170d:	66 90                	xchg   ax,ax
  10170f:	66 90                	xchg   ax,ax
  101711:	66 90                	xchg   ax,ax
  101713:	66 90                	xchg   ax,ax
  101715:	66 90                	xchg   ax,ax
  101717:	66 90                	xchg   ax,ax
  101719:	66 90                	xchg   ax,ax
  10171b:	66 90                	xchg   ax,ax
  10171d:	66 90                	xchg   ax,ax
  10171f:	66 90                	xchg   ax,ax
  101721:	66 90                	xchg   ax,ax
  101723:	66 90                	xchg   ax,ax
  101725:	66 90                	xchg   ax,ax
  101727:	66 90                	xchg   ax,ax
  101729:	66 90                	xchg   ax,ax
  10172b:	66 90                	xchg   ax,ax
  10172d:	66 90                	xchg   ax,ax
  10172f:	66 90                	xchg   ax,ax
  101731:	66 90                	xchg   ax,ax
  101733:	66 90                	xchg   ax,ax
  101735:	66 90                	xchg   ax,ax
  101737:	66 90                	xchg   ax,ax
  101739:	66 90                	xchg   ax,ax
  10173b:	66 90                	xchg   ax,ax
  10173d:	66 90                	xchg   ax,ax
  10173f:	66 90                	xchg   ax,ax
  101741:	66 90                	xchg   ax,ax
  101743:	66 90                	xchg   ax,ax
  101745:	66 90                	xchg   ax,ax
  101747:	66 90                	xchg   ax,ax
  101749:	66 90                	xchg   ax,ax
  10174b:	66 90                	xchg   ax,ax
  10174d:	66 90                	xchg   ax,ax
  10174f:	66 90                	xchg   ax,ax
  101751:	66 90                	xchg   ax,ax
  101753:	66 90                	xchg   ax,ax
  101755:	66 90                	xchg   ax,ax
  101757:	66 90                	xchg   ax,ax
  101759:	66 90                	xchg   ax,ax
  10175b:	66 90                	xchg   ax,ax
  10175d:	66 90                	xchg   ax,ax
  10175f:	66 90                	xchg   ax,ax
  101761:	66 90                	xchg   ax,ax
  101763:	66 90                	xchg   ax,ax
  101765:	66 90                	xchg   ax,ax
  101767:	66 90                	xchg   ax,ax
  101769:	66 90                	xchg   ax,ax
  10176b:	66 90                	xchg   ax,ax
  10176d:	66 90                	xchg   ax,ax
  10176f:	66 90                	xchg   ax,ax
  101771:	66 90                	xchg   ax,ax
  101773:	66 90                	xchg   ax,ax
  101775:	66 90                	xchg   ax,ax
  101777:	66 90                	xchg   ax,ax
  101779:	66 90                	xchg   ax,ax
  10177b:	66 90                	xchg   ax,ax
  10177d:	66 90                	xchg   ax,ax
  10177f:	66 90                	xchg   ax,ax
  101781:	66 90                	xchg   ax,ax
  101783:	66 90                	xchg   ax,ax
  101785:	66 90                	xchg   ax,ax
  101787:	66 90                	xchg   ax,ax
  101789:	66 90                	xchg   ax,ax
  10178b:	66 90                	xchg   ax,ax
  10178d:	66 90                	xchg   ax,ax
  10178f:	66 90                	xchg   ax,ax
  101791:	66 90                	xchg   ax,ax
  101793:	66 90                	xchg   ax,ax
  101795:	66 90                	xchg   ax,ax
  101797:	66 90                	xchg   ax,ax
  101799:	66 90                	xchg   ax,ax
  10179b:	66 90                	xchg   ax,ax
  10179d:	66 90                	xchg   ax,ax
  10179f:	66 90                	xchg   ax,ax
  1017a1:	66 90                	xchg   ax,ax
  1017a3:	66 90                	xchg   ax,ax
  1017a5:	66 90                	xchg   ax,ax
  1017a7:	66 90                	xchg   ax,ax
  1017a9:	66 90                	xchg   ax,ax
  1017ab:	66 90                	xchg   ax,ax
  1017ad:	66 90                	xchg   ax,ax
  1017af:	66 90                	xchg   ax,ax
  1017b1:	66 90                	xchg   ax,ax
  1017b3:	66 90                	xchg   ax,ax
  1017b5:	66 90                	xchg   ax,ax
  1017b7:	66 90                	xchg   ax,ax
  1017b9:	66 90                	xchg   ax,ax
  1017bb:	66 90                	xchg   ax,ax
  1017bd:	66 90                	xchg   ax,ax
  1017bf:	66 90                	xchg   ax,ax
  1017c1:	66 90                	xchg   ax,ax
  1017c3:	66 90                	xchg   ax,ax
  1017c5:	66 90                	xchg   ax,ax
  1017c7:	66 90                	xchg   ax,ax
  1017c9:	66 90                	xchg   ax,ax
  1017cb:	66 90                	xchg   ax,ax
  1017cd:	66 90                	xchg   ax,ax
  1017cf:	66 90                	xchg   ax,ax
  1017d1:	66 90                	xchg   ax,ax
  1017d3:	66 90                	xchg   ax,ax
  1017d5:	66 90                	xchg   ax,ax
  1017d7:	66 90                	xchg   ax,ax
  1017d9:	66 90                	xchg   ax,ax
  1017db:	66 90                	xchg   ax,ax
  1017dd:	66 90                	xchg   ax,ax
  1017df:	66 90                	xchg   ax,ax
  1017e1:	66 90                	xchg   ax,ax
  1017e3:	66 90                	xchg   ax,ax
  1017e5:	66 90                	xchg   ax,ax
  1017e7:	66 90                	xchg   ax,ax
  1017e9:	66 90                	xchg   ax,ax
  1017eb:	66 90                	xchg   ax,ax
  1017ed:	66 90                	xchg   ax,ax
  1017ef:	66 90                	xchg   ax,ax
  1017f1:	66 90                	xchg   ax,ax
  1017f3:	66 90                	xchg   ax,ax
  1017f5:	66 90                	xchg   ax,ax
  1017f7:	66 90                	xchg   ax,ax
  1017f9:	66 90                	xchg   ax,ax
  1017fb:	66 90                	xchg   ax,ax
  1017fd:	66 90                	xchg   ax,ax
  1017ff:	66 90                	xchg   ax,ax
  101801:	66 90                	xchg   ax,ax
  101803:	66 90                	xchg   ax,ax
  101805:	66 90                	xchg   ax,ax
  101807:	66 90                	xchg   ax,ax
  101809:	66 90                	xchg   ax,ax
  10180b:	66 90                	xchg   ax,ax
  10180d:	66 90                	xchg   ax,ax
  10180f:	66 90                	xchg   ax,ax
  101811:	66 90                	xchg   ax,ax
  101813:	66 90                	xchg   ax,ax
  101815:	66 90                	xchg   ax,ax
  101817:	66 90                	xchg   ax,ax
  101819:	66 90                	xchg   ax,ax
  10181b:	66 90                	xchg   ax,ax
  10181d:	66 90                	xchg   ax,ax
  10181f:	66 90                	xchg   ax,ax
  101821:	66 90                	xchg   ax,ax
  101823:	66 90                	xchg   ax,ax
  101825:	66 90                	xchg   ax,ax
  101827:	66 90                	xchg   ax,ax
  101829:	66 90                	xchg   ax,ax
  10182b:	66 90                	xchg   ax,ax
  10182d:	66 90                	xchg   ax,ax
  10182f:	66 90                	xchg   ax,ax
  101831:	66 90                	xchg   ax,ax
  101833:	66 90                	xchg   ax,ax
  101835:	66 90                	xchg   ax,ax
  101837:	66 90                	xchg   ax,ax
  101839:	66 90                	xchg   ax,ax
  10183b:	66 90                	xchg   ax,ax
  10183d:	66 90                	xchg   ax,ax
  10183f:	66 90                	xchg   ax,ax
  101841:	66 90                	xchg   ax,ax
  101843:	66 90                	xchg   ax,ax
  101845:	66 90                	xchg   ax,ax
  101847:	66 90                	xchg   ax,ax
  101849:	66 90                	xchg   ax,ax
  10184b:	66 90                	xchg   ax,ax
  10184d:	66 90                	xchg   ax,ax
  10184f:	66 90                	xchg   ax,ax
  101851:	66 90                	xchg   ax,ax
  101853:	66 90                	xchg   ax,ax
  101855:	66 90                	xchg   ax,ax
  101857:	66 90                	xchg   ax,ax
  101859:	66 90                	xchg   ax,ax
  10185b:	66 90                	xchg   ax,ax
  10185d:	66 90                	xchg   ax,ax
  10185f:	66 90                	xchg   ax,ax
  101861:	66 90                	xchg   ax,ax
  101863:	66 90                	xchg   ax,ax
  101865:	66 90                	xchg   ax,ax
  101867:	66 90                	xchg   ax,ax
  101869:	66 90                	xchg   ax,ax
  10186b:	66 90                	xchg   ax,ax
  10186d:	66 90                	xchg   ax,ax
  10186f:	66 90                	xchg   ax,ax
  101871:	66 90                	xchg   ax,ax
  101873:	66 90                	xchg   ax,ax
  101875:	66 90                	xchg   ax,ax
  101877:	66 90                	xchg   ax,ax
  101879:	66 90                	xchg   ax,ax
  10187b:	66 90                	xchg   ax,ax
  10187d:	66 90                	xchg   ax,ax
  10187f:	66 90                	xchg   ax,ax
  101881:	66 90                	xchg   ax,ax
  101883:	66 90                	xchg   ax,ax
  101885:	66 90                	xchg   ax,ax
  101887:	66 90                	xchg   ax,ax
  101889:	66 90                	xchg   ax,ax
  10188b:	66 90                	xchg   ax,ax
  10188d:	66 90                	xchg   ax,ax
  10188f:	66 90                	xchg   ax,ax
  101891:	66 90                	xchg   ax,ax
  101893:	66 90                	xchg   ax,ax
  101895:	66 90                	xchg   ax,ax
  101897:	66 90                	xchg   ax,ax
  101899:	66 90                	xchg   ax,ax
  10189b:	66 90                	xchg   ax,ax
  10189d:	66 90                	xchg   ax,ax
  10189f:	66 90                	xchg   ax,ax
  1018a1:	66 90                	xchg   ax,ax
  1018a3:	66 90                	xchg   ax,ax
  1018a5:	66 90                	xchg   ax,ax
  1018a7:	66 90                	xchg   ax,ax
  1018a9:	66 90                	xchg   ax,ax
  1018ab:	66 90                	xchg   ax,ax
  1018ad:	66 90                	xchg   ax,ax
  1018af:	66 90                	xchg   ax,ax
  1018b1:	66 90                	xchg   ax,ax
  1018b3:	66 90                	xchg   ax,ax
  1018b5:	66 90                	xchg   ax,ax
  1018b7:	66 90                	xchg   ax,ax
  1018b9:	66 90                	xchg   ax,ax
  1018bb:	66 90                	xchg   ax,ax
  1018bd:	66 90                	xchg   ax,ax
  1018bf:	66 90                	xchg   ax,ax
  1018c1:	66 90                	xchg   ax,ax
  1018c3:	66 90                	xchg   ax,ax
  1018c5:	66 90                	xchg   ax,ax
  1018c7:	66 90                	xchg   ax,ax
  1018c9:	66 90                	xchg   ax,ax
  1018cb:	66 90                	xchg   ax,ax
  1018cd:	66 90                	xchg   ax,ax
  1018cf:	66 90                	xchg   ax,ax
  1018d1:	66 90                	xchg   ax,ax
  1018d3:	66 90                	xchg   ax,ax
  1018d5:	66 90                	xchg   ax,ax
  1018d7:	66 90                	xchg   ax,ax
  1018d9:	66 90                	xchg   ax,ax
  1018db:	66 90                	xchg   ax,ax
  1018dd:	66 90                	xchg   ax,ax
  1018df:	66 90                	xchg   ax,ax
  1018e1:	66 90                	xchg   ax,ax
  1018e3:	66 90                	xchg   ax,ax
  1018e5:	66 90                	xchg   ax,ax
  1018e7:	66 90                	xchg   ax,ax
  1018e9:	66 90                	xchg   ax,ax
  1018eb:	66 90                	xchg   ax,ax
  1018ed:	66 90                	xchg   ax,ax
  1018ef:	66 90                	xchg   ax,ax
  1018f1:	66 90                	xchg   ax,ax
  1018f3:	66 90                	xchg   ax,ax
  1018f5:	66 90                	xchg   ax,ax
  1018f7:	66 90                	xchg   ax,ax
  1018f9:	66 90                	xchg   ax,ax
  1018fb:	66 90                	xchg   ax,ax
  1018fd:	66 90                	xchg   ax,ax
  1018ff:	66 90                	xchg   ax,ax
  101901:	66 90                	xchg   ax,ax
  101903:	66 90                	xchg   ax,ax
  101905:	66 90                	xchg   ax,ax
  101907:	66 90                	xchg   ax,ax
  101909:	66 90                	xchg   ax,ax
  10190b:	66 90                	xchg   ax,ax
  10190d:	66 90                	xchg   ax,ax
  10190f:	66 90                	xchg   ax,ax
  101911:	66 90                	xchg   ax,ax
  101913:	66 90                	xchg   ax,ax
  101915:	66 90                	xchg   ax,ax
  101917:	66 90                	xchg   ax,ax
  101919:	66 90                	xchg   ax,ax
  10191b:	66 90                	xchg   ax,ax
  10191d:	66 90                	xchg   ax,ax
  10191f:	66 90                	xchg   ax,ax
  101921:	66 90                	xchg   ax,ax
  101923:	66 90                	xchg   ax,ax
  101925:	66 90                	xchg   ax,ax
  101927:	66 90                	xchg   ax,ax
  101929:	66 90                	xchg   ax,ax
  10192b:	66 90                	xchg   ax,ax
  10192d:	66 90                	xchg   ax,ax
  10192f:	66 90                	xchg   ax,ax
  101931:	66 90                	xchg   ax,ax
  101933:	66 90                	xchg   ax,ax
  101935:	66 90                	xchg   ax,ax
  101937:	66 90                	xchg   ax,ax
  101939:	66 90                	xchg   ax,ax
  10193b:	66 90                	xchg   ax,ax
  10193d:	66 90                	xchg   ax,ax
  10193f:	66 90                	xchg   ax,ax
  101941:	66 90                	xchg   ax,ax
  101943:	66 90                	xchg   ax,ax
  101945:	66 90                	xchg   ax,ax
  101947:	66 90                	xchg   ax,ax
  101949:	66 90                	xchg   ax,ax
  10194b:	66 90                	xchg   ax,ax
  10194d:	66 90                	xchg   ax,ax
  10194f:	66 90                	xchg   ax,ax
  101951:	66 90                	xchg   ax,ax
  101953:	66 90                	xchg   ax,ax
  101955:	66 90                	xchg   ax,ax
  101957:	66 90                	xchg   ax,ax
  101959:	66 90                	xchg   ax,ax
  10195b:	66 90                	xchg   ax,ax
  10195d:	66 90                	xchg   ax,ax
  10195f:	66 90                	xchg   ax,ax
  101961:	66 90                	xchg   ax,ax
  101963:	66 90                	xchg   ax,ax
  101965:	66 90                	xchg   ax,ax
  101967:	66 90                	xchg   ax,ax
  101969:	66 90                	xchg   ax,ax
  10196b:	66 90                	xchg   ax,ax
  10196d:	66 90                	xchg   ax,ax
  10196f:	66 90                	xchg   ax,ax
  101971:	66 90                	xchg   ax,ax
  101973:	66 90                	xchg   ax,ax
  101975:	66 90                	xchg   ax,ax
  101977:	66 90                	xchg   ax,ax
  101979:	66 90                	xchg   ax,ax
  10197b:	66 90                	xchg   ax,ax
  10197d:	66 90                	xchg   ax,ax
  10197f:	66 90                	xchg   ax,ax
  101981:	66 90                	xchg   ax,ax
  101983:	66 90                	xchg   ax,ax
  101985:	66 90                	xchg   ax,ax
  101987:	66 90                	xchg   ax,ax
  101989:	66 90                	xchg   ax,ax
  10198b:	66 90                	xchg   ax,ax
  10198d:	66 90                	xchg   ax,ax
  10198f:	66 90                	xchg   ax,ax
  101991:	66 90                	xchg   ax,ax
  101993:	66 90                	xchg   ax,ax
  101995:	66 90                	xchg   ax,ax
  101997:	66 90                	xchg   ax,ax
  101999:	66 90                	xchg   ax,ax
  10199b:	66 90                	xchg   ax,ax
  10199d:	66 90                	xchg   ax,ax
  10199f:	66 90                	xchg   ax,ax
  1019a1:	66 90                	xchg   ax,ax
  1019a3:	66 90                	xchg   ax,ax
  1019a5:	66 90                	xchg   ax,ax
  1019a7:	66 90                	xchg   ax,ax
  1019a9:	66 90                	xchg   ax,ax
  1019ab:	66 90                	xchg   ax,ax
  1019ad:	66 90                	xchg   ax,ax
  1019af:	66 90                	xchg   ax,ax
  1019b1:	66 90                	xchg   ax,ax
  1019b3:	66 90                	xchg   ax,ax
  1019b5:	66 90                	xchg   ax,ax
  1019b7:	66 90                	xchg   ax,ax
  1019b9:	66 90                	xchg   ax,ax
  1019bb:	66 90                	xchg   ax,ax
  1019bd:	66 90                	xchg   ax,ax
  1019bf:	66 90                	xchg   ax,ax
  1019c1:	66 90                	xchg   ax,ax
  1019c3:	66 90                	xchg   ax,ax
  1019c5:	66 90                	xchg   ax,ax
  1019c7:	66 90                	xchg   ax,ax
  1019c9:	66 90                	xchg   ax,ax
  1019cb:	66 90                	xchg   ax,ax
  1019cd:	66 90                	xchg   ax,ax
  1019cf:	66 90                	xchg   ax,ax
  1019d1:	66 90                	xchg   ax,ax
  1019d3:	66 90                	xchg   ax,ax
  1019d5:	66 90                	xchg   ax,ax
  1019d7:	66 90                	xchg   ax,ax
  1019d9:	66 90                	xchg   ax,ax
  1019db:	66 90                	xchg   ax,ax
  1019dd:	66 90                	xchg   ax,ax
  1019df:	66 90                	xchg   ax,ax
  1019e1:	66 90                	xchg   ax,ax
  1019e3:	66 90                	xchg   ax,ax
  1019e5:	66 90                	xchg   ax,ax
  1019e7:	66 90                	xchg   ax,ax
  1019e9:	66 90                	xchg   ax,ax
  1019eb:	66 90                	xchg   ax,ax
  1019ed:	66 90                	xchg   ax,ax
  1019ef:	66 90                	xchg   ax,ax
  1019f1:	66 90                	xchg   ax,ax
  1019f3:	66 90                	xchg   ax,ax
  1019f5:	66 90                	xchg   ax,ax
  1019f7:	66 90                	xchg   ax,ax
  1019f9:	66 90                	xchg   ax,ax
  1019fb:	66 90                	xchg   ax,ax
  1019fd:	66 90                	xchg   ax,ax
  1019ff:	66 90                	xchg   ax,ax
  101a01:	66 90                	xchg   ax,ax
  101a03:	66 90                	xchg   ax,ax
  101a05:	66 90                	xchg   ax,ax
  101a07:	66 90                	xchg   ax,ax
  101a09:	66 90                	xchg   ax,ax
  101a0b:	66 90                	xchg   ax,ax
  101a0d:	66 90                	xchg   ax,ax
  101a0f:	66 90                	xchg   ax,ax
  101a11:	66 90                	xchg   ax,ax
  101a13:	66 90                	xchg   ax,ax
  101a15:	66 90                	xchg   ax,ax
  101a17:	66 90                	xchg   ax,ax
  101a19:	66 90                	xchg   ax,ax
  101a1b:	66 90                	xchg   ax,ax
  101a1d:	66 90                	xchg   ax,ax
  101a1f:	66 90                	xchg   ax,ax
  101a21:	66 90                	xchg   ax,ax
  101a23:	66 90                	xchg   ax,ax
  101a25:	66 90                	xchg   ax,ax
  101a27:	66 90                	xchg   ax,ax
  101a29:	66 90                	xchg   ax,ax
  101a2b:	66 90                	xchg   ax,ax
  101a2d:	66 90                	xchg   ax,ax
  101a2f:	66 90                	xchg   ax,ax
  101a31:	66 90                	xchg   ax,ax
  101a33:	66 90                	xchg   ax,ax
  101a35:	66 90                	xchg   ax,ax
  101a37:	66 90                	xchg   ax,ax
  101a39:	66 90                	xchg   ax,ax
  101a3b:	66 90                	xchg   ax,ax
  101a3d:	66 90                	xchg   ax,ax
  101a3f:	66 90                	xchg   ax,ax
  101a41:	66 90                	xchg   ax,ax
  101a43:	66 90                	xchg   ax,ax
  101a45:	66 90                	xchg   ax,ax
  101a47:	66 90                	xchg   ax,ax
  101a49:	66 90                	xchg   ax,ax
  101a4b:	66 90                	xchg   ax,ax
  101a4d:	66 90                	xchg   ax,ax
  101a4f:	66 90                	xchg   ax,ax
  101a51:	66 90                	xchg   ax,ax
  101a53:	66 90                	xchg   ax,ax
  101a55:	66 90                	xchg   ax,ax
  101a57:	66 90                	xchg   ax,ax
  101a59:	66 90                	xchg   ax,ax
  101a5b:	66 90                	xchg   ax,ax
  101a5d:	66 90                	xchg   ax,ax
  101a5f:	66 90                	xchg   ax,ax
  101a61:	66 90                	xchg   ax,ax
  101a63:	66 90                	xchg   ax,ax
  101a65:	66 90                	xchg   ax,ax
  101a67:	66 90                	xchg   ax,ax
  101a69:	66 90                	xchg   ax,ax
  101a6b:	66 90                	xchg   ax,ax
  101a6d:	66 90                	xchg   ax,ax
  101a6f:	66 90                	xchg   ax,ax
  101a71:	66 90                	xchg   ax,ax
  101a73:	66 90                	xchg   ax,ax
  101a75:	66 90                	xchg   ax,ax
  101a77:	66 90                	xchg   ax,ax
  101a79:	66 90                	xchg   ax,ax
  101a7b:	66 90                	xchg   ax,ax
  101a7d:	66 90                	xchg   ax,ax
  101a7f:	66 90                	xchg   ax,ax
  101a81:	66 90                	xchg   ax,ax
  101a83:	66 90                	xchg   ax,ax
  101a85:	66 90                	xchg   ax,ax
  101a87:	66 90                	xchg   ax,ax
  101a89:	66 90                	xchg   ax,ax
  101a8b:	66 90                	xchg   ax,ax
  101a8d:	66 90                	xchg   ax,ax
  101a8f:	66 90                	xchg   ax,ax
  101a91:	66 90                	xchg   ax,ax
  101a93:	66 90                	xchg   ax,ax
  101a95:	66 90                	xchg   ax,ax
  101a97:	66 90                	xchg   ax,ax
  101a99:	66 90                	xchg   ax,ax
  101a9b:	66 90                	xchg   ax,ax
  101a9d:	66 90                	xchg   ax,ax
  101a9f:	66 90                	xchg   ax,ax
  101aa1:	66 90                	xchg   ax,ax
  101aa3:	66 90                	xchg   ax,ax
  101aa5:	66 90                	xchg   ax,ax
  101aa7:	66 90                	xchg   ax,ax
  101aa9:	66 90                	xchg   ax,ax
  101aab:	66 90                	xchg   ax,ax
  101aad:	66 90                	xchg   ax,ax
  101aaf:	66 90                	xchg   ax,ax
  101ab1:	66 90                	xchg   ax,ax
  101ab3:	66 90                	xchg   ax,ax
  101ab5:	66 90                	xchg   ax,ax
  101ab7:	66 90                	xchg   ax,ax
  101ab9:	66 90                	xchg   ax,ax
  101abb:	66 90                	xchg   ax,ax
  101abd:	66 90                	xchg   ax,ax
  101abf:	66 90                	xchg   ax,ax
  101ac1:	66 90                	xchg   ax,ax
  101ac3:	66 90                	xchg   ax,ax
  101ac5:	66 90                	xchg   ax,ax
  101ac7:	66 90                	xchg   ax,ax
  101ac9:	66 90                	xchg   ax,ax
  101acb:	66 90                	xchg   ax,ax
  101acd:	66 90                	xchg   ax,ax
  101acf:	66 90                	xchg   ax,ax
  101ad1:	66 90                	xchg   ax,ax
  101ad3:	66 90                	xchg   ax,ax
  101ad5:	66 90                	xchg   ax,ax
  101ad7:	66 90                	xchg   ax,ax
  101ad9:	66 90                	xchg   ax,ax
  101adb:	66 90                	xchg   ax,ax
  101add:	66 90                	xchg   ax,ax
  101adf:	66 90                	xchg   ax,ax
  101ae1:	66 90                	xchg   ax,ax
  101ae3:	66 90                	xchg   ax,ax
  101ae5:	66 90                	xchg   ax,ax
  101ae7:	66 90                	xchg   ax,ax
  101ae9:	66 90                	xchg   ax,ax
  101aeb:	66 90                	xchg   ax,ax
  101aed:	66 90                	xchg   ax,ax
  101aef:	66 90                	xchg   ax,ax
  101af1:	66 90                	xchg   ax,ax
  101af3:	66 90                	xchg   ax,ax
  101af5:	66 90                	xchg   ax,ax
  101af7:	66 90                	xchg   ax,ax
  101af9:	66 90                	xchg   ax,ax
  101afb:	66 90                	xchg   ax,ax
  101afd:	66 90                	xchg   ax,ax
  101aff:	66 90                	xchg   ax,ax
  101b01:	66 90                	xchg   ax,ax
  101b03:	66 90                	xchg   ax,ax
  101b05:	66 90                	xchg   ax,ax
  101b07:	66 90                	xchg   ax,ax
  101b09:	66 90                	xchg   ax,ax
  101b0b:	66 90                	xchg   ax,ax
  101b0d:	66 90                	xchg   ax,ax
  101b0f:	66 90                	xchg   ax,ax
  101b11:	66 90                	xchg   ax,ax
  101b13:	66 90                	xchg   ax,ax
  101b15:	66 90                	xchg   ax,ax
  101b17:	66 90                	xchg   ax,ax
  101b19:	66 90                	xchg   ax,ax
  101b1b:	66 90                	xchg   ax,ax
  101b1d:	66 90                	xchg   ax,ax
  101b1f:	66 90                	xchg   ax,ax
  101b21:	66 90                	xchg   ax,ax
  101b23:	66 90                	xchg   ax,ax
  101b25:	66 90                	xchg   ax,ax
  101b27:	66 90                	xchg   ax,ax
  101b29:	66 90                	xchg   ax,ax
  101b2b:	66 90                	xchg   ax,ax
  101b2d:	66 90                	xchg   ax,ax
  101b2f:	66 90                	xchg   ax,ax
  101b31:	66 90                	xchg   ax,ax
  101b33:	66 90                	xchg   ax,ax
  101b35:	66 90                	xchg   ax,ax
  101b37:	66 90                	xchg   ax,ax
  101b39:	66 90                	xchg   ax,ax
  101b3b:	66 90                	xchg   ax,ax
  101b3d:	66 90                	xchg   ax,ax
  101b3f:	66 90                	xchg   ax,ax
  101b41:	66 90                	xchg   ax,ax
  101b43:	66 90                	xchg   ax,ax
  101b45:	66 90                	xchg   ax,ax
  101b47:	66 90                	xchg   ax,ax
  101b49:	66 90                	xchg   ax,ax
  101b4b:	66 90                	xchg   ax,ax
  101b4d:	66 90                	xchg   ax,ax
  101b4f:	66 90                	xchg   ax,ax
  101b51:	66 90                	xchg   ax,ax
  101b53:	66 90                	xchg   ax,ax
  101b55:	66 90                	xchg   ax,ax
  101b57:	66 90                	xchg   ax,ax
  101b59:	66 90                	xchg   ax,ax
  101b5b:	66 90                	xchg   ax,ax
  101b5d:	66 90                	xchg   ax,ax
  101b5f:	66 90                	xchg   ax,ax
  101b61:	66 90                	xchg   ax,ax
  101b63:	66 90                	xchg   ax,ax
  101b65:	66 90                	xchg   ax,ax
  101b67:	66 90                	xchg   ax,ax
  101b69:	66 90                	xchg   ax,ax
  101b6b:	66 90                	xchg   ax,ax
  101b6d:	66 90                	xchg   ax,ax
  101b6f:	66 90                	xchg   ax,ax
  101b71:	66 90                	xchg   ax,ax
  101b73:	66 90                	xchg   ax,ax
  101b75:	66 90                	xchg   ax,ax
  101b77:	66 90                	xchg   ax,ax
  101b79:	66 90                	xchg   ax,ax
  101b7b:	66 90                	xchg   ax,ax
  101b7d:	66 90                	xchg   ax,ax
  101b7f:	66 90                	xchg   ax,ax
  101b81:	66 90                	xchg   ax,ax
  101b83:	66 90                	xchg   ax,ax
  101b85:	66 90                	xchg   ax,ax
  101b87:	66 90                	xchg   ax,ax
  101b89:	66 90                	xchg   ax,ax
  101b8b:	66 90                	xchg   ax,ax
  101b8d:	66 90                	xchg   ax,ax
  101b8f:	66 90                	xchg   ax,ax
  101b91:	66 90                	xchg   ax,ax
  101b93:	66 90                	xchg   ax,ax
  101b95:	66 90                	xchg   ax,ax
  101b97:	66 90                	xchg   ax,ax
  101b99:	66 90                	xchg   ax,ax
  101b9b:	66 90                	xchg   ax,ax
  101b9d:	66 90                	xchg   ax,ax
  101b9f:	66 90                	xchg   ax,ax
  101ba1:	66 90                	xchg   ax,ax
  101ba3:	66 90                	xchg   ax,ax
  101ba5:	66 90                	xchg   ax,ax
  101ba7:	66 90                	xchg   ax,ax
  101ba9:	66 90                	xchg   ax,ax
  101bab:	66 90                	xchg   ax,ax
  101bad:	66 90                	xchg   ax,ax
  101baf:	66 90                	xchg   ax,ax
  101bb1:	66 90                	xchg   ax,ax
  101bb3:	66 90                	xchg   ax,ax
  101bb5:	66 90                	xchg   ax,ax
  101bb7:	66 90                	xchg   ax,ax
  101bb9:	66 90                	xchg   ax,ax
  101bbb:	66 90                	xchg   ax,ax
  101bbd:	66 90                	xchg   ax,ax
  101bbf:	66 90                	xchg   ax,ax
  101bc1:	66 90                	xchg   ax,ax
  101bc3:	66 90                	xchg   ax,ax
  101bc5:	66 90                	xchg   ax,ax
  101bc7:	66 90                	xchg   ax,ax
  101bc9:	66 90                	xchg   ax,ax
  101bcb:	66 90                	xchg   ax,ax
  101bcd:	66 90                	xchg   ax,ax
  101bcf:	66 90                	xchg   ax,ax
  101bd1:	66 90                	xchg   ax,ax
  101bd3:	66 90                	xchg   ax,ax
  101bd5:	66 90                	xchg   ax,ax
  101bd7:	66 90                	xchg   ax,ax
  101bd9:	66 90                	xchg   ax,ax
  101bdb:	66 90                	xchg   ax,ax
  101bdd:	66 90                	xchg   ax,ax
  101bdf:	66 90                	xchg   ax,ax
  101be1:	66 90                	xchg   ax,ax
  101be3:	66 90                	xchg   ax,ax
  101be5:	66 90                	xchg   ax,ax
  101be7:	66 90                	xchg   ax,ax
  101be9:	66 90                	xchg   ax,ax
  101beb:	66 90                	xchg   ax,ax
  101bed:	66 90                	xchg   ax,ax
  101bef:	66 90                	xchg   ax,ax
  101bf1:	66 90                	xchg   ax,ax
  101bf3:	66 90                	xchg   ax,ax
  101bf5:	66 90                	xchg   ax,ax
  101bf7:	66 90                	xchg   ax,ax
  101bf9:	66 90                	xchg   ax,ax
  101bfb:	66 90                	xchg   ax,ax
  101bfd:	66 90                	xchg   ax,ax
  101bff:	66 90                	xchg   ax,ax
  101c01:	66 90                	xchg   ax,ax
  101c03:	66 90                	xchg   ax,ax
  101c05:	66 90                	xchg   ax,ax
  101c07:	66 90                	xchg   ax,ax
  101c09:	66 90                	xchg   ax,ax
  101c0b:	66 90                	xchg   ax,ax
  101c0d:	66 90                	xchg   ax,ax
  101c0f:	66 90                	xchg   ax,ax
  101c11:	66 90                	xchg   ax,ax
  101c13:	66 90                	xchg   ax,ax
  101c15:	66 90                	xchg   ax,ax
  101c17:	66 90                	xchg   ax,ax
  101c19:	66 90                	xchg   ax,ax
  101c1b:	66 90                	xchg   ax,ax
  101c1d:	66 90                	xchg   ax,ax
  101c1f:	66 90                	xchg   ax,ax
  101c21:	66 90                	xchg   ax,ax
  101c23:	66 90                	xchg   ax,ax
  101c25:	66 90                	xchg   ax,ax
  101c27:	66 90                	xchg   ax,ax
  101c29:	66 90                	xchg   ax,ax
  101c2b:	66 90                	xchg   ax,ax
  101c2d:	66 90                	xchg   ax,ax
  101c2f:	66 90                	xchg   ax,ax
  101c31:	66 90                	xchg   ax,ax
  101c33:	66 90                	xchg   ax,ax
  101c35:	66 90                	xchg   ax,ax
  101c37:	66 90                	xchg   ax,ax
  101c39:	66 90                	xchg   ax,ax
  101c3b:	66 90                	xchg   ax,ax
  101c3d:	66 90                	xchg   ax,ax
  101c3f:	66 90                	xchg   ax,ax
  101c41:	66 90                	xchg   ax,ax
  101c43:	66 90                	xchg   ax,ax
  101c45:	66 90                	xchg   ax,ax
  101c47:	66 90                	xchg   ax,ax
  101c49:	66 90                	xchg   ax,ax
  101c4b:	66 90                	xchg   ax,ax
  101c4d:	66 90                	xchg   ax,ax
  101c4f:	66 90                	xchg   ax,ax
  101c51:	66 90                	xchg   ax,ax
  101c53:	66 90                	xchg   ax,ax
  101c55:	66 90                	xchg   ax,ax
  101c57:	66 90                	xchg   ax,ax
  101c59:	66 90                	xchg   ax,ax
  101c5b:	66 90                	xchg   ax,ax
  101c5d:	66 90                	xchg   ax,ax
  101c5f:	66 90                	xchg   ax,ax
  101c61:	66 90                	xchg   ax,ax
  101c63:	66 90                	xchg   ax,ax
  101c65:	66 90                	xchg   ax,ax
  101c67:	66 90                	xchg   ax,ax
  101c69:	66 90                	xchg   ax,ax
  101c6b:	66 90                	xchg   ax,ax
  101c6d:	66 90                	xchg   ax,ax
  101c6f:	66 90                	xchg   ax,ax
  101c71:	66 90                	xchg   ax,ax
  101c73:	66 90                	xchg   ax,ax
  101c75:	66 90                	xchg   ax,ax
  101c77:	66 90                	xchg   ax,ax
  101c79:	66 90                	xchg   ax,ax
  101c7b:	66 90                	xchg   ax,ax
  101c7d:	66 90                	xchg   ax,ax
  101c7f:	66 90                	xchg   ax,ax
  101c81:	66 90                	xchg   ax,ax
  101c83:	66 90                	xchg   ax,ax
  101c85:	66 90                	xchg   ax,ax
  101c87:	66 90                	xchg   ax,ax
  101c89:	66 90                	xchg   ax,ax
  101c8b:	66 90                	xchg   ax,ax
  101c8d:	66 90                	xchg   ax,ax
  101c8f:	66 90                	xchg   ax,ax
  101c91:	66 90                	xchg   ax,ax
  101c93:	66 90                	xchg   ax,ax
  101c95:	66 90                	xchg   ax,ax
  101c97:	66 90                	xchg   ax,ax
  101c99:	66 90                	xchg   ax,ax
  101c9b:	66 90                	xchg   ax,ax
  101c9d:	66 90                	xchg   ax,ax
  101c9f:	66 90                	xchg   ax,ax
  101ca1:	66 90                	xchg   ax,ax
  101ca3:	66 90                	xchg   ax,ax
  101ca5:	66 90                	xchg   ax,ax
  101ca7:	66 90                	xchg   ax,ax
  101ca9:	66 90                	xchg   ax,ax
  101cab:	66 90                	xchg   ax,ax
  101cad:	66 90                	xchg   ax,ax
  101caf:	66 90                	xchg   ax,ax
  101cb1:	66 90                	xchg   ax,ax
  101cb3:	66 90                	xchg   ax,ax
  101cb5:	66 90                	xchg   ax,ax
  101cb7:	66 90                	xchg   ax,ax
  101cb9:	66 90                	xchg   ax,ax
  101cbb:	66 90                	xchg   ax,ax
  101cbd:	66 90                	xchg   ax,ax
  101cbf:	66 90                	xchg   ax,ax
  101cc1:	66 90                	xchg   ax,ax
  101cc3:	66 90                	xchg   ax,ax
  101cc5:	66 90                	xchg   ax,ax
  101cc7:	66 90                	xchg   ax,ax
  101cc9:	66 90                	xchg   ax,ax
  101ccb:	66 90                	xchg   ax,ax
  101ccd:	66 90                	xchg   ax,ax
  101ccf:	66 90                	xchg   ax,ax
  101cd1:	66 90                	xchg   ax,ax
  101cd3:	66 90                	xchg   ax,ax
  101cd5:	66 90                	xchg   ax,ax
  101cd7:	66 90                	xchg   ax,ax
  101cd9:	66 90                	xchg   ax,ax
  101cdb:	66 90                	xchg   ax,ax
  101cdd:	66 90                	xchg   ax,ax
  101cdf:	66 90                	xchg   ax,ax
  101ce1:	66 90                	xchg   ax,ax
  101ce3:	66 90                	xchg   ax,ax
  101ce5:	66 90                	xchg   ax,ax
  101ce7:	66 90                	xchg   ax,ax
  101ce9:	66 90                	xchg   ax,ax
  101ceb:	66 90                	xchg   ax,ax
  101ced:	66 90                	xchg   ax,ax
  101cef:	66 90                	xchg   ax,ax
  101cf1:	66 90                	xchg   ax,ax
  101cf3:	66 90                	xchg   ax,ax
  101cf5:	66 90                	xchg   ax,ax
  101cf7:	66 90                	xchg   ax,ax
  101cf9:	66 90                	xchg   ax,ax
  101cfb:	66 90                	xchg   ax,ax
  101cfd:	66 90                	xchg   ax,ax
  101cff:	66 90                	xchg   ax,ax
  101d01:	66 90                	xchg   ax,ax
  101d03:	66 90                	xchg   ax,ax
  101d05:	66 90                	xchg   ax,ax
  101d07:	66 90                	xchg   ax,ax
  101d09:	66 90                	xchg   ax,ax
  101d0b:	66 90                	xchg   ax,ax
  101d0d:	66 90                	xchg   ax,ax
  101d0f:	66 90                	xchg   ax,ax
  101d11:	66 90                	xchg   ax,ax
  101d13:	66 90                	xchg   ax,ax
  101d15:	66 90                	xchg   ax,ax
  101d17:	66 90                	xchg   ax,ax
  101d19:	66 90                	xchg   ax,ax
  101d1b:	66 90                	xchg   ax,ax
  101d1d:	66 90                	xchg   ax,ax
  101d1f:	66 90                	xchg   ax,ax
  101d21:	66 90                	xchg   ax,ax
  101d23:	66 90                	xchg   ax,ax
  101d25:	66 90                	xchg   ax,ax
  101d27:	66 90                	xchg   ax,ax
  101d29:	66 90                	xchg   ax,ax
  101d2b:	66 90                	xchg   ax,ax
  101d2d:	66 90                	xchg   ax,ax
  101d2f:	66 90                	xchg   ax,ax
  101d31:	66 90                	xchg   ax,ax
  101d33:	66 90                	xchg   ax,ax
  101d35:	66 90                	xchg   ax,ax
  101d37:	66 90                	xchg   ax,ax
  101d39:	66 90                	xchg   ax,ax
  101d3b:	66 90                	xchg   ax,ax
  101d3d:	66 90                	xchg   ax,ax
  101d3f:	66 90                	xchg   ax,ax
  101d41:	66 90                	xchg   ax,ax
  101d43:	66 90                	xchg   ax,ax
  101d45:	66 90                	xchg   ax,ax
  101d47:	66 90                	xchg   ax,ax
  101d49:	66 90                	xchg   ax,ax
  101d4b:	66 90                	xchg   ax,ax
  101d4d:	66 90                	xchg   ax,ax
  101d4f:	66 90                	xchg   ax,ax
  101d51:	66 90                	xchg   ax,ax
  101d53:	66 90                	xchg   ax,ax
  101d55:	66 90                	xchg   ax,ax
  101d57:	66 90                	xchg   ax,ax
  101d59:	66 90                	xchg   ax,ax
  101d5b:	66 90                	xchg   ax,ax
  101d5d:	66 90                	xchg   ax,ax
  101d5f:	66 90                	xchg   ax,ax
  101d61:	66 90                	xchg   ax,ax
  101d63:	66 90                	xchg   ax,ax
  101d65:	66 90                	xchg   ax,ax
  101d67:	66 90                	xchg   ax,ax
  101d69:	66 90                	xchg   ax,ax
  101d6b:	66 90                	xchg   ax,ax
  101d6d:	66 90                	xchg   ax,ax
  101d6f:	66 90                	xchg   ax,ax
  101d71:	66 90                	xchg   ax,ax
  101d73:	66 90                	xchg   ax,ax
  101d75:	66 90                	xchg   ax,ax
  101d77:	66 90                	xchg   ax,ax
  101d79:	66 90                	xchg   ax,ax
  101d7b:	66 90                	xchg   ax,ax
  101d7d:	66 90                	xchg   ax,ax
  101d7f:	66 90                	xchg   ax,ax
  101d81:	66 90                	xchg   ax,ax
  101d83:	66 90                	xchg   ax,ax
  101d85:	66 90                	xchg   ax,ax
  101d87:	66 90                	xchg   ax,ax
  101d89:	66 90                	xchg   ax,ax
  101d8b:	66 90                	xchg   ax,ax
  101d8d:	66 90                	xchg   ax,ax
  101d8f:	66 90                	xchg   ax,ax
  101d91:	66 90                	xchg   ax,ax
  101d93:	66 90                	xchg   ax,ax
  101d95:	66 90                	xchg   ax,ax
  101d97:	66 90                	xchg   ax,ax
  101d99:	66 90                	xchg   ax,ax
  101d9b:	66 90                	xchg   ax,ax
  101d9d:	66 90                	xchg   ax,ax
  101d9f:	66 90                	xchg   ax,ax
  101da1:	66 90                	xchg   ax,ax
  101da3:	66 90                	xchg   ax,ax
  101da5:	66 90                	xchg   ax,ax
  101da7:	66 90                	xchg   ax,ax
  101da9:	66 90                	xchg   ax,ax
  101dab:	66 90                	xchg   ax,ax
  101dad:	66 90                	xchg   ax,ax
  101daf:	66 90                	xchg   ax,ax
  101db1:	66 90                	xchg   ax,ax
  101db3:	66 90                	xchg   ax,ax
  101db5:	66 90                	xchg   ax,ax
  101db7:	66 90                	xchg   ax,ax
  101db9:	66 90                	xchg   ax,ax
  101dbb:	66 90                	xchg   ax,ax
  101dbd:	66 90                	xchg   ax,ax
  101dbf:	66 90                	xchg   ax,ax
  101dc1:	66 90                	xchg   ax,ax
  101dc3:	66 90                	xchg   ax,ax
  101dc5:	66 90                	xchg   ax,ax
  101dc7:	66 90                	xchg   ax,ax
  101dc9:	66 90                	xchg   ax,ax
  101dcb:	66 90                	xchg   ax,ax
  101dcd:	66 90                	xchg   ax,ax
  101dcf:	66 90                	xchg   ax,ax
  101dd1:	66 90                	xchg   ax,ax
  101dd3:	66 90                	xchg   ax,ax
  101dd5:	66 90                	xchg   ax,ax
  101dd7:	66 90                	xchg   ax,ax
  101dd9:	66 90                	xchg   ax,ax
  101ddb:	66 90                	xchg   ax,ax
  101ddd:	66 90                	xchg   ax,ax
  101ddf:	66 90                	xchg   ax,ax
  101de1:	66 90                	xchg   ax,ax
  101de3:	66 90                	xchg   ax,ax
  101de5:	66 90                	xchg   ax,ax
  101de7:	66 90                	xchg   ax,ax
  101de9:	66 90                	xchg   ax,ax
  101deb:	66 90                	xchg   ax,ax
  101ded:	66 90                	xchg   ax,ax
  101def:	66 90                	xchg   ax,ax
  101df1:	66 90                	xchg   ax,ax
  101df3:	66 90                	xchg   ax,ax
  101df5:	66 90                	xchg   ax,ax
  101df7:	66 90                	xchg   ax,ax
  101df9:	66 90                	xchg   ax,ax
  101dfb:	66 90                	xchg   ax,ax
  101dfd:	66 90                	xchg   ax,ax
  101dff:	66 90                	xchg   ax,ax
  101e01:	66 90                	xchg   ax,ax
  101e03:	66 90                	xchg   ax,ax
  101e05:	66 90                	xchg   ax,ax
  101e07:	66 90                	xchg   ax,ax
  101e09:	66 90                	xchg   ax,ax
  101e0b:	66 90                	xchg   ax,ax
  101e0d:	66 90                	xchg   ax,ax
  101e0f:	66 90                	xchg   ax,ax
  101e11:	66 90                	xchg   ax,ax
  101e13:	66 90                	xchg   ax,ax
  101e15:	66 90                	xchg   ax,ax
  101e17:	66 90                	xchg   ax,ax
  101e19:	66 90                	xchg   ax,ax
  101e1b:	66 90                	xchg   ax,ax
  101e1d:	66 90                	xchg   ax,ax
  101e1f:	66 90                	xchg   ax,ax
  101e21:	66 90                	xchg   ax,ax
  101e23:	66 90                	xchg   ax,ax
  101e25:	66 90                	xchg   ax,ax
  101e27:	66 90                	xchg   ax,ax
  101e29:	66 90                	xchg   ax,ax
  101e2b:	66 90                	xchg   ax,ax
  101e2d:	66 90                	xchg   ax,ax
  101e2f:	66 90                	xchg   ax,ax
  101e31:	66 90                	xchg   ax,ax
  101e33:	66 90                	xchg   ax,ax
  101e35:	66 90                	xchg   ax,ax
  101e37:	66 90                	xchg   ax,ax
  101e39:	66 90                	xchg   ax,ax
  101e3b:	66 90                	xchg   ax,ax
  101e3d:	66 90                	xchg   ax,ax
  101e3f:	66 90                	xchg   ax,ax
  101e41:	66 90                	xchg   ax,ax
  101e43:	66 90                	xchg   ax,ax
  101e45:	66 90                	xchg   ax,ax
  101e47:	66 90                	xchg   ax,ax
  101e49:	66 90                	xchg   ax,ax
  101e4b:	66 90                	xchg   ax,ax
  101e4d:	66 90                	xchg   ax,ax
  101e4f:	66 90                	xchg   ax,ax
  101e51:	66 90                	xchg   ax,ax
  101e53:	66 90                	xchg   ax,ax
  101e55:	66 90                	xchg   ax,ax
  101e57:	66 90                	xchg   ax,ax
  101e59:	66 90                	xchg   ax,ax
  101e5b:	66 90                	xchg   ax,ax
  101e5d:	66 90                	xchg   ax,ax
  101e5f:	66 90                	xchg   ax,ax
  101e61:	66 90                	xchg   ax,ax
  101e63:	66 90                	xchg   ax,ax
  101e65:	66 90                	xchg   ax,ax
  101e67:	66 90                	xchg   ax,ax
  101e69:	66 90                	xchg   ax,ax
  101e6b:	66 90                	xchg   ax,ax
  101e6d:	66 90                	xchg   ax,ax
  101e6f:	66 90                	xchg   ax,ax
  101e71:	66 90                	xchg   ax,ax
  101e73:	66 90                	xchg   ax,ax
  101e75:	66 90                	xchg   ax,ax
  101e77:	66 90                	xchg   ax,ax
  101e79:	66 90                	xchg   ax,ax
  101e7b:	66 90                	xchg   ax,ax
  101e7d:	66 90                	xchg   ax,ax
  101e7f:	66 90                	xchg   ax,ax
  101e81:	66 90                	xchg   ax,ax
  101e83:	66 90                	xchg   ax,ax
  101e85:	66 90                	xchg   ax,ax
  101e87:	66 90                	xchg   ax,ax
  101e89:	66 90                	xchg   ax,ax
  101e8b:	66 90                	xchg   ax,ax
  101e8d:	66 90                	xchg   ax,ax
  101e8f:	66 90                	xchg   ax,ax
  101e91:	66 90                	xchg   ax,ax
  101e93:	66 90                	xchg   ax,ax
  101e95:	66 90                	xchg   ax,ax
  101e97:	66 90                	xchg   ax,ax
  101e99:	66 90                	xchg   ax,ax
  101e9b:	66 90                	xchg   ax,ax
  101e9d:	66 90                	xchg   ax,ax
  101e9f:	66 90                	xchg   ax,ax
  101ea1:	66 90                	xchg   ax,ax
  101ea3:	66 90                	xchg   ax,ax
  101ea5:	66 90                	xchg   ax,ax
  101ea7:	66 90                	xchg   ax,ax
  101ea9:	66 90                	xchg   ax,ax
  101eab:	66 90                	xchg   ax,ax
  101ead:	66 90                	xchg   ax,ax
  101eaf:	66 90                	xchg   ax,ax
  101eb1:	66 90                	xchg   ax,ax
  101eb3:	66 90                	xchg   ax,ax
  101eb5:	66 90                	xchg   ax,ax
  101eb7:	66 90                	xchg   ax,ax
  101eb9:	66 90                	xchg   ax,ax
  101ebb:	66 90                	xchg   ax,ax
  101ebd:	66 90                	xchg   ax,ax
  101ebf:	66 90                	xchg   ax,ax
  101ec1:	66 90                	xchg   ax,ax
  101ec3:	66 90                	xchg   ax,ax
  101ec5:	66 90                	xchg   ax,ax
  101ec7:	66 90                	xchg   ax,ax
  101ec9:	66 90                	xchg   ax,ax
  101ecb:	66 90                	xchg   ax,ax
  101ecd:	66 90                	xchg   ax,ax
  101ecf:	66 90                	xchg   ax,ax
  101ed1:	66 90                	xchg   ax,ax
  101ed3:	66 90                	xchg   ax,ax
  101ed5:	66 90                	xchg   ax,ax
  101ed7:	66 90                	xchg   ax,ax
  101ed9:	66 90                	xchg   ax,ax
  101edb:	66 90                	xchg   ax,ax
  101edd:	66 90                	xchg   ax,ax
  101edf:	66 90                	xchg   ax,ax
  101ee1:	66 90                	xchg   ax,ax
  101ee3:	66 90                	xchg   ax,ax
  101ee5:	66 90                	xchg   ax,ax
  101ee7:	66 90                	xchg   ax,ax
  101ee9:	66 90                	xchg   ax,ax
  101eeb:	66 90                	xchg   ax,ax
  101eed:	66 90                	xchg   ax,ax
  101eef:	66 90                	xchg   ax,ax
  101ef1:	66 90                	xchg   ax,ax
  101ef3:	66 90                	xchg   ax,ax
  101ef5:	66 90                	xchg   ax,ax
  101ef7:	66 90                	xchg   ax,ax
  101ef9:	66 90                	xchg   ax,ax
  101efb:	66 90                	xchg   ax,ax
  101efd:	66 90                	xchg   ax,ax
  101eff:	66 90                	xchg   ax,ax
  101f01:	66 90                	xchg   ax,ax
  101f03:	66 90                	xchg   ax,ax
  101f05:	66 90                	xchg   ax,ax
  101f07:	66 90                	xchg   ax,ax
  101f09:	66 90                	xchg   ax,ax
  101f0b:	66 90                	xchg   ax,ax
  101f0d:	66 90                	xchg   ax,ax
  101f0f:	66 90                	xchg   ax,ax
  101f11:	66 90                	xchg   ax,ax
  101f13:	66 90                	xchg   ax,ax
  101f15:	66 90                	xchg   ax,ax
  101f17:	66 90                	xchg   ax,ax
  101f19:	66 90                	xchg   ax,ax
  101f1b:	66 90                	xchg   ax,ax
  101f1d:	66 90                	xchg   ax,ax
  101f1f:	66 90                	xchg   ax,ax
  101f21:	66 90                	xchg   ax,ax
  101f23:	66 90                	xchg   ax,ax
  101f25:	66 90                	xchg   ax,ax
  101f27:	66 90                	xchg   ax,ax
  101f29:	66 90                	xchg   ax,ax
  101f2b:	66 90                	xchg   ax,ax
  101f2d:	66 90                	xchg   ax,ax
  101f2f:	66 90                	xchg   ax,ax
  101f31:	66 90                	xchg   ax,ax
  101f33:	66 90                	xchg   ax,ax
  101f35:	66 90                	xchg   ax,ax
  101f37:	66 90                	xchg   ax,ax
  101f39:	66 90                	xchg   ax,ax
  101f3b:	66 90                	xchg   ax,ax
  101f3d:	66 90                	xchg   ax,ax
  101f3f:	66 90                	xchg   ax,ax
  101f41:	66 90                	xchg   ax,ax
  101f43:	66 90                	xchg   ax,ax
  101f45:	66 90                	xchg   ax,ax
  101f47:	66 90                	xchg   ax,ax
  101f49:	66 90                	xchg   ax,ax
  101f4b:	66 90                	xchg   ax,ax
  101f4d:	66 90                	xchg   ax,ax
  101f4f:	66 90                	xchg   ax,ax
  101f51:	66 90                	xchg   ax,ax
  101f53:	66 90                	xchg   ax,ax
  101f55:	66 90                	xchg   ax,ax
  101f57:	66 90                	xchg   ax,ax
  101f59:	66 90                	xchg   ax,ax
  101f5b:	66 90                	xchg   ax,ax
  101f5d:	66 90                	xchg   ax,ax
  101f5f:	66 90                	xchg   ax,ax
  101f61:	66 90                	xchg   ax,ax
  101f63:	66 90                	xchg   ax,ax
  101f65:	66 90                	xchg   ax,ax
  101f67:	66 90                	xchg   ax,ax
  101f69:	66 90                	xchg   ax,ax
  101f6b:	66 90                	xchg   ax,ax
  101f6d:	66 90                	xchg   ax,ax
  101f6f:	66 90                	xchg   ax,ax
  101f71:	66 90                	xchg   ax,ax
  101f73:	66 90                	xchg   ax,ax
  101f75:	66 90                	xchg   ax,ax
  101f77:	66 90                	xchg   ax,ax
  101f79:	66 90                	xchg   ax,ax
  101f7b:	66 90                	xchg   ax,ax
  101f7d:	66 90                	xchg   ax,ax
  101f7f:	66 90                	xchg   ax,ax
  101f81:	66 90                	xchg   ax,ax
  101f83:	66 90                	xchg   ax,ax
  101f85:	66 90                	xchg   ax,ax
  101f87:	66 90                	xchg   ax,ax
  101f89:	66 90                	xchg   ax,ax
  101f8b:	66 90                	xchg   ax,ax
  101f8d:	66 90                	xchg   ax,ax
  101f8f:	66 90                	xchg   ax,ax
  101f91:	66 90                	xchg   ax,ax
  101f93:	66 90                	xchg   ax,ax
  101f95:	66 90                	xchg   ax,ax
  101f97:	66 90                	xchg   ax,ax
  101f99:	66 90                	xchg   ax,ax
  101f9b:	66 90                	xchg   ax,ax
  101f9d:	66 90                	xchg   ax,ax
  101f9f:	66 90                	xchg   ax,ax
  101fa1:	66 90                	xchg   ax,ax
  101fa3:	66 90                	xchg   ax,ax
  101fa5:	66 90                	xchg   ax,ax
  101fa7:	66 90                	xchg   ax,ax
  101fa9:	66 90                	xchg   ax,ax
  101fab:	66 90                	xchg   ax,ax
  101fad:	66 90                	xchg   ax,ax
  101faf:	66 90                	xchg   ax,ax
  101fb1:	66 90                	xchg   ax,ax
  101fb3:	66 90                	xchg   ax,ax
  101fb5:	66 90                	xchg   ax,ax
  101fb7:	66 90                	xchg   ax,ax
  101fb9:	66 90                	xchg   ax,ax
  101fbb:	66 90                	xchg   ax,ax
  101fbd:	66 90                	xchg   ax,ax
  101fbf:	66 90                	xchg   ax,ax
  101fc1:	66 90                	xchg   ax,ax
  101fc3:	66 90                	xchg   ax,ax
  101fc5:	66 90                	xchg   ax,ax
  101fc7:	66 90                	xchg   ax,ax
  101fc9:	66 90                	xchg   ax,ax
  101fcb:	66 90                	xchg   ax,ax
  101fcd:	66 90                	xchg   ax,ax
  101fcf:	66 90                	xchg   ax,ax
  101fd1:	66 90                	xchg   ax,ax
  101fd3:	66 90                	xchg   ax,ax
  101fd5:	66 90                	xchg   ax,ax
  101fd7:	66 90                	xchg   ax,ax
  101fd9:	66 90                	xchg   ax,ax
  101fdb:	66 90                	xchg   ax,ax
  101fdd:	66 90                	xchg   ax,ax
  101fdf:	66 90                	xchg   ax,ax
  101fe1:	66 90                	xchg   ax,ax
  101fe3:	66 90                	xchg   ax,ax
  101fe5:	66 90                	xchg   ax,ax
  101fe7:	66 90                	xchg   ax,ax
  101fe9:	66 90                	xchg   ax,ax
  101feb:	66 90                	xchg   ax,ax
  101fed:	66 90                	xchg   ax,ax
  101fef:	66 90                	xchg   ax,ax
  101ff1:	66 90                	xchg   ax,ax
  101ff3:	66 90                	xchg   ax,ax
  101ff5:	66 90                	xchg   ax,ax
  101ff7:	66 90                	xchg   ax,ax
  101ff9:	66 90                	xchg   ax,ax
  101ffb:	66 90                	xchg   ax,ax
  101ffd:	66 90                	xchg   ax,ax
  101fff:	90                   	nop
